Certificate:
    Data:
        Version: 3 (0x2)
        Serial Number: 4 (0x4)
    Signature Algorithm: sha256WithRSAEncryption
        Issuer: C=US, ST=Washington, L=Seattle, O=wolfSSL, OU=Engineering, CN=wolfSSL root CA/emailAddress=info@wolfssl.com
        Validity
            Not Before: Apr 13 15:23:10 2018 GMT
            Not After : Jan  7 15:23:10 2021 GMT
        Subject: C=US, ST=Washington, L=Seattle, O=wolfSSL, OU=Engineering, CN=wolfSSL OCSP Responder/emailAddress=info@wolfssl.com
        Subject Public Key Info:
            Public Key Algorithm: rsaEncryption
                Public-Key: (2048 bit)
                Modulus:
                    00:b8:ba:23:b4:f6:c3:7b:14:c3:a4:f5:1d:61:a1:
                    f5:1e:63:b9:85:23:34:50:6d:f8:7c:a2:8a:04:8b:
                    d5:75:5c:2d:f7:63:88:d1:07:7a:ea:0b:45:35:2b:
                    eb:1f:b1:22:b4:94:41:38:e2:9d:74:d6:8b:30:22:
                    10:51:c5:db:ca:3f:46:2b:fe:e5:5a:3f:41:74:67:
                    75:95:a9:94:d5:c3:ee:42:f8:8d:eb:92:95:e1:d9:
                    65:b7:43:c4:18:de:16:80:90:ce:24:35:21:c4:55:
                    ac:5a:51:e0:2e:2d:b3:0a:5a:4f:4a:73:31:50:ee:
                    4a:16:bd:39:8b:ad:05:48:87:b1:99:e2:10:a7:06:
                    72:67:ca:5c:d1:97:bd:c8:f1:76:f8:e0:4a:ec:bc:
                    93:f4:66:4c:28:71:d1:d8:66:03:b4:90:30:bb:17:
                    b0:fe:97:f5:1e:e8:c7:5d:9b:8b:11:19:12:3c:ab:
                    82:71:78:ff:ae:3f:32:b2:08:71:b2:1b:8c:27:ac:
                    11:b8:d8:43:49:cf:b0:70:b1:f0:8c:ae:da:24:87:
                    17:3b:d8:04:65:6c:00:76:50:ef:15:08:d7:b4:73:
                    68:26:14:87:95:c3:5f:6e:61:b8:87:84:fa:80:1a:
                    0a:8b:98:f3:e3:ff:4e:44:1c:65:74:7c:71:54:65:
                    e5:39
                Exponent: 65537 (0x10001)
        X509v3 extensions:
            X509v3 Basic Constraints: 
                CA:FALSE
            X509v3 Subject Key Identifier: 
                32:67:E1:B1:79:D2:81:FC:9F:23:0C:70:40:50:B5:46:56:B8:30:36
            X509v3 Authority Key Identifier: 
                keyid:73:B0:1C:A4:2F:82:CB:CF:47:A5:38:D7:B0:04:82:3A:7E:72:15:21
                DirName:/C=US/ST=Washington/L=Seattle/O=wolfSSL/OU=Engineering/CN=wolfSSL root CA/emailAddress=info@wolfssl.com
                serial:63

            X509v3 Extended Key Usage: 
                OCSP Signing
    Signature Algorithm: sha256WithRSAEncryption
         9b:56:c5:5f:b9:b2:00:30:ca:05:2a:e8:c6:96:ba:aa:23:40:
         40:89:6d:a2:7a:93:f2:c9:8a:6f:0e:5d:5f:6f:ce:5e:4b:38:
         a9:d2:ab:97:78:e3:73:3d:3d:27:e9:00:ce:16:d9:c5:c5:06:
         a8:eb:c6:e5:76:4c:f7:60:1a:69:ae:35:d6:f8:0f:da:9c:83:
         c6:fb:74:a6:12:e5:c7:64:ae:e7:2c:b6:d3:62:1f:f3:20:11:
         2e:09:9b:14:f0:a3:17:d0:2c:be:4a:39:3a:55:58:2f:90:37:
         04:c5:54:27:9d:0e:51:97:da:21:df:05:ec:ca:79:a8:ca:02:
         ca:cf:b7:05:ef:04:fa:f9:81:20:10:c1:7d:4a:a7:93:13:28:
         1e:98:a7:3e:4c:01:13:c3:6b:14:e1:87:37:5f:3a:d3:7d:b6:
         d4:d9:0d:56:93:7f:1d:e9:c2:35:c7:11:7f:42:d0:d5:3d:5f:
         f6:fc:23:24:e3:45:7f:4f:9e:18:df:7b:41:80:fa:bb:bd:16:
         e1:eb:c5:78:52:88:cd:82:c7:92:3a:ce:cb:c6:07:05:ec:70:
         0e:e8:db:44:8f:3b:f3:41:de:b2:19:b0:f6:e0:5a:06:48:d9:
         b9:e2:2b:0f:ec:ec:1f:fb:83:4d:80:d4:6e:34:ed:78:a1:be:
         a2:cb:07:ab
-----BEGIN CERTIFICATE-----
MIIEvjCCA6agAwIBAgIBBDANBgkqhkiG9w0BAQsFADCBlzELMAkGA1UEBhMCVVMx
EzARBgNVBAgMCldhc2hpbmd0b24xEDAOBgNVBAcMB1NlYXR0bGUxEDAOBgNVBAoM
B3dvbGZTU0wxFDASBgNVBAsMC0VuZ2luZWVyaW5nMRgwFgYDVQQDDA93b2xmU1NM
IHJvb3QgQ0ExHzAdBgkqhkiG9w0BCQEWEGluZm9Ad29sZnNzbC5jb20wHhcNMTgw
NDEzMTUyMzEwWhcNMjEwMTA3MTUyMzEwWjCBnjELMAkGA1UEBhMCVVMxEzARBgNV
BAgMCldhc2hpbmd0b24xEDAOBgNVBAcMB1NlYXR0bGUxEDAOBgNVBAoMB3dvbGZT
U0wxFDASBgNVBAsMC0VuZ2luZWVyaW5nMR8wHQYDVQQDDBZ3b2xmU1NMIE9DU1Ag
UmVzcG9uZGVyMR8wHQYJKoZIhvcNAQkBFhBpbmZvQHdvbGZzc2wuY29tMIIBIjAN
BgkqhkiG9w0BAQEFAAOCAQ8AMIIBCgKCAQEAuLojtPbDexTDpPUdYaH1HmO5hSM0
UG34fKKKBIvVdVwt92OI0Qd66gtFNSvrH7EitJRBOOKddNaLMCIQUcXbyj9GK/7l
Wj9BdGd1lamU1cPuQviN65KV4dllt0PEGN4WgJDOJDUhxFWsWlHgLi2zClpPSnMx
UO5KFr05i60FSIexmeIQpwZyZ8pc0Ze9yPF2+OBK7LyT9GZMKHHR2GYDtJAwuxew
/pf1HujHXZuLERkSPKuCcXj/rj8ysghxshuMJ6wRuNhDSc+wcLHwjK7aJIcXO9gE
ZWwAdlDvFQjXtHNoJhSHlcNfbmG4h4T6gBoKi5jz4/9ORBxldHxxVGXlOQIDAQAB
o4IBCjCCAQYwCQYDVR0TBAIwADAdBgNVHQ4EFgQUMmfhsXnSgfyfIwxwQFC1Rla4
MDYwgcQGA1UdIwSBvDCBuYAUc7AcpC+Cy89HpTjXsASCOn5yFSGhgZ2kgZowgZcx
CzAJBgNVBAYTAlVTMRMwEQYDVQQIDApXYXNoaW5ndG9uMRAwDgYDVQQHDAdTZWF0
dGxlMRAwDgYDVQQKDAd3b2xmU1NMMRQwEgYDVQQLDAtFbmdpbmVlcmluZzEYMBYG
A1UEAwwPd29sZlNTTCByb290IENBMR8wHQYJKoZIhvcNAQkBFhBpbmZvQHdvbGZz
c2wuY29tggFjMBMGA1UdJQQMMAoGCCsGAQUFBwMJMA0GCSqGSIb3DQEBCwUAA4IB
AQCbVsVfubIAMMoFKujGlrqqI0BAiW2iepPyyYpvDl1fb85eSzip0quXeONzPT0n
6QDOFtnFxQao68bldkz3YBpprjXW+A/anIPG+3SmEuXHZK7nLLbTYh/zIBEuCZsU
8KMX0Cy+Sjk6VVgvkDcExVQnnQ5Rl9oh3wXsynmoygLKz7cF7wT6+YEgEMF9SqeT
EygemKc+TAETw2sU4Yc3XzrTfbbU2Q1Wk38d6cI1xxF/QtDVPV/2/CMk40V/T54Y
33tBgPq7vRbh68V4UojNgseSOs7LxgcF7HAO6NtEjzvzQd6yGbD24FoGSNm54isP
7Owf+4NNgNRuNO14ob6iywer
-----END CERTIFICATE-----

