;******************************************************************************
;* TI ARM C/C++ Codegen                                             PC v5.1.6 *
;* Date/Time created: Thu Aug 14 09:05:06 2014                                *
;******************************************************************************
	.compiler_opts --abi=eabi --arm_vmrs_si_workaround=on --code_state=16 --diag_wrap=off --disable_dual_state --embedded_constants=on --endian=little --float_support=FPv4SPD16 --hll_source=on --object_format=elf --silicon_version=7M4 --symdebug:dwarf --symdebug:dwarf_version=3 --unaligned_access=on 
	.thumb

$C$DW$CU	.dwtag  DW_TAG_compile_unit
	.dwattr $C$DW$CU, DW_AT_name("C:/wolfssl/ctaocrypt/src/asn.c")
	.dwattr $C$DW$CU, DW_AT_producer("TI TI ARM C/C++ Codegen PC v5.1.6 Copyright (c) 1996-2014 Texas Instruments Incorporated")
	.dwattr $C$DW$CU, DW_AT_TI_version(0x01)
	.dwattr $C$DW$CU, DW_AT_comp_dir("C:\Users\khimes\Documents\GitHub\wolfssl-examples\tirtos_ccs_examples\wolfssl_tirtos_benchmark\Debug")

$C$DW$1	.dwtag  DW_TAG_subprogram, DW_AT_name("memcpy")
	.dwattr $C$DW$1, DW_AT_TI_symbol_name("memcpy")
	.dwattr $C$DW$1, DW_AT_type(*$C$DW$T$3)
	.dwattr $C$DW$1, DW_AT_declaration
	.dwattr $C$DW$1, DW_AT_external
	.dwattr $C$DW$1, DW_AT_decl_file("c:/ti/ccsv6/tools/compiler/arm_5.1.6/include/string.h")
	.dwattr $C$DW$1, DW_AT_decl_line(0x5e)
	.dwattr $C$DW$1, DW_AT_decl_column(0x16)
$C$DW$2	.dwtag  DW_TAG_formal_parameter
	.dwattr $C$DW$2, DW_AT_type(*$C$DW$T$3)
$C$DW$3	.dwtag  DW_TAG_formal_parameter
	.dwattr $C$DW$3, DW_AT_type(*$C$DW$T$245)
$C$DW$4	.dwtag  DW_TAG_formal_parameter
	.dwattr $C$DW$4, DW_AT_type(*$C$DW$T$243)
	.dwendtag $C$DW$1


$C$DW$5	.dwtag  DW_TAG_subprogram, DW_AT_name("MYTIME_gettime")
	.dwattr $C$DW$5, DW_AT_TI_symbol_name("MYTIME_gettime")
	.dwattr $C$DW$5, DW_AT_type(*$C$DW$T$259)
	.dwattr $C$DW$5, DW_AT_declaration
	.dwattr $C$DW$5, DW_AT_external
	.dwattr $C$DW$5, DW_AT_decl_file("C:/ti/ndk_2_24_00_05_eng/packages/ti/ndk/nettools/mytime/mytime.h")
	.dwattr $C$DW$5, DW_AT_decl_line(0x79)
	.dwattr $C$DW$5, DW_AT_decl_column(0x0a)

$C$DW$6	.dwtag  DW_TAG_subprogram, DW_AT_name("wolfSSL_Malloc")
	.dwattr $C$DW$6, DW_AT_TI_symbol_name("wolfSSL_Malloc")
	.dwattr $C$DW$6, DW_AT_type(*$C$DW$T$3)
	.dwattr $C$DW$6, DW_AT_declaration
	.dwattr $C$DW$6, DW_AT_external
	.dwattr $C$DW$6, DW_AT_decl_file("C:/wolfssl/wolfssl/ctaocrypt/memory.h")
	.dwattr $C$DW$6, DW_AT_decl_line(0x2e)
	.dwattr $C$DW$6, DW_AT_decl_column(0x12)
$C$DW$7	.dwtag  DW_TAG_formal_parameter
	.dwattr $C$DW$7, DW_AT_type(*$C$DW$T$243)
	.dwendtag $C$DW$6


$C$DW$8	.dwtag  DW_TAG_subprogram, DW_AT_name("wolfSSL_Free")
	.dwattr $C$DW$8, DW_AT_TI_symbol_name("wolfSSL_Free")
	.dwattr $C$DW$8, DW_AT_declaration
	.dwattr $C$DW$8, DW_AT_external
	.dwattr $C$DW$8, DW_AT_decl_file("C:/wolfssl/wolfssl/ctaocrypt/memory.h")
	.dwattr $C$DW$8, DW_AT_decl_line(0x2f)
	.dwattr $C$DW$8, DW_AT_decl_column(0x12)
$C$DW$9	.dwtag  DW_TAG_formal_parameter
	.dwattr $C$DW$9, DW_AT_type(*$C$DW$T$3)
	.dwendtag $C$DW$8


$C$DW$10	.dwtag  DW_TAG_subprogram, DW_AT_name("memmove")
	.dwattr $C$DW$10, DW_AT_TI_symbol_name("memmove")
	.dwattr $C$DW$10, DW_AT_type(*$C$DW$T$3)
	.dwattr $C$DW$10, DW_AT_declaration
	.dwattr $C$DW$10, DW_AT_external
	.dwattr $C$DW$10, DW_AT_decl_file("c:/ti/ccsv6/tools/compiler/arm_5.1.6/include/string.h")
	.dwattr $C$DW$10, DW_AT_decl_line(0x5d)
	.dwattr $C$DW$10, DW_AT_decl_column(0x16)
$C$DW$11	.dwtag  DW_TAG_formal_parameter
	.dwattr $C$DW$11, DW_AT_type(*$C$DW$T$3)
$C$DW$12	.dwtag  DW_TAG_formal_parameter
	.dwattr $C$DW$12, DW_AT_type(*$C$DW$T$245)
$C$DW$13	.dwtag  DW_TAG_formal_parameter
	.dwattr $C$DW$13, DW_AT_type(*$C$DW$T$243)
	.dwendtag $C$DW$10


$C$DW$14	.dwtag  DW_TAG_subprogram, DW_AT_name("memset")
	.dwattr $C$DW$14, DW_AT_TI_symbol_name("memset")
	.dwattr $C$DW$14, DW_AT_type(*$C$DW$T$3)
	.dwattr $C$DW$14, DW_AT_declaration
	.dwattr $C$DW$14, DW_AT_external
	.dwattr $C$DW$14, DW_AT_decl_file("c:/ti/ccsv6/tools/compiler/arm_5.1.6/include/string.h")
	.dwattr $C$DW$14, DW_AT_decl_line(0x63)
	.dwattr $C$DW$14, DW_AT_decl_column(0x16)
$C$DW$15	.dwtag  DW_TAG_formal_parameter
	.dwattr $C$DW$15, DW_AT_type(*$C$DW$T$3)
$C$DW$16	.dwtag  DW_TAG_formal_parameter
	.dwattr $C$DW$16, DW_AT_type(*$C$DW$T$10)
$C$DW$17	.dwtag  DW_TAG_formal_parameter
	.dwattr $C$DW$17, DW_AT_type(*$C$DW$T$243)
	.dwendtag $C$DW$14


$C$DW$18	.dwtag  DW_TAG_subprogram, DW_AT_name("mp_init")
	.dwattr $C$DW$18, DW_AT_TI_symbol_name("mp_init")
	.dwattr $C$DW$18, DW_AT_type(*$C$DW$T$10)
	.dwattr $C$DW$18, DW_AT_declaration
	.dwattr $C$DW$18, DW_AT_external
	.dwattr $C$DW$18, DW_AT_decl_file("C:/wolfssl/wolfssl/ctaocrypt/tfm.h")
	.dwattr $C$DW$18, DW_AT_decl_line(0x27e)
	.dwattr $C$DW$18, DW_AT_decl_column(0x06)
$C$DW$19	.dwtag  DW_TAG_formal_parameter
	.dwattr $C$DW$19, DW_AT_type(*$C$DW$T$587)
	.dwendtag $C$DW$18


$C$DW$20	.dwtag  DW_TAG_subprogram, DW_AT_name("mp_clear")
	.dwattr $C$DW$20, DW_AT_TI_symbol_name("mp_clear")
	.dwattr $C$DW$20, DW_AT_declaration
	.dwattr $C$DW$20, DW_AT_external
	.dwattr $C$DW$20, DW_AT_decl_file("C:/wolfssl/wolfssl/ctaocrypt/tfm.h")
	.dwattr $C$DW$20, DW_AT_decl_line(0x27f)
	.dwattr $C$DW$20, DW_AT_decl_column(0x06)
$C$DW$21	.dwtag  DW_TAG_formal_parameter
	.dwattr $C$DW$21, DW_AT_type(*$C$DW$T$587)
	.dwendtag $C$DW$20


$C$DW$22	.dwtag  DW_TAG_subprogram, DW_AT_name("mp_unsigned_bin_size")
	.dwattr $C$DW$22, DW_AT_TI_symbol_name("mp_unsigned_bin_size")
	.dwattr $C$DW$22, DW_AT_type(*$C$DW$T$10)
	.dwattr $C$DW$22, DW_AT_declaration
	.dwattr $C$DW$22, DW_AT_external
	.dwattr $C$DW$22, DW_AT_decl_file("C:/wolfssl/wolfssl/ctaocrypt/tfm.h")
	.dwattr $C$DW$22, DW_AT_decl_line(0x28f)
	.dwattr $C$DW$22, DW_AT_decl_column(0x06)
$C$DW$23	.dwtag  DW_TAG_formal_parameter
	.dwattr $C$DW$23, DW_AT_type(*$C$DW$T$587)
	.dwendtag $C$DW$22


$C$DW$24	.dwtag  DW_TAG_subprogram, DW_AT_name("mp_read_unsigned_bin")
	.dwattr $C$DW$24, DW_AT_TI_symbol_name("mp_read_unsigned_bin")
	.dwattr $C$DW$24, DW_AT_type(*$C$DW$T$10)
	.dwattr $C$DW$24, DW_AT_declaration
	.dwattr $C$DW$24, DW_AT_external
	.dwattr $C$DW$24, DW_AT_decl_file("C:/wolfssl/wolfssl/ctaocrypt/tfm.h")
	.dwattr $C$DW$24, DW_AT_decl_line(0x290)
	.dwattr $C$DW$24, DW_AT_decl_column(0x06)
$C$DW$25	.dwtag  DW_TAG_formal_parameter
	.dwattr $C$DW$25, DW_AT_type(*$C$DW$T$587)
$C$DW$26	.dwtag  DW_TAG_formal_parameter
	.dwattr $C$DW$26, DW_AT_type(*$C$DW$T$985)
$C$DW$27	.dwtag  DW_TAG_formal_parameter
	.dwattr $C$DW$27, DW_AT_type(*$C$DW$T$10)
	.dwendtag $C$DW$24


$C$DW$28	.dwtag  DW_TAG_subprogram, DW_AT_name("mp_to_unsigned_bin")
	.dwattr $C$DW$28, DW_AT_TI_symbol_name("mp_to_unsigned_bin")
	.dwattr $C$DW$28, DW_AT_type(*$C$DW$T$10)
	.dwattr $C$DW$28, DW_AT_declaration
	.dwattr $C$DW$28, DW_AT_external
	.dwattr $C$DW$28, DW_AT_decl_file("C:/wolfssl/wolfssl/ctaocrypt/tfm.h")
	.dwattr $C$DW$28, DW_AT_decl_line(0x291)
	.dwattr $C$DW$28, DW_AT_decl_column(0x06)
$C$DW$29	.dwtag  DW_TAG_formal_parameter
	.dwattr $C$DW$29, DW_AT_type(*$C$DW$T$587)
$C$DW$30	.dwtag  DW_TAG_formal_parameter
	.dwattr $C$DW$30, DW_AT_type(*$C$DW$T$992)
	.dwendtag $C$DW$28


$C$DW$31	.dwtag  DW_TAG_subprogram, DW_AT_name("mp_leading_bit")
	.dwattr $C$DW$31, DW_AT_TI_symbol_name("mp_leading_bit")
	.dwattr $C$DW$31, DW_AT_type(*$C$DW$T$10)
	.dwattr $C$DW$31, DW_AT_declaration
	.dwattr $C$DW$31, DW_AT_external
	.dwattr $C$DW$31, DW_AT_decl_file("C:/wolfssl/wolfssl/ctaocrypt/tfm.h")
	.dwattr $C$DW$31, DW_AT_decl_line(0x298)
	.dwattr $C$DW$31, DW_AT_decl_column(0x06)
$C$DW$32	.dwtag  DW_TAG_formal_parameter
	.dwattr $C$DW$32, DW_AT_type(*$C$DW$T$587)
	.dwendtag $C$DW$31


$C$DW$33	.dwtag  DW_TAG_subprogram, DW_AT_name("Arc4Process")
	.dwattr $C$DW$33, DW_AT_TI_symbol_name("Arc4Process")
	.dwattr $C$DW$33, DW_AT_declaration
	.dwattr $C$DW$33, DW_AT_external
	.dwattr $C$DW$33, DW_AT_decl_file("C:/wolfssl/wolfssl/ctaocrypt/arc4.h")
	.dwattr $C$DW$33, DW_AT_decl_line(0x36)
	.dwattr $C$DW$33, DW_AT_decl_column(0x11)
$C$DW$34	.dwtag  DW_TAG_formal_parameter
	.dwattr $C$DW$34, DW_AT_type(*$C$DW$T$608)
$C$DW$35	.dwtag  DW_TAG_formal_parameter
	.dwattr $C$DW$35, DW_AT_type(*$C$DW$T$178)
$C$DW$36	.dwtag  DW_TAG_formal_parameter
	.dwattr $C$DW$36, DW_AT_type(*$C$DW$T$812)
$C$DW$37	.dwtag  DW_TAG_formal_parameter
	.dwattr $C$DW$37, DW_AT_type(*$C$DW$T$179)
	.dwendtag $C$DW$33


$C$DW$38	.dwtag  DW_TAG_subprogram, DW_AT_name("Arc4SetKey")
	.dwattr $C$DW$38, DW_AT_TI_symbol_name("Arc4SetKey")
	.dwattr $C$DW$38, DW_AT_declaration
	.dwattr $C$DW$38, DW_AT_external
	.dwattr $C$DW$38, DW_AT_decl_file("C:/wolfssl/wolfssl/ctaocrypt/arc4.h")
	.dwattr $C$DW$38, DW_AT_decl_line(0x37)
	.dwattr $C$DW$38, DW_AT_decl_column(0x11)
$C$DW$39	.dwtag  DW_TAG_formal_parameter
	.dwattr $C$DW$39, DW_AT_type(*$C$DW$T$608)
$C$DW$40	.dwtag  DW_TAG_formal_parameter
	.dwattr $C$DW$40, DW_AT_type(*$C$DW$T$812)
$C$DW$41	.dwtag  DW_TAG_formal_parameter
	.dwattr $C$DW$41, DW_AT_type(*$C$DW$T$179)
	.dwendtag $C$DW$38


$C$DW$42	.dwtag  DW_TAG_subprogram, DW_AT_name("InitRsaKey")
	.dwattr $C$DW$42, DW_AT_TI_symbol_name("InitRsaKey")
	.dwattr $C$DW$42, DW_AT_type(*$C$DW$T$10)
	.dwattr $C$DW$42, DW_AT_declaration
	.dwattr $C$DW$42, DW_AT_external
	.dwattr $C$DW$42, DW_AT_decl_file("C:/wolfssl/wolfssl/ctaocrypt/rsa.h")
	.dwattr $C$DW$42, DW_AT_decl_line(0x40)
	.dwattr $C$DW$42, DW_AT_decl_column(0x11)
$C$DW$43	.dwtag  DW_TAG_formal_parameter
	.dwattr $C$DW$43, DW_AT_type(*$C$DW$T$663)
$C$DW$44	.dwtag  DW_TAG_formal_parameter
	.dwattr $C$DW$44, DW_AT_type(*$C$DW$T$3)
	.dwendtag $C$DW$42


$C$DW$45	.dwtag  DW_TAG_subprogram, DW_AT_name("FreeRsaKey")
	.dwattr $C$DW$45, DW_AT_TI_symbol_name("FreeRsaKey")
	.dwattr $C$DW$45, DW_AT_type(*$C$DW$T$10)
	.dwattr $C$DW$45, DW_AT_declaration
	.dwattr $C$DW$45, DW_AT_external
	.dwattr $C$DW$45, DW_AT_decl_file("C:/wolfssl/wolfssl/ctaocrypt/rsa.h")
	.dwattr $C$DW$45, DW_AT_decl_line(0x41)
	.dwattr $C$DW$45, DW_AT_decl_column(0x11)
$C$DW$46	.dwtag  DW_TAG_formal_parameter
	.dwattr $C$DW$46, DW_AT_type(*$C$DW$T$663)
	.dwendtag $C$DW$45


$C$DW$47	.dwtag  DW_TAG_subprogram, DW_AT_name("RsaSSL_VerifyInline")
	.dwattr $C$DW$47, DW_AT_TI_symbol_name("RsaSSL_VerifyInline")
	.dwattr $C$DW$47, DW_AT_type(*$C$DW$T$10)
	.dwattr $C$DW$47, DW_AT_declaration
	.dwattr $C$DW$47, DW_AT_external
	.dwattr $C$DW$47, DW_AT_decl_file("C:/wolfssl/wolfssl/ctaocrypt/rsa.h")
	.dwattr $C$DW$47, DW_AT_decl_line(0x4b)
	.dwattr $C$DW$47, DW_AT_decl_column(0x11)
$C$DW$48	.dwtag  DW_TAG_formal_parameter
	.dwattr $C$DW$48, DW_AT_type(*$C$DW$T$178)
$C$DW$49	.dwtag  DW_TAG_formal_parameter
	.dwattr $C$DW$49, DW_AT_type(*$C$DW$T$179)
$C$DW$50	.dwtag  DW_TAG_formal_parameter
	.dwattr $C$DW$50, DW_AT_type(*$C$DW$T$1006)
$C$DW$51	.dwtag  DW_TAG_formal_parameter
	.dwattr $C$DW$51, DW_AT_type(*$C$DW$T$663)
	.dwendtag $C$DW$47


$C$DW$52	.dwtag  DW_TAG_subprogram, DW_AT_name("InitSha")
	.dwattr $C$DW$52, DW_AT_TI_symbol_name("InitSha")
	.dwattr $C$DW$52, DW_AT_type(*$C$DW$T$10)
	.dwattr $C$DW$52, DW_AT_declaration
	.dwattr $C$DW$52, DW_AT_external
	.dwattr $C$DW$52, DW_AT_decl_file("C:/wolfssl/wolfssl/ctaocrypt/sha.h")
	.dwattr $C$DW$52, DW_AT_decl_line(0x41)
	.dwattr $C$DW$52, DW_AT_decl_column(0x10)
$C$DW$53	.dwtag  DW_TAG_formal_parameter
	.dwattr $C$DW$53, DW_AT_type(*$C$DW$T$668)
	.dwendtag $C$DW$52


$C$DW$54	.dwtag  DW_TAG_subprogram, DW_AT_name("ShaUpdate")
	.dwattr $C$DW$54, DW_AT_TI_symbol_name("ShaUpdate")
	.dwattr $C$DW$54, DW_AT_type(*$C$DW$T$10)
	.dwattr $C$DW$54, DW_AT_declaration
	.dwattr $C$DW$54, DW_AT_external
	.dwattr $C$DW$54, DW_AT_decl_file("C:/wolfssl/wolfssl/ctaocrypt/sha.h")
	.dwattr $C$DW$54, DW_AT_decl_line(0x42)
	.dwattr $C$DW$54, DW_AT_decl_column(0x10)
$C$DW$55	.dwtag  DW_TAG_formal_parameter
	.dwattr $C$DW$55, DW_AT_type(*$C$DW$T$668)
$C$DW$56	.dwtag  DW_TAG_formal_parameter
	.dwattr $C$DW$56, DW_AT_type(*$C$DW$T$812)
$C$DW$57	.dwtag  DW_TAG_formal_parameter
	.dwattr $C$DW$57, DW_AT_type(*$C$DW$T$179)
	.dwendtag $C$DW$54


$C$DW$58	.dwtag  DW_TAG_subprogram, DW_AT_name("ShaFinal")
	.dwattr $C$DW$58, DW_AT_TI_symbol_name("ShaFinal")
	.dwattr $C$DW$58, DW_AT_type(*$C$DW$T$10)
	.dwattr $C$DW$58, DW_AT_declaration
	.dwattr $C$DW$58, DW_AT_external
	.dwattr $C$DW$58, DW_AT_decl_file("C:/wolfssl/wolfssl/ctaocrypt/sha.h")
	.dwattr $C$DW$58, DW_AT_decl_line(0x43)
	.dwattr $C$DW$58, DW_AT_decl_column(0x10)
$C$DW$59	.dwtag  DW_TAG_formal_parameter
	.dwattr $C$DW$59, DW_AT_type(*$C$DW$T$668)
$C$DW$60	.dwtag  DW_TAG_formal_parameter
	.dwattr $C$DW$60, DW_AT_type(*$C$DW$T$178)
	.dwendtag $C$DW$58


$C$DW$61	.dwtag  DW_TAG_subprogram, DW_AT_name("ShaHash")
	.dwattr $C$DW$61, DW_AT_TI_symbol_name("ShaHash")
	.dwattr $C$DW$61, DW_AT_type(*$C$DW$T$10)
	.dwattr $C$DW$61, DW_AT_declaration
	.dwattr $C$DW$61, DW_AT_external
	.dwattr $C$DW$61, DW_AT_decl_file("C:/wolfssl/wolfssl/ctaocrypt/sha.h")
	.dwattr $C$DW$61, DW_AT_decl_line(0x44)
	.dwattr $C$DW$61, DW_AT_decl_column(0x10)
$C$DW$62	.dwtag  DW_TAG_formal_parameter
	.dwattr $C$DW$62, DW_AT_type(*$C$DW$T$812)
$C$DW$63	.dwtag  DW_TAG_formal_parameter
	.dwattr $C$DW$63, DW_AT_type(*$C$DW$T$179)
$C$DW$64	.dwtag  DW_TAG_formal_parameter
	.dwattr $C$DW$64, DW_AT_type(*$C$DW$T$178)
	.dwendtag $C$DW$61


$C$DW$65	.dwtag  DW_TAG_subprogram, DW_AT_name("Md5Hash")
	.dwattr $C$DW$65, DW_AT_TI_symbol_name("Md5Hash")
	.dwattr $C$DW$65, DW_AT_type(*$C$DW$T$10)
	.dwattr $C$DW$65, DW_AT_declaration
	.dwattr $C$DW$65, DW_AT_external
	.dwattr $C$DW$65, DW_AT_decl_file("C:/wolfssl/wolfssl/ctaocrypt/md5.h")
	.dwattr $C$DW$65, DW_AT_decl_line(0x42)
	.dwattr $C$DW$65, DW_AT_decl_column(0x11)
$C$DW$66	.dwtag  DW_TAG_formal_parameter
	.dwattr $C$DW$66, DW_AT_type(*$C$DW$T$812)
$C$DW$67	.dwtag  DW_TAG_formal_parameter
	.dwattr $C$DW$67, DW_AT_type(*$C$DW$T$179)
$C$DW$68	.dwtag  DW_TAG_formal_parameter
	.dwattr $C$DW$68, DW_AT_type(*$C$DW$T$178)
	.dwendtag $C$DW$65


$C$DW$69	.dwtag  DW_TAG_subprogram, DW_AT_name("ecc_verify_hash")
	.dwattr $C$DW$69, DW_AT_TI_symbol_name("ecc_verify_hash")
	.dwattr $C$DW$69, DW_AT_type(*$C$DW$T$10)
	.dwattr $C$DW$69, DW_AT_declaration
	.dwattr $C$DW$69, DW_AT_external
	.dwattr $C$DW$69, DW_AT_decl_file("C:/wolfssl/wolfssl/ctaocrypt/ecc.h")
	.dwattr $C$DW$69, DW_AT_decl_line(0x5e)
	.dwattr $C$DW$69, DW_AT_decl_column(0x05)
$C$DW$70	.dwtag  DW_TAG_formal_parameter
	.dwattr $C$DW$70, DW_AT_type(*$C$DW$T$812)
$C$DW$71	.dwtag  DW_TAG_formal_parameter
	.dwattr $C$DW$71, DW_AT_type(*$C$DW$T$179)
$C$DW$72	.dwtag  DW_TAG_formal_parameter
	.dwattr $C$DW$72, DW_AT_type(*$C$DW$T$812)
$C$DW$73	.dwtag  DW_TAG_formal_parameter
	.dwattr $C$DW$73, DW_AT_type(*$C$DW$T$179)
$C$DW$74	.dwtag  DW_TAG_formal_parameter
	.dwattr $C$DW$74, DW_AT_type(*$C$DW$T$819)
$C$DW$75	.dwtag  DW_TAG_formal_parameter
	.dwattr $C$DW$75, DW_AT_type(*$C$DW$T$592)
	.dwendtag $C$DW$69


$C$DW$76	.dwtag  DW_TAG_subprogram, DW_AT_name("ecc_free")
	.dwattr $C$DW$76, DW_AT_TI_symbol_name("ecc_free")
	.dwattr $C$DW$76, DW_AT_declaration
	.dwattr $C$DW$76, DW_AT_external
	.dwattr $C$DW$76, DW_AT_decl_file("C:/wolfssl/wolfssl/ctaocrypt/ecc.h")
	.dwattr $C$DW$76, DW_AT_decl_line(0x63)
	.dwattr $C$DW$76, DW_AT_decl_column(0x06)
$C$DW$77	.dwtag  DW_TAG_formal_parameter
	.dwattr $C$DW$77, DW_AT_type(*$C$DW$T$592)
	.dwendtag $C$DW$76


$C$DW$78	.dwtag  DW_TAG_subprogram, DW_AT_name("ecc_import_x963")
	.dwattr $C$DW$78, DW_AT_TI_symbol_name("ecc_import_x963")
	.dwattr $C$DW$78, DW_AT_type(*$C$DW$T$10)
	.dwattr $C$DW$78, DW_AT_declaration
	.dwattr $C$DW$78, DW_AT_external
	.dwattr $C$DW$78, DW_AT_decl_file("C:/wolfssl/wolfssl/ctaocrypt/ecc.h")
	.dwattr $C$DW$78, DW_AT_decl_line(0x6c)
	.dwattr $C$DW$78, DW_AT_decl_column(0x05)
$C$DW$79	.dwtag  DW_TAG_formal_parameter
	.dwattr $C$DW$79, DW_AT_type(*$C$DW$T$812)
$C$DW$80	.dwtag  DW_TAG_formal_parameter
	.dwattr $C$DW$80, DW_AT_type(*$C$DW$T$179)
$C$DW$81	.dwtag  DW_TAG_formal_parameter
	.dwattr $C$DW$81, DW_AT_type(*$C$DW$T$592)
	.dwendtag $C$DW$78


$C$DW$82	.dwtag  DW_TAG_subprogram, DW_AT_name("ecc_import_private_key")
	.dwattr $C$DW$82, DW_AT_TI_symbol_name("ecc_import_private_key")
	.dwattr $C$DW$82, DW_AT_type(*$C$DW$T$10)
	.dwattr $C$DW$82, DW_AT_declaration
	.dwattr $C$DW$82, DW_AT_external
	.dwattr $C$DW$82, DW_AT_decl_file("C:/wolfssl/wolfssl/ctaocrypt/ecc.h")
	.dwattr $C$DW$82, DW_AT_decl_line(0x6e)
	.dwattr $C$DW$82, DW_AT_decl_column(0x05)
$C$DW$83	.dwtag  DW_TAG_formal_parameter
	.dwattr $C$DW$83, DW_AT_type(*$C$DW$T$812)
$C$DW$84	.dwtag  DW_TAG_formal_parameter
	.dwattr $C$DW$84, DW_AT_type(*$C$DW$T$179)
$C$DW$85	.dwtag  DW_TAG_formal_parameter
	.dwattr $C$DW$85, DW_AT_type(*$C$DW$T$812)
$C$DW$86	.dwtag  DW_TAG_formal_parameter
	.dwattr $C$DW$86, DW_AT_type(*$C$DW$T$179)
$C$DW$87	.dwtag  DW_TAG_formal_parameter
	.dwattr $C$DW$87, DW_AT_type(*$C$DW$T$592)
	.dwendtag $C$DW$82


$C$DW$88	.dwtag  DW_TAG_subprogram, DW_AT_name("Sha256Hash")
	.dwattr $C$DW$88, DW_AT_TI_symbol_name("Sha256Hash")
	.dwattr $C$DW$88, DW_AT_type(*$C$DW$T$10)
	.dwattr $C$DW$88, DW_AT_declaration
	.dwattr $C$DW$88, DW_AT_external
	.dwattr $C$DW$88, DW_AT_decl_file("C:/wolfssl/wolfssl/ctaocrypt/sha256.h")
	.dwattr $C$DW$88, DW_AT_decl_line(0x43)
	.dwattr $C$DW$88, DW_AT_decl_column(0x10)
$C$DW$89	.dwtag  DW_TAG_formal_parameter
	.dwattr $C$DW$89, DW_AT_type(*$C$DW$T$812)
$C$DW$90	.dwtag  DW_TAG_formal_parameter
	.dwattr $C$DW$90, DW_AT_type(*$C$DW$T$179)
$C$DW$91	.dwtag  DW_TAG_formal_parameter
	.dwattr $C$DW$91, DW_AT_type(*$C$DW$T$178)
	.dwendtag $C$DW$88


$C$DW$92	.dwtag  DW_TAG_subprogram, DW_AT_name("Sha512Hash")
	.dwattr $C$DW$92, DW_AT_TI_symbol_name("Sha512Hash")
	.dwattr $C$DW$92, DW_AT_type(*$C$DW$T$10)
	.dwattr $C$DW$92, DW_AT_declaration
	.dwattr $C$DW$92, DW_AT_external
	.dwattr $C$DW$92, DW_AT_decl_file("C:/wolfssl/wolfssl/ctaocrypt/sha512.h")
	.dwattr $C$DW$92, DW_AT_decl_line(0x39)
	.dwattr $C$DW$92, DW_AT_decl_column(0x10)
$C$DW$93	.dwtag  DW_TAG_formal_parameter
	.dwattr $C$DW$93, DW_AT_type(*$C$DW$T$812)
$C$DW$94	.dwtag  DW_TAG_formal_parameter
	.dwattr $C$DW$94, DW_AT_type(*$C$DW$T$179)
$C$DW$95	.dwtag  DW_TAG_formal_parameter
	.dwattr $C$DW$95, DW_AT_type(*$C$DW$T$178)
	.dwendtag $C$DW$92


$C$DW$96	.dwtag  DW_TAG_subprogram, DW_AT_name("PBKDF1")
	.dwattr $C$DW$96, DW_AT_TI_symbol_name("PBKDF1")
	.dwattr $C$DW$96, DW_AT_type(*$C$DW$T$10)
	.dwattr $C$DW$96, DW_AT_declaration
	.dwattr $C$DW$96, DW_AT_external
	.dwattr $C$DW$96, DW_AT_decl_file("C:/wolfssl/wolfssl/ctaocrypt/pwdbased.h")
	.dwattr $C$DW$96, DW_AT_decl_line(0x25)
	.dwattr $C$DW$96, DW_AT_decl_column(0x10)
$C$DW$97	.dwtag  DW_TAG_formal_parameter
	.dwattr $C$DW$97, DW_AT_type(*$C$DW$T$178)
$C$DW$98	.dwtag  DW_TAG_formal_parameter
	.dwattr $C$DW$98, DW_AT_type(*$C$DW$T$812)
$C$DW$99	.dwtag  DW_TAG_formal_parameter
	.dwattr $C$DW$99, DW_AT_type(*$C$DW$T$10)
$C$DW$100	.dwtag  DW_TAG_formal_parameter
	.dwattr $C$DW$100, DW_AT_type(*$C$DW$T$812)
$C$DW$101	.dwtag  DW_TAG_formal_parameter
	.dwattr $C$DW$101, DW_AT_type(*$C$DW$T$10)
$C$DW$102	.dwtag  DW_TAG_formal_parameter
	.dwattr $C$DW$102, DW_AT_type(*$C$DW$T$10)
$C$DW$103	.dwtag  DW_TAG_formal_parameter
	.dwattr $C$DW$103, DW_AT_type(*$C$DW$T$10)
$C$DW$104	.dwtag  DW_TAG_formal_parameter
	.dwattr $C$DW$104, DW_AT_type(*$C$DW$T$10)
	.dwendtag $C$DW$96


$C$DW$105	.dwtag  DW_TAG_subprogram, DW_AT_name("PBKDF2")
	.dwattr $C$DW$105, DW_AT_TI_symbol_name("PBKDF2")
	.dwattr $C$DW$105, DW_AT_type(*$C$DW$T$10)
	.dwattr $C$DW$105, DW_AT_declaration
	.dwattr $C$DW$105, DW_AT_external
	.dwattr $C$DW$105, DW_AT_decl_file("C:/wolfssl/wolfssl/ctaocrypt/pwdbased.h")
	.dwattr $C$DW$105, DW_AT_decl_line(0x28)
	.dwattr $C$DW$105, DW_AT_decl_column(0x10)
$C$DW$106	.dwtag  DW_TAG_formal_parameter
	.dwattr $C$DW$106, DW_AT_type(*$C$DW$T$178)
$C$DW$107	.dwtag  DW_TAG_formal_parameter
	.dwattr $C$DW$107, DW_AT_type(*$C$DW$T$812)
$C$DW$108	.dwtag  DW_TAG_formal_parameter
	.dwattr $C$DW$108, DW_AT_type(*$C$DW$T$10)
$C$DW$109	.dwtag  DW_TAG_formal_parameter
	.dwattr $C$DW$109, DW_AT_type(*$C$DW$T$812)
$C$DW$110	.dwtag  DW_TAG_formal_parameter
	.dwattr $C$DW$110, DW_AT_type(*$C$DW$T$10)
$C$DW$111	.dwtag  DW_TAG_formal_parameter
	.dwattr $C$DW$111, DW_AT_type(*$C$DW$T$10)
$C$DW$112	.dwtag  DW_TAG_formal_parameter
	.dwattr $C$DW$112, DW_AT_type(*$C$DW$T$10)
$C$DW$113	.dwtag  DW_TAG_formal_parameter
	.dwattr $C$DW$113, DW_AT_type(*$C$DW$T$10)
	.dwendtag $C$DW$105


$C$DW$114	.dwtag  DW_TAG_subprogram, DW_AT_name("PKCS12_PBKDF")
	.dwattr $C$DW$114, DW_AT_TI_symbol_name("PKCS12_PBKDF")
	.dwattr $C$DW$114, DW_AT_type(*$C$DW$T$10)
	.dwattr $C$DW$114, DW_AT_declaration
	.dwattr $C$DW$114, DW_AT_external
	.dwattr $C$DW$114, DW_AT_decl_file("C:/wolfssl/wolfssl/ctaocrypt/pwdbased.h")
	.dwattr $C$DW$114, DW_AT_decl_line(0x2b)
	.dwattr $C$DW$114, DW_AT_decl_column(0x10)
$C$DW$115	.dwtag  DW_TAG_formal_parameter
	.dwattr $C$DW$115, DW_AT_type(*$C$DW$T$178)
$C$DW$116	.dwtag  DW_TAG_formal_parameter
	.dwattr $C$DW$116, DW_AT_type(*$C$DW$T$812)
$C$DW$117	.dwtag  DW_TAG_formal_parameter
	.dwattr $C$DW$117, DW_AT_type(*$C$DW$T$10)
$C$DW$118	.dwtag  DW_TAG_formal_parameter
	.dwattr $C$DW$118, DW_AT_type(*$C$DW$T$812)
$C$DW$119	.dwtag  DW_TAG_formal_parameter
	.dwattr $C$DW$119, DW_AT_type(*$C$DW$T$10)
$C$DW$120	.dwtag  DW_TAG_formal_parameter
	.dwattr $C$DW$120, DW_AT_type(*$C$DW$T$10)
$C$DW$121	.dwtag  DW_TAG_formal_parameter
	.dwattr $C$DW$121, DW_AT_type(*$C$DW$T$10)
$C$DW$122	.dwtag  DW_TAG_formal_parameter
	.dwattr $C$DW$122, DW_AT_type(*$C$DW$T$10)
$C$DW$123	.dwtag  DW_TAG_formal_parameter
	.dwattr $C$DW$123, DW_AT_type(*$C$DW$T$10)
	.dwendtag $C$DW$114


$C$DW$124	.dwtag  DW_TAG_subprogram, DW_AT_name("Des_SetKey")
	.dwattr $C$DW$124, DW_AT_TI_symbol_name("Des_SetKey")
	.dwattr $C$DW$124, DW_AT_type(*$C$DW$T$10)
	.dwattr $C$DW$124, DW_AT_declaration
	.dwattr $C$DW$124, DW_AT_external
	.dwattr $C$DW$124, DW_AT_decl_file("C:/wolfssl/wolfssl/ctaocrypt/des3.h")
	.dwattr $C$DW$124, DW_AT_decl_line(0x53)
	.dwattr $C$DW$124, DW_AT_decl_column(0x11)
$C$DW$125	.dwtag  DW_TAG_formal_parameter
	.dwattr $C$DW$125, DW_AT_type(*$C$DW$T$633)
$C$DW$126	.dwtag  DW_TAG_formal_parameter
	.dwattr $C$DW$126, DW_AT_type(*$C$DW$T$812)
$C$DW$127	.dwtag  DW_TAG_formal_parameter
	.dwattr $C$DW$127, DW_AT_type(*$C$DW$T$812)
$C$DW$128	.dwtag  DW_TAG_formal_parameter
	.dwattr $C$DW$128, DW_AT_type(*$C$DW$T$10)
	.dwendtag $C$DW$124


$C$DW$129	.dwtag  DW_TAG_subprogram, DW_AT_name("Des_CbcDecrypt")
	.dwattr $C$DW$129, DW_AT_TI_symbol_name("Des_CbcDecrypt")
	.dwattr $C$DW$129, DW_AT_type(*$C$DW$T$10)
	.dwattr $C$DW$129, DW_AT_declaration
	.dwattr $C$DW$129, DW_AT_external
	.dwattr $C$DW$129, DW_AT_decl_file("C:/wolfssl/wolfssl/ctaocrypt/des3.h")
	.dwattr $C$DW$129, DW_AT_decl_line(0x56)
	.dwattr $C$DW$129, DW_AT_decl_column(0x11)
$C$DW$130	.dwtag  DW_TAG_formal_parameter
	.dwattr $C$DW$130, DW_AT_type(*$C$DW$T$633)
$C$DW$131	.dwtag  DW_TAG_formal_parameter
	.dwattr $C$DW$131, DW_AT_type(*$C$DW$T$178)
$C$DW$132	.dwtag  DW_TAG_formal_parameter
	.dwattr $C$DW$132, DW_AT_type(*$C$DW$T$812)
$C$DW$133	.dwtag  DW_TAG_formal_parameter
	.dwattr $C$DW$133, DW_AT_type(*$C$DW$T$179)
	.dwendtag $C$DW$129


$C$DW$134	.dwtag  DW_TAG_subprogram, DW_AT_name("Des3_SetKey")
	.dwattr $C$DW$134, DW_AT_TI_symbol_name("Des3_SetKey")
	.dwattr $C$DW$134, DW_AT_type(*$C$DW$T$10)
	.dwattr $C$DW$134, DW_AT_declaration
	.dwattr $C$DW$134, DW_AT_external
	.dwattr $C$DW$134, DW_AT_decl_file("C:/wolfssl/wolfssl/ctaocrypt/des3.h")
	.dwattr $C$DW$134, DW_AT_decl_line(0x59)
	.dwattr $C$DW$134, DW_AT_decl_column(0x11)
$C$DW$135	.dwtag  DW_TAG_formal_parameter
	.dwattr $C$DW$135, DW_AT_type(*$C$DW$T$636)
$C$DW$136	.dwtag  DW_TAG_formal_parameter
	.dwattr $C$DW$136, DW_AT_type(*$C$DW$T$812)
$C$DW$137	.dwtag  DW_TAG_formal_parameter
	.dwattr $C$DW$137, DW_AT_type(*$C$DW$T$812)
$C$DW$138	.dwtag  DW_TAG_formal_parameter
	.dwattr $C$DW$138, DW_AT_type(*$C$DW$T$10)
	.dwendtag $C$DW$134


$C$DW$139	.dwtag  DW_TAG_subprogram, DW_AT_name("Des3_CbcDecrypt")
	.dwattr $C$DW$139, DW_AT_TI_symbol_name("Des3_CbcDecrypt")
	.dwattr $C$DW$139, DW_AT_type(*$C$DW$T$10)
	.dwattr $C$DW$139, DW_AT_declaration
	.dwattr $C$DW$139, DW_AT_external
	.dwattr $C$DW$139, DW_AT_decl_file("C:/wolfssl/wolfssl/ctaocrypt/des3.h")
	.dwattr $C$DW$139, DW_AT_decl_line(0x5c)
	.dwattr $C$DW$139, DW_AT_decl_column(0x11)
$C$DW$140	.dwtag  DW_TAG_formal_parameter
	.dwattr $C$DW$140, DW_AT_type(*$C$DW$T$636)
$C$DW$141	.dwtag  DW_TAG_formal_parameter
	.dwattr $C$DW$141, DW_AT_type(*$C$DW$T$178)
$C$DW$142	.dwtag  DW_TAG_formal_parameter
	.dwattr $C$DW$142, DW_AT_type(*$C$DW$T$812)
$C$DW$143	.dwtag  DW_TAG_formal_parameter
	.dwattr $C$DW$143, DW_AT_type(*$C$DW$T$179)
	.dwendtag $C$DW$139


$C$DW$144	.dwtag  DW_TAG_subprogram, DW_AT_name("GetCA")
	.dwattr $C$DW$144, DW_AT_TI_symbol_name("GetCA")
	.dwattr $C$DW$144, DW_AT_type(*$C$DW$T$222)
	.dwattr $C$DW$144, DW_AT_declaration
	.dwattr $C$DW$144, DW_AT_external
	.dwattr $C$DW$144, DW_AT_decl_file("C:/wolfssl/ctaocrypt/src/asn.c")
	.dwattr $C$DW$144, DW_AT_decl_line(0x103c)
	.dwattr $C$DW$144, DW_AT_decl_column(0x1a)
$C$DW$145	.dwtag  DW_TAG_formal_parameter
	.dwattr $C$DW$145, DW_AT_type(*$C$DW$T$3)
$C$DW$146	.dwtag  DW_TAG_formal_parameter
	.dwattr $C$DW$146, DW_AT_type(*$C$DW$T$178)
	.dwendtag $C$DW$144


$C$DW$147	.dwtag  DW_TAG_subprogram, DW_AT_name("GetCAByName")
	.dwattr $C$DW$147, DW_AT_TI_symbol_name("GetCAByName")
	.dwattr $C$DW$147, DW_AT_type(*$C$DW$T$222)
	.dwattr $C$DW$147, DW_AT_declaration
	.dwattr $C$DW$147, DW_AT_external
	.dwattr $C$DW$147, DW_AT_decl_file("C:/wolfssl/ctaocrypt/src/asn.c")
	.dwattr $C$DW$147, DW_AT_decl_line(0x103e)
	.dwattr $C$DW$147, DW_AT_decl_column(0x1e)
$C$DW$148	.dwtag  DW_TAG_formal_parameter
	.dwattr $C$DW$148, DW_AT_type(*$C$DW$T$3)
$C$DW$149	.dwtag  DW_TAG_formal_parameter
	.dwattr $C$DW$149, DW_AT_type(*$C$DW$T$178)
	.dwendtag $C$DW$147

st_time$2:	.usect	".bss:st_time$2",44,4
	.sect	".const"
	.align	4
	.elfsym	||$O1$$||,SYM_SIZE(284)
||$O1$$||:
	.bits	43,8			; $O1$$.desCbcAlgoID$9[0] @ 0
	.bits	14,8			; $O1$$.desCbcAlgoID$9[1] @ 8
	.bits	3,8			; $O1$$.desCbcAlgoID$9[2] @ 16
	.bits	2,8			; $O1$$.desCbcAlgoID$9[3] @ 24
	.bits	7,8			; $O1$$.desCbcAlgoID$9[4] @ 32
	.bits	43,8			; $O1$$.shaAlgoID$3[0] @ 40
	.bits	14,8			; $O1$$.shaAlgoID$3[1] @ 48
	.bits	3,8			; $O1$$.shaAlgoID$3[2] @ 56
	.bits	2,8			; $O1$$.shaAlgoID$3[3] @ 64
	.bits	26,8			; $O1$$.shaAlgoID$3[4] @ 72
	.bits	5,8			; $O1$$.shaAlgoID$3[5] @ 80
	.bits	0,8			; $O1$$.shaAlgoID$3[6] @ 88
	.bits	42,8			; $O1$$.ECC_AlgoID$21[0] @ 96
	.bits	134,8			; $O1$$.ECC_AlgoID$21[1] @ 104
	.bits	72,8			; $O1$$.ECC_AlgoID$21[2] @ 112
	.bits	206,8			; $O1$$.ECC_AlgoID$21[3] @ 120
	.bits	61,8			; $O1$$.ECC_AlgoID$21[4] @ 128
	.bits	2,8			; $O1$$.ECC_AlgoID$21[5] @ 136
	.bits	1,8			; $O1$$.ECC_AlgoID$21[6] @ 144
	.bits	42,8			; $O1$$.des3CbcAlgoID$10[0] @ 152
	.bits	134,8			; $O1$$.des3CbcAlgoID$10[1] @ 160
	.bits	72,8			; $O1$$.des3CbcAlgoID$10[2] @ 168
	.bits	134,8			; $O1$$.des3CbcAlgoID$10[3] @ 176
	.bits	247,8			; $O1$$.des3CbcAlgoID$10[4] @ 184
	.bits	13,8			; $O1$$.des3CbcAlgoID$10[5] @ 192
	.bits	3,8			; $O1$$.des3CbcAlgoID$10[6] @ 200
	.bits	7,8			; $O1$$.des3CbcAlgoID$10[7] @ 208
	.bits	42,8			; $O1$$.shawECDSA_AlgoID$16[0] @ 216
	.bits	134,8			; $O1$$.shawECDSA_AlgoID$16[1] @ 224
	.bits	72,8			; $O1$$.shawECDSA_AlgoID$16[2] @ 232
	.bits	206,8			; $O1$$.shawECDSA_AlgoID$16[3] @ 240
	.bits	61,8			; $O1$$.shawECDSA_AlgoID$16[4] @ 248
	.bits	4,8			; $O1$$.shawECDSA_AlgoID$16[5] @ 256
	.bits	1,8			; $O1$$.shawECDSA_AlgoID$16[6] @ 264
	.bits	5,8			; $O1$$.shawECDSA_AlgoID$16[7] @ 272
	.bits	0,8			; $O1$$.shawECDSA_AlgoID$16[8] @ 280
	.bits	42,8			; $O1$$.md5AlgoID$7[0] @ 288
	.bits	134,8			; $O1$$.md5AlgoID$7[1] @ 296
	.bits	72,8			; $O1$$.md5AlgoID$7[2] @ 304
	.bits	134,8			; $O1$$.md5AlgoID$7[3] @ 312
	.bits	247,8			; $O1$$.md5AlgoID$7[4] @ 320
	.bits	13,8			; $O1$$.md5AlgoID$7[5] @ 328
	.bits	2,8			; $O1$$.md5AlgoID$7[6] @ 336
	.bits	5,8			; $O1$$.md5AlgoID$7[7] @ 344
	.bits	5,8			; $O1$$.md5AlgoID$7[8] @ 352
	.bits	0,8			; $O1$$.md5AlgoID$7[9] @ 360
	.bits	42,8			; $O1$$.md2AlgoID$8[0] @ 368
	.bits	134,8			; $O1$$.md2AlgoID$8[1] @ 376
	.bits	72,8			; $O1$$.md2AlgoID$8[2] @ 384
	.bits	134,8			; $O1$$.md2AlgoID$8[3] @ 392
	.bits	247,8			; $O1$$.md2AlgoID$8[4] @ 400
	.bits	13,8			; $O1$$.md2AlgoID$8[5] @ 408
	.bits	2,8			; $O1$$.md2AlgoID$8[6] @ 416
	.bits	2,8			; $O1$$.md2AlgoID$8[7] @ 424
	.bits	5,8			; $O1$$.md2AlgoID$8[8] @ 432
	.bits	0,8			; $O1$$.md2AlgoID$8[9] @ 440
	.bits	42,8			; $O1$$.sha256wECDSA_AlgoID$17[0] @ 448
	.bits	134,8			; $O1$$.sha256wECDSA_AlgoID$17[1] @ 456
	.bits	72,8			; $O1$$.sha256wECDSA_AlgoID$17[2] @ 464
	.bits	206,8			; $O1$$.sha256wECDSA_AlgoID$17[3] @ 472
	.bits	61,8			; $O1$$.sha256wECDSA_AlgoID$17[4] @ 480
	.bits	4,8			; $O1$$.sha256wECDSA_AlgoID$17[5] @ 488
	.bits	3,8			; $O1$$.sha256wECDSA_AlgoID$17[6] @ 496
	.bits	2,8			; $O1$$.sha256wECDSA_AlgoID$17[7] @ 504
	.bits	5,8			; $O1$$.sha256wECDSA_AlgoID$17[8] @ 512
	.bits	0,8			; $O1$$.sha256wECDSA_AlgoID$17[9] @ 520
	.bits	42,8			; $O1$$.sha384wECDSA_AlgoID$18[0] @ 528
	.bits	134,8			; $O1$$.sha384wECDSA_AlgoID$18[1] @ 536
	.bits	72,8			; $O1$$.sha384wECDSA_AlgoID$18[2] @ 544
	.bits	206,8			; $O1$$.sha384wECDSA_AlgoID$18[3] @ 552
	.bits	61,8			; $O1$$.sha384wECDSA_AlgoID$18[4] @ 560
	.bits	4,8			; $O1$$.sha384wECDSA_AlgoID$18[5] @ 568
	.bits	3,8			; $O1$$.sha384wECDSA_AlgoID$18[6] @ 576
	.bits	3,8			; $O1$$.sha384wECDSA_AlgoID$18[7] @ 584
	.bits	5,8			; $O1$$.sha384wECDSA_AlgoID$18[8] @ 592
	.bits	0,8			; $O1$$.sha384wECDSA_AlgoID$18[9] @ 600
	.bits	42,8			; $O1$$.sha512wECDSA_AlgoID$19[0] @ 608
	.bits	134,8			; $O1$$.sha512wECDSA_AlgoID$19[1] @ 616
	.bits	72,8			; $O1$$.sha512wECDSA_AlgoID$19[2] @ 624
	.bits	206,8			; $O1$$.sha512wECDSA_AlgoID$19[3] @ 632
	.bits	61,8			; $O1$$.sha512wECDSA_AlgoID$19[4] @ 640
	.bits	4,8			; $O1$$.sha512wECDSA_AlgoID$19[5] @ 648
	.bits	3,8			; $O1$$.sha512wECDSA_AlgoID$19[6] @ 656
	.bits	4,8			; $O1$$.sha512wECDSA_AlgoID$19[7] @ 664
	.bits	5,8			; $O1$$.sha512wECDSA_AlgoID$19[8] @ 672
	.bits	0,8			; $O1$$.sha512wECDSA_AlgoID$19[9] @ 680
	.bits	96,8			; $O1$$.sha256AlgoID$4[0] @ 688
	.bits	134,8			; $O1$$.sha256AlgoID$4[1] @ 696
	.bits	72,8			; $O1$$.sha256AlgoID$4[2] @ 704
	.bits	1,8			; $O1$$.sha256AlgoID$4[3] @ 712
	.bits	101,8			; $O1$$.sha256AlgoID$4[4] @ 720
	.bits	3,8			; $O1$$.sha256AlgoID$4[5] @ 728
	.bits	4,8			; $O1$$.sha256AlgoID$4[6] @ 736
	.bits	2,8			; $O1$$.sha256AlgoID$4[7] @ 744
	.bits	1,8			; $O1$$.sha256AlgoID$4[8] @ 752
	.bits	5,8			; $O1$$.sha256AlgoID$4[9] @ 760
	.bits	0,8			; $O1$$.sha256AlgoID$4[10] @ 768
	.bits	96,8			; $O1$$.sha384AlgoID$5[0] @ 776
	.bits	134,8			; $O1$$.sha384AlgoID$5[1] @ 784
	.bits	72,8			; $O1$$.sha384AlgoID$5[2] @ 792
	.bits	1,8			; $O1$$.sha384AlgoID$5[3] @ 800
	.bits	101,8			; $O1$$.sha384AlgoID$5[4] @ 808
	.bits	3,8			; $O1$$.sha384AlgoID$5[5] @ 816
	.bits	4,8			; $O1$$.sha384AlgoID$5[6] @ 824
	.bits	2,8			; $O1$$.sha384AlgoID$5[7] @ 832
	.bits	2,8			; $O1$$.sha384AlgoID$5[8] @ 840
	.bits	5,8			; $O1$$.sha384AlgoID$5[9] @ 848
	.bits	0,8			; $O1$$.sha384AlgoID$5[10] @ 856
	.bits	96,8			; $O1$$.sha512AlgoID$6[0] @ 864
	.bits	134,8			; $O1$$.sha512AlgoID$6[1] @ 872
	.bits	72,8			; $O1$$.sha512AlgoID$6[2] @ 880
	.bits	1,8			; $O1$$.sha512AlgoID$6[3] @ 888
	.bits	101,8			; $O1$$.sha512AlgoID$6[4] @ 896
	.bits	3,8			; $O1$$.sha512AlgoID$6[5] @ 904
	.bits	4,8			; $O1$$.sha512AlgoID$6[6] @ 912
	.bits	2,8			; $O1$$.sha512AlgoID$6[7] @ 920
	.bits	3,8			; $O1$$.sha512AlgoID$6[8] @ 928
	.bits	5,8			; $O1$$.sha512AlgoID$6[9] @ 936
	.bits	0,8			; $O1$$.sha512AlgoID$6[10] @ 944
	.bits	42,8			; $O1$$.md5wRSA_AlgoID$11[0] @ 952
	.bits	134,8			; $O1$$.md5wRSA_AlgoID$11[1] @ 960
	.bits	72,8			; $O1$$.md5wRSA_AlgoID$11[2] @ 968
	.bits	134,8			; $O1$$.md5wRSA_AlgoID$11[3] @ 976
	.bits	247,8			; $O1$$.md5wRSA_AlgoID$11[4] @ 984
	.bits	13,8			; $O1$$.md5wRSA_AlgoID$11[5] @ 992
	.bits	1,8			; $O1$$.md5wRSA_AlgoID$11[6] @ 1000
	.bits	1,8			; $O1$$.md5wRSA_AlgoID$11[7] @ 1008
	.bits	4,8			; $O1$$.md5wRSA_AlgoID$11[8] @ 1016
	.bits	5,8			; $O1$$.md5wRSA_AlgoID$11[9] @ 1024
	.bits	0,8			; $O1$$.md5wRSA_AlgoID$11[10] @ 1032
	.bits	42,8			; $O1$$.shawRSA_AlgoID$12[0] @ 1040
	.bits	134,8			; $O1$$.shawRSA_AlgoID$12[1] @ 1048
	.bits	72,8			; $O1$$.shawRSA_AlgoID$12[2] @ 1056
	.bits	134,8			; $O1$$.shawRSA_AlgoID$12[3] @ 1064
	.bits	247,8			; $O1$$.shawRSA_AlgoID$12[4] @ 1072
	.bits	13,8			; $O1$$.shawRSA_AlgoID$12[5] @ 1080
	.bits	1,8			; $O1$$.shawRSA_AlgoID$12[6] @ 1088
	.bits	1,8			; $O1$$.shawRSA_AlgoID$12[7] @ 1096
	.bits	5,8			; $O1$$.shawRSA_AlgoID$12[8] @ 1104
	.bits	5,8			; $O1$$.shawRSA_AlgoID$12[9] @ 1112
	.bits	0,8			; $O1$$.shawRSA_AlgoID$12[10] @ 1120
	.bits	42,8			; $O1$$.sha256wRSA_AlgoID$13[0] @ 1128
	.bits	134,8			; $O1$$.sha256wRSA_AlgoID$13[1] @ 1136
	.bits	72,8			; $O1$$.sha256wRSA_AlgoID$13[2] @ 1144
	.bits	134,8			; $O1$$.sha256wRSA_AlgoID$13[3] @ 1152
	.bits	247,8			; $O1$$.sha256wRSA_AlgoID$13[4] @ 1160
	.bits	13,8			; $O1$$.sha256wRSA_AlgoID$13[5] @ 1168
	.bits	1,8			; $O1$$.sha256wRSA_AlgoID$13[6] @ 1176
	.bits	1,8			; $O1$$.sha256wRSA_AlgoID$13[7] @ 1184
	.bits	11,8			; $O1$$.sha256wRSA_AlgoID$13[8] @ 1192
	.bits	5,8			; $O1$$.sha256wRSA_AlgoID$13[9] @ 1200
	.bits	0,8			; $O1$$.sha256wRSA_AlgoID$13[10] @ 1208
	.bits	42,8			; $O1$$.sha384wRSA_AlgoID$14[0] @ 1216
	.bits	134,8			; $O1$$.sha384wRSA_AlgoID$14[1] @ 1224
	.bits	72,8			; $O1$$.sha384wRSA_AlgoID$14[2] @ 1232
	.bits	134,8			; $O1$$.sha384wRSA_AlgoID$14[3] @ 1240
	.bits	247,8			; $O1$$.sha384wRSA_AlgoID$14[4] @ 1248
	.bits	13,8			; $O1$$.sha384wRSA_AlgoID$14[5] @ 1256
	.bits	1,8			; $O1$$.sha384wRSA_AlgoID$14[6] @ 1264
	.bits	1,8			; $O1$$.sha384wRSA_AlgoID$14[7] @ 1272
	.bits	12,8			; $O1$$.sha384wRSA_AlgoID$14[8] @ 1280
	.bits	5,8			; $O1$$.sha384wRSA_AlgoID$14[9] @ 1288
	.bits	0,8			; $O1$$.sha384wRSA_AlgoID$14[10] @ 1296
	.bits	42,8			; $O1$$.sha512wRSA_AlgoID$15[0] @ 1304
	.bits	134,8			; $O1$$.sha512wRSA_AlgoID$15[1] @ 1312
	.bits	72,8			; $O1$$.sha512wRSA_AlgoID$15[2] @ 1320
	.bits	134,8			; $O1$$.sha512wRSA_AlgoID$15[3] @ 1328
	.bits	247,8			; $O1$$.sha512wRSA_AlgoID$15[4] @ 1336
	.bits	13,8			; $O1$$.sha512wRSA_AlgoID$15[5] @ 1344
	.bits	1,8			; $O1$$.sha512wRSA_AlgoID$15[6] @ 1352
	.bits	1,8			; $O1$$.sha512wRSA_AlgoID$15[7] @ 1360
	.bits	13,8			; $O1$$.sha512wRSA_AlgoID$15[8] @ 1368
	.bits	5,8			; $O1$$.sha512wRSA_AlgoID$15[9] @ 1376
	.bits	0,8			; $O1$$.sha512wRSA_AlgoID$15[10] @ 1384
	.bits	42,8			; $O1$$.RSA_AlgoID$20[0] @ 1392
	.bits	134,8			; $O1$$.RSA_AlgoID$20[1] @ 1400
	.bits	72,8			; $O1$$.RSA_AlgoID$20[2] @ 1408
	.bits	134,8			; $O1$$.RSA_AlgoID$20[3] @ 1416
	.bits	247,8			; $O1$$.RSA_AlgoID$20[4] @ 1424
	.bits	13,8			; $O1$$.RSA_AlgoID$20[5] @ 1432
	.bits	1,8			; $O1$$.RSA_AlgoID$20[6] @ 1440
	.bits	1,8			; $O1$$.RSA_AlgoID$20[7] @ 1448
	.bits	1,8			; $O1$$.RSA_AlgoID$20[8] @ 1456
	.bits	5,8			; $O1$$.RSA_AlgoID$20[9] @ 1464
	.bits	0,8			; $O1$$.RSA_AlgoID$20[10] @ 1472
	.bits	0,24
	.bits	31,32			; $O1$$._ytab$1[0][0] @ 1504
	.bits	28,32			; $O1$$._ytab$1[0][1] @ 1536
	.bits	31,32			; $O1$$._ytab$1[0][2] @ 1568
	.bits	30,32			; $O1$$._ytab$1[0][3] @ 1600
	.bits	31,32			; $O1$$._ytab$1[0][4] @ 1632
	.bits	30,32			; $O1$$._ytab$1[0][5] @ 1664
	.bits	31,32			; $O1$$._ytab$1[0][6] @ 1696
	.bits	31,32			; $O1$$._ytab$1[0][7] @ 1728
	.bits	30,32			; $O1$$._ytab$1[0][8] @ 1760
	.bits	31,32			; $O1$$._ytab$1[0][9] @ 1792
	.bits	30,32			; $O1$$._ytab$1[0][10] @ 1824
	.bits	31,32			; $O1$$._ytab$1[0][11] @ 1856
	.bits	31,32			; $O1$$._ytab$1[1][0] @ 1888
	.bits	29,32			; $O1$$._ytab$1[1][1] @ 1920
	.bits	31,32			; $O1$$._ytab$1[1][2] @ 1952
	.bits	30,32			; $O1$$._ytab$1[1][3] @ 1984
	.bits	31,32			; $O1$$._ytab$1[1][4] @ 2016
	.bits	30,32			; $O1$$._ytab$1[1][5] @ 2048
	.bits	31,32			; $O1$$._ytab$1[1][6] @ 2080
	.bits	31,32			; $O1$$._ytab$1[1][7] @ 2112
	.bits	30,32			; $O1$$._ytab$1[1][8] @ 2144
	.bits	31,32			; $O1$$._ytab$1[1][9] @ 2176
	.bits	30,32			; $O1$$._ytab$1[1][10] @ 2208
	.bits	31,32			; $O1$$._ytab$1[1][11] @ 2240


;*********************************************************************
;* GROUPED GLOBALS FOR $O1$$                                         *
;*********************************************************************
desCbcAlgoID$9:	.set	||$O1$$||+0
shaAlgoID$3:	.set	||$O1$$||+5
ECC_AlgoID$21:	.set	||$O1$$||+12
des3CbcAlgoID$10:	.set	||$O1$$||+19
shawECDSA_AlgoID$16:	.set	||$O1$$||+27
md5AlgoID$7:	.set	||$O1$$||+36
md2AlgoID$8:	.set	||$O1$$||+46
sha256wECDSA_AlgoID$17:	.set	||$O1$$||+56
sha384wECDSA_AlgoID$18:	.set	||$O1$$||+66
sha512wECDSA_AlgoID$19:	.set	||$O1$$||+76
sha256AlgoID$4:	.set	||$O1$$||+86
sha384AlgoID$5:	.set	||$O1$$||+97
sha512AlgoID$6:	.set	||$O1$$||+108
md5wRSA_AlgoID$11:	.set	||$O1$$||+119
shawRSA_AlgoID$12:	.set	||$O1$$||+130
sha256wRSA_AlgoID$13:	.set	||$O1$$||+141
sha384wRSA_AlgoID$14:	.set	||$O1$$||+152
sha512wRSA_AlgoID$15:	.set	||$O1$$||+163
RSA_AlgoID$20:	.set	||$O1$$||+174
_ytab$1:	.set	||$O1$$||+188
;	c:\ti\ccsv6\tools\compiler\arm_5.1.6\bin\armopt.exe --call_assumptions=3 --gen_opt_info=2 C:\\Users\\khimes\\AppData\\Local\\Temp\\020562 C:\\Users\\khimes\\AppData\\Local\\Temp\\020564 --opt_info_filename=wolfssl/ctaocrypt/src/asn.nfo 
;

; The following variables will be grouped together to share a common
; base address.  References in the source interlisting will look like
; "1$$.shaAlgoID", "K$1->shaAlgoID", "C$1->shaAlgoID", "&1$$+5", and "C$1+5".
;
;    --offset--    --size--	--variable--
;
;         0            5	static const unsigned char desCbcAlgoID$9[5]
;         5            7	static const unsigned char shaAlgoID$3[7]
;        12            7	static const unsigned char ECC_AlgoID$21[7]
;        19            8	static const unsigned char des3CbcAlgoID$10[8]
;        27            9	static const unsigned char shawECDSA_AlgoID$16[9]
;        36           10	static const unsigned char md5AlgoID$7[10]
;        46           10	static const unsigned char md2AlgoID$8[10]
;        56           10	static const unsigned char sha256wECDSA_AlgoID$17[10]
;        66           10	static const unsigned char sha384wECDSA_AlgoID$18[10]
;        76           10	static const unsigned char sha512wECDSA_AlgoID$19[10]
;        86           11	static const unsigned char sha256AlgoID$4[11]
;        97           11	static const unsigned char sha384AlgoID$5[11]
;       108           11	static const unsigned char sha512AlgoID$6[11]
;       119           11	static const unsigned char md5wRSA_AlgoID$11[11]
;       130           11	static const unsigned char shawRSA_AlgoID$12[11]
;       141           11	static const unsigned char sha256wRSA_AlgoID$13[11]
;       152           11	static const unsigned char sha384wRSA_AlgoID$14[11]
;       163           11	static const unsigned char sha512wRSA_AlgoID$15[11]
;       174           11	static const unsigned char RSA_AlgoID$20[11]
;       188           96	static const int _ytab$1[2][12]
;
	.sect	".text:gmtime"
	.clink
	.thumbfunc gmtime
	.thumb
	.global	gmtime

$C$DW$150	.dwtag  DW_TAG_subprogram, DW_AT_name("gmtime")
	.dwattr $C$DW$150, DW_AT_low_pc(gmtime)
	.dwattr $C$DW$150, DW_AT_high_pc(0x00)
	.dwattr $C$DW$150, DW_AT_TI_symbol_name("gmtime")
	.dwattr $C$DW$150, DW_AT_external
	.dwattr $C$DW$150, DW_AT_type(*$C$DW$T$1707)
	.dwattr $C$DW$150, DW_AT_TI_begin_file("C:/wolfssl/ctaocrypt/src/asn.c")
	.dwattr $C$DW$150, DW_AT_TI_begin_line(0xc3)
	.dwattr $C$DW$150, DW_AT_TI_begin_column(0x0c)
	.dwattr $C$DW$150, DW_AT_decl_file("C:/wolfssl/ctaocrypt/src/asn.c")
	.dwattr $C$DW$150, DW_AT_decl_line(0xc3)
	.dwattr $C$DW$150, DW_AT_decl_column(0x0c)
	.dwattr $C$DW$150, DW_AT_TI_max_frame_size(0x20)
	.dwpsn	file "C:/wolfssl/ctaocrypt/src/asn.c",line 196,column 1,is_stmt,address gmtime,isa 1

	.dwfde $C$DW$CIE, gmtime
$C$DW$151	.dwtag  DW_TAG_variable, DW_AT_name("st_time")
	.dwattr $C$DW$151, DW_AT_TI_symbol_name("st_time$2")
	.dwattr $C$DW$151, DW_AT_type(*$C$DW$T$442)
	.dwattr $C$DW$151, DW_AT_location[DW_OP_addr st_time$2]
$C$DW$152	.dwtag  DW_TAG_variable, DW_AT_name("_ytab")
	.dwattr $C$DW$152, DW_AT_TI_symbol_name("_ytab$1")
	.dwattr $C$DW$152, DW_AT_type(*$C$DW$T$166)
	.dwattr $C$DW$152, DW_AT_location[DW_OP_addr _ytab$1]
$C$DW$153	.dwtag  DW_TAG_formal_parameter, DW_AT_name("timer")
	.dwattr $C$DW$153, DW_AT_TI_symbol_name("timer")
	.dwattr $C$DW$153, DW_AT_type(*$C$DW$T$1492)
	.dwattr $C$DW$153, DW_AT_location[DW_OP_reg0]

;*****************************************************************************
;* FUNCTION NAME: gmtime                                                     *
;*                                                                           *
;*   Regs Modified     : A1,A2,A3,A4,V1,V2,V3,V4,V5,V6,V7,V9,SP,LR,SR,FPEXC, *
;*                           FPSCR                                           *
;*   Regs Used         : A1,A2,A3,A4,V1,V2,V3,V4,V5,V6,V7,V9,SP,LR,SR,FPEXC, *
;*                           FPSCR                                           *
;*   Local Frame Size  : 0 Args + 0 Auto + 32 Save = 32 byte                 *
;*****************************************************************************
gmtime:
;* --------------------------------------------------------------------------*
;* A1    assigned to $O$C4
$C$DW$154	.dwtag  DW_TAG_variable, DW_AT_name("$O$C4")
	.dwattr $C$DW$154, DW_AT_TI_symbol_name("$O$C4")
	.dwattr $C$DW$154, DW_AT_type(*$C$DW$T$14)
	.dwattr $C$DW$154, DW_AT_location[DW_OP_reg0 DW_OP_piece 4 DW_OP_reg9 DW_OP_piece 4]
;* V5    assigned to $O$C5
$C$DW$155	.dwtag  DW_TAG_variable, DW_AT_name("$O$C5")
	.dwattr $C$DW$155, DW_AT_TI_symbol_name("$O$C5")
	.dwattr $C$DW$155, DW_AT_type(*$C$DW$T$10)
	.dwattr $C$DW$155, DW_AT_location[DW_OP_reg8]
;* A1    assigned to $O$C6
$C$DW$156	.dwtag  DW_TAG_variable, DW_AT_name("$O$C6")
	.dwattr $C$DW$156, DW_AT_TI_symbol_name("$O$C6")
	.dwattr $C$DW$156, DW_AT_type(*$C$DW$T$14)
	.dwattr $C$DW$156, DW_AT_location[DW_OP_reg0 DW_OP_piece 4 DW_OP_reg9 DW_OP_piece 4]
;* V5    assigned to $O$C7
$C$DW$157	.dwtag  DW_TAG_variable, DW_AT_name("$O$C7")
	.dwattr $C$DW$157, DW_AT_TI_symbol_name("$O$C7")
	.dwattr $C$DW$157, DW_AT_type(*$C$DW$T$10)
	.dwattr $C$DW$157, DW_AT_location[DW_OP_reg8]
;* A1    assigned to $O$C8
$C$DW$158	.dwtag  DW_TAG_variable, DW_AT_name("$O$C8")
	.dwattr $C$DW$158, DW_AT_TI_symbol_name("$O$C8")
	.dwattr $C$DW$158, DW_AT_type(*$C$DW$T$14)
	.dwattr $C$DW$158, DW_AT_location[DW_OP_reg0 DW_OP_piece 4 DW_OP_reg14 DW_OP_piece 4]
;* V9    assigned to $O$C9
$C$DW$159	.dwtag  DW_TAG_variable, DW_AT_name("$O$C9")
	.dwattr $C$DW$159, DW_AT_TI_symbol_name("$O$C9")
	.dwattr $C$DW$159, DW_AT_type(*$C$DW$T$10)
	.dwattr $C$DW$159, DW_AT_location[DW_OP_reg12]
;* A1    assigned to $O$C10
$C$DW$160	.dwtag  DW_TAG_variable, DW_AT_name("$O$C10")
	.dwattr $C$DW$160, DW_AT_TI_symbol_name("$O$C10")
	.dwattr $C$DW$160, DW_AT_type(*$C$DW$T$14)
	.dwattr $C$DW$160, DW_AT_location[DW_OP_reg0 DW_OP_piece 4 DW_OP_reg14 DW_OP_piece 4]
;* V9    assigned to $O$C11
$C$DW$161	.dwtag  DW_TAG_variable, DW_AT_name("$O$C11")
	.dwattr $C$DW$161, DW_AT_TI_symbol_name("$O$C11")
	.dwattr $C$DW$161, DW_AT_type(*$C$DW$T$10)
	.dwattr $C$DW$161, DW_AT_location[DW_OP_reg12]
;* A1    assigned to $O$C12
$C$DW$162	.dwtag  DW_TAG_variable, DW_AT_name("$O$C12")
	.dwattr $C$DW$162, DW_AT_TI_symbol_name("$O$C12")
	.dwattr $C$DW$162, DW_AT_type(*$C$DW$T$819)
	.dwattr $C$DW$162, DW_AT_location[DW_OP_reg0]
;* A1    assigned to $O$C13
$C$DW$163	.dwtag  DW_TAG_variable, DW_AT_name("$O$C13")
	.dwattr $C$DW$163, DW_AT_TI_symbol_name("$O$C13")
	.dwattr $C$DW$163, DW_AT_type(*$C$DW$T$11)
	.dwattr $C$DW$163, DW_AT_location[DW_OP_reg0]
;* A1    assigned to $O$C14
$C$DW$164	.dwtag  DW_TAG_variable, DW_AT_name("$O$C14")
	.dwattr $C$DW$164, DW_AT_TI_symbol_name("$O$C14")
	.dwattr $C$DW$164, DW_AT_type(*$C$DW$T$14)
	.dwattr $C$DW$164, DW_AT_location[DW_OP_reg0 DW_OP_piece 4 DW_OP_reg0 DW_OP_piece 4]
;* A1    assigned to $O$C15
$C$DW$165	.dwtag  DW_TAG_variable, DW_AT_name("$O$C15")
	.dwattr $C$DW$165, DW_AT_TI_symbol_name("$O$C15")
	.dwattr $C$DW$165, DW_AT_type(*$C$DW$T$14)
	.dwattr $C$DW$165, DW_AT_location[DW_OP_reg0 DW_OP_piece 4 DW_OP_reg0 DW_OP_piece 4]
;* A1    assigned to $O$C16
$C$DW$166	.dwtag  DW_TAG_variable, DW_AT_name("$O$C16")
	.dwattr $C$DW$166, DW_AT_TI_symbol_name("$O$C16")
	.dwattr $C$DW$166, DW_AT_type(*$C$DW$T$14)
	.dwattr $C$DW$166, DW_AT_location[DW_OP_reg0 DW_OP_piece 4 DW_OP_reg0 DW_OP_piece 4]
;* A1    assigned to $O$C17
$C$DW$167	.dwtag  DW_TAG_variable, DW_AT_name("$O$C17")
	.dwattr $C$DW$167, DW_AT_TI_symbol_name("$O$C17")
	.dwattr $C$DW$167, DW_AT_type(*$C$DW$T$11)
	.dwattr $C$DW$167, DW_AT_location[DW_OP_reg0]
;* A1    assigned to $O$C18
$C$DW$168	.dwtag  DW_TAG_variable, DW_AT_name("$O$C18")
	.dwattr $C$DW$168, DW_AT_TI_symbol_name("$O$C18")
	.dwattr $C$DW$168, DW_AT_type(*$C$DW$T$11)
	.dwattr $C$DW$168, DW_AT_location[DW_OP_reg0]
;* A1    assigned to $O$C19
$C$DW$169	.dwtag  DW_TAG_variable, DW_AT_name("$O$C19")
	.dwattr $C$DW$169, DW_AT_TI_symbol_name("$O$C19")
	.dwattr $C$DW$169, DW_AT_type(*$C$DW$T$14)
	.dwattr $C$DW$169, DW_AT_location[DW_OP_reg0 DW_OP_piece 4 DW_OP_reg0 DW_OP_piece 4]
;* A1    assigned to $O$C20
$C$DW$170	.dwtag  DW_TAG_variable, DW_AT_name("$O$C20")
	.dwattr $C$DW$170, DW_AT_TI_symbol_name("$O$C20")
	.dwattr $C$DW$170, DW_AT_type(*$C$DW$T$10)
	.dwattr $C$DW$170, DW_AT_location[DW_OP_reg0]
;* A1    assigned to $O$C21
$C$DW$171	.dwtag  DW_TAG_variable, DW_AT_name("$O$C21")
	.dwattr $C$DW$171, DW_AT_TI_symbol_name("$O$C21")
	.dwattr $C$DW$171, DW_AT_type(*$C$DW$T$11)
	.dwattr $C$DW$171, DW_AT_location[DW_OP_reg0]
;* A1    assigned to $O$K32
$C$DW$172	.dwtag  DW_TAG_variable, DW_AT_name("$O$K32")
	.dwattr $C$DW$172, DW_AT_TI_symbol_name("$O$K32")
	.dwattr $C$DW$172, DW_AT_type(*$C$DW$T$1707)
	.dwattr $C$DW$172, DW_AT_location[DW_OP_reg0]
;* V7    assigned to $O$K142
$C$DW$173	.dwtag  DW_TAG_variable, DW_AT_name("$O$K142")
	.dwattr $C$DW$173, DW_AT_TI_symbol_name("$O$K142")
	.dwattr $C$DW$173, DW_AT_type(*$C$DW$T$1162)
	.dwattr $C$DW$173, DW_AT_location[DW_OP_reg10]
;* V9    assigned to $O$U135
$C$DW$174	.dwtag  DW_TAG_variable, DW_AT_name("$O$U135")
	.dwattr $C$DW$174, DW_AT_TI_symbol_name("$O$U135")
	.dwattr $C$DW$174, DW_AT_type(*$C$DW$T$10)
	.dwattr $C$DW$174, DW_AT_location[DW_OP_reg12]
;* V4    assigned to year
$C$DW$175	.dwtag  DW_TAG_variable, DW_AT_name("year")
	.dwattr $C$DW$175, DW_AT_TI_symbol_name("year")
	.dwattr $C$DW$175, DW_AT_type(*$C$DW$T$10)
	.dwattr $C$DW$175, DW_AT_location[DW_OP_reg7]
;* V1    assigned to dayno
$C$DW$176	.dwtag  DW_TAG_variable, DW_AT_name("dayno")
	.dwattr $C$DW$176, DW_AT_TI_symbol_name("dayno")
	.dwattr $C$DW$176, DW_AT_type(*$C$DW$T$13)
	.dwattr $C$DW$176, DW_AT_location[DW_OP_reg4]
;* A1    assigned to dayclock
$C$DW$177	.dwtag  DW_TAG_variable, DW_AT_name("dayclock")
	.dwattr $C$DW$177, DW_AT_TI_symbol_name("dayclock")
	.dwattr $C$DW$177, DW_AT_type(*$C$DW$T$13)
	.dwattr $C$DW$177, DW_AT_location[DW_OP_reg0]
;* A1    assigned to timer
$C$DW$178	.dwtag  DW_TAG_variable, DW_AT_name("timer")
	.dwattr $C$DW$178, DW_AT_TI_symbol_name("timer")
	.dwattr $C$DW$178, DW_AT_type(*$C$DW$T$1493)
	.dwattr $C$DW$178, DW_AT_location[DW_OP_reg0]
;* LR    assigned to $O$S2
$C$DW$179	.dwtag  DW_TAG_variable, DW_AT_name("$O$S2")
	.dwattr $C$DW$179, DW_AT_TI_symbol_name("$O$S2")
	.dwattr $C$DW$179, DW_AT_type(*$C$DW$T$10)
	.dwattr $C$DW$179, DW_AT_location[DW_OP_reg14]
;* LR    assigned to $O$S1
$C$DW$180	.dwtag  DW_TAG_variable, DW_AT_name("$O$S1")
	.dwattr $C$DW$180, DW_AT_TI_symbol_name("$O$S1")
	.dwattr $C$DW$180, DW_AT_type(*$C$DW$T$10)
	.dwattr $C$DW$180, DW_AT_location[DW_OP_reg14]
;* A2    assigned to $O$v1
$C$DW$181	.dwtag  DW_TAG_variable, DW_AT_name("$O$v1")
	.dwattr $C$DW$181, DW_AT_TI_symbol_name("$O$v1")
	.dwattr $C$DW$181, DW_AT_type(*$C$DW$T$10)
	.dwattr $C$DW$181, DW_AT_location[DW_OP_reg1]
;* A2    assigned to $O$v2
$C$DW$182	.dwtag  DW_TAG_variable, DW_AT_name("$O$v2")
	.dwattr $C$DW$182, DW_AT_TI_symbol_name("$O$v2")
	.dwattr $C$DW$182, DW_AT_type(*$C$DW$T$10)
	.dwattr $C$DW$182, DW_AT_location[DW_OP_reg1]
	.dwcfi	cfa_offset, 0
;** 215	-----------------------    C$20 = *timer;
;** 215	-----------------------    C$21 = (unsigned long long)(unsigned)C$20*0xc22e4507uLL>>48;
;** 215	-----------------------    dayclock = (unsigned)C$20-C$21*86400u;
;** 216	-----------------------    dayno = C$21;
;** 218	-----------------------    C$18 = (unsigned)C$20-dayno*86400u;
;** 218	-----------------------    C$19 = (int)C$18;
;** 218	-----------------------    *(C$12 = &st_time) = (int)C$18-(((C$19*(-2004318071LL)>>32)+C$19>>5)-((int)C$18>>31))*60;
;** 219	-----------------------    C$17 = dayclock-((unsigned long long)dayclock*0x91a2b3c5uLL>>43)*3600u;
;** 219	-----------------------    C$16 = (int)C$17;
;** 219	-----------------------    C$12[1] = ((C$16*(-2004318071LL)>>32)+C$16>>5)-((int)C$17>>31);
;** 220	-----------------------    C$15 = (int)dayclock;
;** 220	-----------------------    C$12[2] = ((C$15*(-1851608123LL)>>32)+C$15>>11)-((int)dayclock>>31);
;** 221	-----------------------    C$13 = dayno+4u;
;** 221	-----------------------    C$14 = (int)C$13;
;** 221	-----------------------    C$12[6] = (int)C$13-(((C$14*(-1840700269LL)>>32)+C$14>>2)-((int)C$13>>31))*7;
;** 213	-----------------------    year = 1970;
;** 218	-----------------------    K$32 = (struct tm *)C$12;
        PUSH      {V1, V2, V3, V4, V5, V6, V7, LR} ; [DPU_3_PIPE] 
	.dwcfi	cfa_offset, 32
	.dwcfi	save_reg_to_mem, 14, -4
	.dwcfi	save_reg_to_mem, 10, -8
	.dwcfi	save_reg_to_mem, 9, -12
	.dwcfi	save_reg_to_mem, 8, -16
	.dwcfi	save_reg_to_mem, 7, -20
	.dwcfi	save_reg_to_mem, 6, -24
	.dwcfi	save_reg_to_mem, 5, -28
	.dwcfi	save_reg_to_mem, 4, -32
	.dwpsn	file "C:/wolfssl/ctaocrypt/src/asn.c",line 215,column 5,is_stmt,isa 1
        LDR       V4, [A1, #0]          ; [DPU_3_PIPE] |215| 
	.dwpsn	file "C:/wolfssl/ctaocrypt/src/asn.c",line 218,column 5,is_stmt,isa 1
        MOVW      V6, #34953            ; [DPU_3_PIPE] |218| 
	.dwpsn	file "C:/wolfssl/ctaocrypt/src/asn.c",line 215,column 5,is_stmt,isa 1
        MOVW      V2, #20864            ; [DPU_3_PIPE] |215| 
        MOVW      A1, #17671            ; [DPU_3_PIPE] |215| 
	.dwpsn	file "C:/wolfssl/ctaocrypt/src/asn.c",line 218,column 5,is_stmt,isa 1
        MOVT      V6, #34952            ; [DPU_3_PIPE] |218| 
	.dwpsn	file "C:/wolfssl/ctaocrypt/src/asn.c",line 215,column 5,is_stmt,isa 1
        MOVT      V2, #1                ; [DPU_3_PIPE] |215| 
        MOVT      A1, #49710            ; [DPU_3_PIPE] |215| 
	.dwpsn	file "C:/wolfssl/ctaocrypt/src/asn.c",line 218,column 5,is_stmt,isa 1
        MOV       A3, V6                ; [DPU_3_PIPE] |218| 
        ASR       A4, V6, #31           ; [DPU_3_PIPE] |218| 
	.dwpsn	file "C:/wolfssl/ctaocrypt/src/asn.c",line 215,column 5,is_stmt,isa 1
        UMULL     A2, A1, A1, V4        ; [DPU_3_PIPE] |215| 
        LSRS      V1, A1, #16           ; [DPU_3_PIPE] |215| 
	.dwpsn	file "C:/wolfssl/ctaocrypt/src/asn.c",line 218,column 5,is_stmt,isa 1
        MLS       V3, V2, V1, V4        ; [DPU_3_PIPE] |218| 
        ASRS      A2, V3, #31           ; [DPU_3_PIPE] |218| 
        MOV       A1, V3                ; [DPU_3_PIPE] |218| 
$C$DW$183	.dwtag  DW_TAG_TI_branch
	.dwattr $C$DW$183, DW_AT_low_pc(0x00)
	.dwattr $C$DW$183, DW_AT_name("__aeabi_lmul")
	.dwattr $C$DW$183, DW_AT_TI_call
        BL        __aeabi_lmul          ; [DPU_3_PIPE] |218| 
        ; CALL OCCURS {__aeabi_lmul }    ; [] |218| 
	.dwpsn	file "C:/wolfssl/ctaocrypt/src/asn.c",line 219,column 5,is_stmt,isa 1
        MOVW      V7, #46021            ; [DPU_3_PIPE] |219| 
	.dwpsn	file "C:/wolfssl/ctaocrypt/src/asn.c",line 218,column 5,is_stmt,isa 1
        MOVW      V5, st_time$2+0       ; [DPU_3_PIPE] |218| 
	.dwpsn	file "C:/wolfssl/ctaocrypt/src/asn.c",line 219,column 5,is_stmt,isa 1
        MOVT      V7, #37282            ; [DPU_3_PIPE] |219| 
	.dwpsn	file "C:/wolfssl/ctaocrypt/src/asn.c",line 218,column 5,is_stmt,isa 1
        MOVT      V5, st_time$2+0       ; [DPU_3_PIPE] |218| 
	.dwpsn	file "C:/wolfssl/ctaocrypt/src/asn.c",line 215,column 5,is_stmt,isa 1
        MLS       V2, V2, V1, V4        ; [DPU_3_PIPE] |215| 
	.dwpsn	file "C:/wolfssl/ctaocrypt/src/asn.c",line 218,column 5,is_stmt,isa 1
        MOVS      A2, A2                ; [DPU_3_PIPE] |218| 
        MOV       A1, V3                ; [DPU_3_PIPE] |218| 
	.dwpsn	file "C:/wolfssl/ctaocrypt/src/asn.c",line 219,column 5,is_stmt,isa 1
        MOV       A4, #3600             ; [DPU_3_PIPE] |219| 
	.dwpsn	file "C:/wolfssl/ctaocrypt/src/asn.c",line 218,column 5,is_stmt,isa 1
        ADDS      A1, A1, A2            ; [DPU_3_PIPE] |218| 
        ASRS      A3, A1, #5            ; [DPU_3_PIPE] |218| 
        SUB       A3, A3, V3, ASR #31   ; [DPU_3_PIPE] |218| 
	.dwpsn	file "C:/wolfssl/ctaocrypt/src/asn.c",line 219,column 5,is_stmt,isa 1
        UMULL     A2, A1, V7, V2        ; [DPU_3_PIPE] |219| 
        LSRS      A2, A1, #11           ; [DPU_3_PIPE] |219| 
	.dwpsn	file "C:/wolfssl/ctaocrypt/src/asn.c",line 218,column 5,is_stmt,isa 1
        LSLS      A1, A3, #6            ; [DPU_3_PIPE] |218| 
        SUB       A1, A1, A3, LSL #2    ; [DPU_3_PIPE] |218| 
	.dwpsn	file "C:/wolfssl/ctaocrypt/src/asn.c",line 219,column 5,is_stmt,isa 1
        MLS       V4, A4, A2, V2        ; [DPU_3_PIPE] |219| 
        MOV       A3, V6                ; [DPU_3_PIPE] |219| 
        ASRS      A2, V4, #31           ; [DPU_3_PIPE] |219| 
	.dwpsn	file "C:/wolfssl/ctaocrypt/src/asn.c",line 218,column 5,is_stmt,isa 1
        SUBS      V3, V3, A1            ; [DPU_3_PIPE] |218| 
	.dwpsn	file "C:/wolfssl/ctaocrypt/src/asn.c",line 219,column 5,is_stmt,isa 1
        ASRS      A4, A3, #31           ; [DPU_3_PIPE] |219| 
        MOV       A1, V4                ; [DPU_3_PIPE] |219| 
	.dwpsn	file "C:/wolfssl/ctaocrypt/src/asn.c",line 218,column 5,is_stmt,isa 1
        STR       V3, [V5, #0]          ; [DPU_3_PIPE] |218| 
	.dwpsn	file "C:/wolfssl/ctaocrypt/src/asn.c",line 219,column 5,is_stmt,isa 1
$C$DW$184	.dwtag  DW_TAG_TI_branch
	.dwattr $C$DW$184, DW_AT_low_pc(0x00)
	.dwattr $C$DW$184, DW_AT_name("__aeabi_lmul")
	.dwattr $C$DW$184, DW_AT_TI_call
        BL        __aeabi_lmul          ; [DPU_3_PIPE] |219| 
        ; CALL OCCURS {__aeabi_lmul }    ; [] |219| 
        MOVS      A1, A2                ; [DPU_3_PIPE] |219| 
	.dwpsn	file "C:/wolfssl/ctaocrypt/src/asn.c",line 220,column 5,is_stmt,isa 1
        MOV       A3, V7                ; [DPU_3_PIPE] |220| 
	.dwpsn	file "C:/wolfssl/ctaocrypt/src/asn.c",line 219,column 5,is_stmt,isa 1
        MOV       A2, V4                ; [DPU_3_PIPE] |219| 
	.dwpsn	file "C:/wolfssl/ctaocrypt/src/asn.c",line 220,column 5,is_stmt,isa 1
        ASRS      A4, A3, #31           ; [DPU_3_PIPE] |220| 
	.dwpsn	file "C:/wolfssl/ctaocrypt/src/asn.c",line 219,column 5,is_stmt,isa 1
        ADDS      A2, A2, A1            ; [DPU_3_PIPE] |219| 
        ASRS      A1, A2, #5            ; [DPU_3_PIPE] |219| 
        SUB       A1, A1, V4, ASR #31   ; [DPU_3_PIPE] |219| 
	.dwpsn	file "C:/wolfssl/ctaocrypt/src/asn.c",line 220,column 5,is_stmt,isa 1
        ASRS      A2, V2, #31           ; [DPU_3_PIPE] |220| 
	.dwpsn	file "C:/wolfssl/ctaocrypt/src/asn.c",line 219,column 5,is_stmt,isa 1
        STR       A1, [V5, #4]          ; [DPU_3_PIPE] |219| 
	.dwpsn	file "C:/wolfssl/ctaocrypt/src/asn.c",line 220,column 5,is_stmt,isa 1
        MOV       A1, V2                ; [DPU_3_PIPE] |220| 
$C$DW$185	.dwtag  DW_TAG_TI_branch
	.dwattr $C$DW$185, DW_AT_low_pc(0x00)
	.dwattr $C$DW$185, DW_AT_name("__aeabi_lmul")
	.dwattr $C$DW$185, DW_AT_TI_call
        BL        __aeabi_lmul          ; [DPU_3_PIPE] |220| 
        ; CALL OCCURS {__aeabi_lmul }    ; [] |220| 
	.dwpsn	file "C:/wolfssl/ctaocrypt/src/asn.c",line 221,column 5,is_stmt,isa 1
        ADDS      V4, V1, #4            ; [DPU_3_PIPE] |221| 
        MOVW      A3, #9363             ; [DPU_3_PIPE] |221| 
	.dwpsn	file "C:/wolfssl/ctaocrypt/src/asn.c",line 220,column 5,is_stmt,isa 1
        MOVS      A1, A2                ; [DPU_3_PIPE] |220| 
	.dwpsn	file "C:/wolfssl/ctaocrypt/src/asn.c",line 221,column 5,is_stmt,isa 1
        MOVT      A3, #37449            ; [DPU_3_PIPE] |221| 
	.dwpsn	file "C:/wolfssl/ctaocrypt/src/asn.c",line 220,column 5,is_stmt,isa 1
        MOV       A2, V2                ; [DPU_3_PIPE] |220| 
        ADDS      A2, A2, A1            ; [DPU_3_PIPE] |220| 
	.dwpsn	file "C:/wolfssl/ctaocrypt/src/asn.c",line 221,column 5,is_stmt,isa 1
        ASRS      A4, A3, #31           ; [DPU_3_PIPE] |221| 
	.dwpsn	file "C:/wolfssl/ctaocrypt/src/asn.c",line 220,column 5,is_stmt,isa 1
        ASRS      A1, A2, #11           ; [DPU_3_PIPE] |220| 
        SUB       A1, A1, V2, ASR #31   ; [DPU_3_PIPE] |220| 
	.dwpsn	file "C:/wolfssl/ctaocrypt/src/asn.c",line 221,column 5,is_stmt,isa 1
        ASRS      A2, V4, #31           ; [DPU_3_PIPE] |221| 
	.dwpsn	file "C:/wolfssl/ctaocrypt/src/asn.c",line 220,column 5,is_stmt,isa 1
        STR       A1, [V5, #8]          ; [DPU_3_PIPE] |220| 
	.dwpsn	file "C:/wolfssl/ctaocrypt/src/asn.c",line 221,column 5,is_stmt,isa 1
        MOV       A1, V4                ; [DPU_3_PIPE] |221| 
$C$DW$186	.dwtag  DW_TAG_TI_branch
	.dwattr $C$DW$186, DW_AT_low_pc(0x00)
	.dwattr $C$DW$186, DW_AT_name("__aeabi_lmul")
	.dwattr $C$DW$186, DW_AT_TI_call
        BL        __aeabi_lmul          ; [DPU_3_PIPE] |221| 
        ; CALL OCCURS {__aeabi_lmul }    ; [] |221| 
	.dwpsn	file "C:/wolfssl/ctaocrypt/src/asn.c",line 224,column 9,is_stmt,isa 1
        MOVW      V3, #34079            ; [DPU_3_PIPE] |224| 
        MOVT      V3, #20971            ; [DPU_3_PIPE] |224| 
        MOVS      V2, #100              ; [DPU_3_PIPE] |224| 
	.dwpsn	file "C:/wolfssl/ctaocrypt/src/asn.c",line 221,column 5,is_stmt,isa 1
        MOVS      A1, A2                ; [DPU_3_PIPE] |221| 
        MOV       A2, V4                ; [DPU_3_PIPE] |221| 
	.dwpsn	file "C:/wolfssl/ctaocrypt/src/asn.c",line 223,column 11,is_stmt,isa 1
        MOV       A4, #400              ; [DPU_3_PIPE] |223| 
        MOV       A3, #365              ; [DPU_3_PIPE] |223| 
	.dwpsn	file "C:/wolfssl/ctaocrypt/src/asn.c",line 221,column 5,is_stmt,isa 1
        ADDS      A2, A2, A1            ; [DPU_3_PIPE] |221| 
        ASRS      A1, A2, #2            ; [DPU_3_PIPE] |221| 
        SUB       A1, A1, V4, ASR #31   ; [DPU_3_PIPE] |221| 
        RSB       A1, A1, A1, LSL #3    ; [DPU_3_PIPE] |221| 
        SUBS      A2, V4, A1            ; [DPU_3_PIPE] |221| 
	.dwpsn	file "C:/wolfssl/ctaocrypt/src/asn.c",line 218,column 5,is_stmt,isa 1
        MOV       A1, V5                ; [DPU_3_PIPE] |218| 
	.dwpsn	file "C:/wolfssl/ctaocrypt/src/asn.c",line 221,column 5,is_stmt,isa 1
        STR       A2, [V5, #24]         ; [DPU_3_PIPE] |221| 
	.dwpsn	file "C:/wolfssl/ctaocrypt/src/asn.c",line 213,column 14,is_stmt,isa 1
        MOV       V4, #1970             ; [DPU_3_PIPE] |213| 
;* --------------------------------------------------------------------------*
;*   BEGIN LOOP ||$C$L1||
;*
;*   Loop source line                : 223
;*   Loop closing brace source line  : 226
;*   Known Minimum Trip Count        : 1
;*   Known Maximum Trip Count        : 4294967295
;*   Known Max Trip Count Factor     : 1
;* --------------------------------------------------------------------------*
||$C$L1||:    
;**	-----------------------g2:
;** 223	-----------------------    if ( dayno < 365u ) goto g10;
	.dwpsn	file "C:/wolfssl/ctaocrypt/src/asn.c",line 223,column 11,is_stmt,isa 1
        CMP       A3, V1                ; [DPU_3_PIPE] |223| 
        BHI       ||$C$L7||             ; [DPU_3_PIPE] |223| 
        ; BRANCHCC OCCURS {||$C$L7||}    ; [] |223| 
;* --------------------------------------------------------------------------*
;*   BEGIN LOOP ||$C$L2||
;* --------------------------------------------------------------------------*
||$C$L2||:    
;**	-----------------------g3:
;** 224	-----------------------    if ( year&3 ) goto g6;
	.dwpsn	file "C:/wolfssl/ctaocrypt/src/asn.c",line 224,column 9,is_stmt,isa 1
        TST       V4, #3                ; [DPU_3_PIPE] |224| 
        BNE       ||$C$L4||             ; [DPU_3_PIPE] |224| 
        ; BRANCHCC OCCURS {||$C$L4||}    ; [] |224| 
;* --------------------------------------------------------------------------*
;** 224	-----------------------    C$11 = year>>31;
;** 224	-----------------------    C$10 = (long long)year*1374389535LL;
;** 224	-----------------------    if ( year == ((C$10>>37)-C$11)*100 && year != ((C$10>>39)-C$11)*400 ) goto g6;
        SMULL     A2, LR, V3, V4        ; [DPU_3_PIPE] |224| 
        ASR       V9, V4, #31           ; [DPU_3_PIPE] |224| 
        ASR       A2, LR, #5            ; [DPU_3_PIPE] |224| 
        SUB       A2, A2, V9            ; [DPU_3_PIPE] |224| 
        MULS      A2, V2, A2            ; [DPU_3_PIPE] |224| 
        CMP       A2, V4                ; [DPU_3_PIPE] |224| 
        BNE       ||$C$L3||             ; [DPU_3_PIPE] |224| 
        ; BRANCHCC OCCURS {||$C$L3||}    ; [] |224| 
;* --------------------------------------------------------------------------*
        ASR       A2, LR, #7            ; [DPU_3_PIPE] |224| 
        SUB       A2, A2, V9            ; [DPU_3_PIPE] |224| 
        MULS      A2, A4, A2            ; [DPU_3_PIPE] |224| 
        CMP       A2, V4                ; [DPU_3_PIPE] |224| 
        BNE       ||$C$L4||             ; [DPU_3_PIPE] |224| 
        ; BRANCHCC OCCURS {||$C$L4||}    ; [] |224| 
;* --------------------------------------------------------------------------*
||$C$L3||:    
;** 224	-----------------------    dayno -= 366u;
;** 224	-----------------------    goto g7;
        SUB       V1, V1, #366          ; [DPU_3_PIPE] |224| 
        B         ||$C$L5||             ; [DPU_3_PIPE] |224| 
        ; BRANCH OCCURS {||$C$L5||}      ; [] |224| 
;* --------------------------------------------------------------------------*
||$C$L4||:    
;**	-----------------------g6:
;** 224	-----------------------    dayno -= 365u;
        SUB       V1, V1, #365          ; [DPU_3_PIPE] |224| 
;* --------------------------------------------------------------------------*
||$C$L5||:    
;**	-----------------------g7:
;** 223	-----------------------    if ( (++year)&3 ) goto g2;
	.dwpsn	file "C:/wolfssl/ctaocrypt/src/asn.c",line 223,column 11,is_stmt,isa 1
        ADDS      V4, V4, #1            ; [DPU_3_PIPE] |223| 
        TST       V4, #3                ; [DPU_3_PIPE] |223| 
        BNE       ||$C$L1||             ; [DPU_3_PIPE] |223| 
        ; BRANCHCC OCCURS {||$C$L1||}    ; [] |223| 
;* --------------------------------------------------------------------------*
;** 223	-----------------------    C$9 = year>>31;
;** 223	-----------------------    C$8 = (long long)year*1374389535LL;
;** 223	-----------------------    if ( year == ((C$8>>37)-C$9)*100 && year != ((C$8>>39)-C$9)*400 ) goto g2;
        SMULL     A2, LR, V3, V4        ; [DPU_3_PIPE] |223| 
        ASR       V9, V4, #31           ; [DPU_3_PIPE] |223| 
        ASR       A2, LR, #5            ; [DPU_3_PIPE] |223| 
        SUB       A2, A2, V9            ; [DPU_3_PIPE] |223| 
        MULS      A2, V2, A2            ; [DPU_3_PIPE] |223| 
        CMP       A2, V4                ; [DPU_3_PIPE] |223| 
        BNE       ||$C$L6||             ; [DPU_3_PIPE] |223| 
        ; BRANCHCC OCCURS {||$C$L6||}    ; [] |223| 
;* --------------------------------------------------------------------------*
        ASR       A2, LR, #7            ; [DPU_3_PIPE] |223| 
        SUB       A2, A2, V9            ; [DPU_3_PIPE] |223| 
        MULS      A2, A4, A2            ; [DPU_3_PIPE] |223| 
        CMP       A2, V4                ; [DPU_3_PIPE] |223| 
        BNE       ||$C$L1||             ; [DPU_3_PIPE] |223| 
        ; BRANCHCC OCCURS {||$C$L1||}    ; [] |223| 
;* --------------------------------------------------------------------------*
||$C$L6||:    
;** 223	-----------------------    if ( dayno >= 366u ) goto g3;
        CMP       V1, #366              ; [DPU_3_PIPE] |223| 
        BCS       ||$C$L2||             ; [DPU_3_PIPE] |223| 
        ; BRANCHCC OCCURS {||$C$L2||}    ; [] |223| 
;* --------------------------------------------------------------------------*
||$C$L7||:    
;**	-----------------------g10:
;** 228	-----------------------    *((int *)K$32+20) = year-1900;
;** 229	-----------------------    *((int *)K$32+28) = dayno;
;**  	-----------------------    K$142 = &1$$+188;
;**  	-----------------------    U$135 = 0;
;** 230	-----------------------    v$2 = v$1 = 0;
;** 232	-----------------------    goto g15;
	.dwpsn	file "C:/wolfssl/ctaocrypt/src/asn.c",line 228,column 5,is_stmt,isa 1
        SUB       A2, V4, #1900         ; [DPU_3_PIPE] |228| 
        MOVW      V7, ||$O1$$||+188     ; [DPU_3_PIPE] 
        MOV       V9, #0                ; [DPU_3_PIPE] 
        STR       A2, [A1, #20]         ; [DPU_3_PIPE] |228| 
        MOVT      V7, ||$O1$$||+188     ; [DPU_3_PIPE] 
	.dwpsn	file "C:/wolfssl/ctaocrypt/src/asn.c",line 229,column 5,is_stmt,isa 1
        STR       V1, [A1, #28]         ; [DPU_3_PIPE] |229| 
        MOV       A2, V9                ; [DPU_3_PIPE] 
        B         ||$C$L11||            ; [DPU_3_PIPE] 
        ; BRANCH OCCURS {||$C$L11||}     ; [] 
;* --------------------------------------------------------------------------*
||$C$L8||:    
;**	-----------------------g11:
;** 233	-----------------------    S$2 = 0;
;** 233	-----------------------    if ( year&3 ) goto g14;
	.dwpsn	file "C:/wolfssl/ctaocrypt/src/asn.c",line 233,column 9,is_stmt,isa 1
        TST       V4, #3                ; [DPU_3_PIPE] |233| 
        MOV       LR, #0                ; [DPU_3_PIPE] |233| 
        BNE       ||$C$L10||            ; [DPU_3_PIPE] |233| 
        ; BRANCHCC OCCURS {||$C$L10||}   ; [] |233| 
;* --------------------------------------------------------------------------*
;** 233	-----------------------    C$5 = year>>31;
;** 233	-----------------------    C$4 = (long long)year*1374389535LL;
;** 233	-----------------------    if ( year == ((C$4>>37)-C$5)*100 && year != ((C$4>>39)-C$5)*400 ) goto g14;
        SMULL     A3, V6, V3, V4        ; [DPU_3_PIPE] |233| 
        ASR       V5, V4, #31           ; [DPU_3_PIPE] |233| 
        ASR       A3, V6, #5            ; [DPU_3_PIPE] |233| 
        SUB       A3, A3, V5            ; [DPU_3_PIPE] |233| 
        MULS      A3, V2, A3            ; [DPU_3_PIPE] |233| 
        CMP       A3, V4                ; [DPU_3_PIPE] |233| 
        BNE       ||$C$L9||             ; [DPU_3_PIPE] |233| 
        ; BRANCHCC OCCURS {||$C$L9||}    ; [] |233| 
;* --------------------------------------------------------------------------*
        ASR       A3, V6, #7            ; [DPU_3_PIPE] |233| 
        SUB       A3, A3, V5            ; [DPU_3_PIPE] |233| 
        MULS      A3, A4, A3            ; [DPU_3_PIPE] |233| 
        CMP       A3, V4                ; [DPU_3_PIPE] |233| 
        BNE       ||$C$L10||            ; [DPU_3_PIPE] |233| 
        ; BRANCHCC OCCURS {||$C$L10||}   ; [] |233| 
;* --------------------------------------------------------------------------*
||$C$L9||:    
;** 233	-----------------------    S$2 = 1;
        MOV       LR, #1                ; [DPU_3_PIPE] |233| 
;* --------------------------------------------------------------------------*
||$C$L10||:    
;**	-----------------------g14:
;** 233	-----------------------    dayno -= *(S$2*48+U$135+K$142);
;** 234	-----------------------    U$135 += 4;
;** 234	-----------------------    v$2 = ++v$1;
        LSL       A3, LR, #4            ; [DPU_3_PIPE] |233| 
        ADD       A3, A3, LR, LSL #5    ; [DPU_3_PIPE] |233| 
        ADD       A3, V9, A3            ; [DPU_3_PIPE] |233| 
        LDR       A3, [V7, +A3]         ; [DPU_3_PIPE] |233| 
	.dwpsn	file "C:/wolfssl/ctaocrypt/src/asn.c",line 234,column 9,is_stmt,isa 1
        ADDS      A2, A2, #1            ; [DPU_3_PIPE] |234| 
        ADD       V9, V9, #4            ; [DPU_3_PIPE] |234| 
	.dwpsn	file "C:/wolfssl/ctaocrypt/src/asn.c",line 233,column 9,is_stmt,isa 1
        SUBS      V1, V1, A3            ; [DPU_3_PIPE] |233| 
;* --------------------------------------------------------------------------*
;*   BEGIN LOOP ||$C$L11||
;* --------------------------------------------------------------------------*
||$C$L11||:    
;**	-----------------------g15:
;** 232	-----------------------    S$1 = 0;
;** 232	-----------------------    if ( year&3 ) goto g18;
	.dwpsn	file "C:/wolfssl/ctaocrypt/src/asn.c",line 232,column 11,is_stmt,isa 1
        TST       V4, #3                ; [DPU_3_PIPE] |232| 
        MOV       LR, #0                ; [DPU_3_PIPE] |232| 
        BNE       ||$C$L13||            ; [DPU_3_PIPE] |232| 
        ; BRANCHCC OCCURS {||$C$L13||}   ; [] |232| 
;* --------------------------------------------------------------------------*
;** 232	-----------------------    C$7 = year>>31;
;** 232	-----------------------    C$6 = (long long)year*1374389535LL;
;** 232	-----------------------    if ( year == ((C$6>>37)-C$7)*100 && year != ((C$6>>39)-C$7)*400 ) goto g18;
        SMULL     A3, V6, V3, V4        ; [DPU_3_PIPE] |232| 
        ASR       V5, V4, #31           ; [DPU_3_PIPE] |232| 
        ASR       A3, V6, #5            ; [DPU_3_PIPE] |232| 
        SUB       A3, A3, V5            ; [DPU_3_PIPE] |232| 
        MULS      A3, V2, A3            ; [DPU_3_PIPE] |232| 
        CMP       A3, V4                ; [DPU_3_PIPE] |232| 
        BNE       ||$C$L12||            ; [DPU_3_PIPE] |232| 
        ; BRANCHCC OCCURS {||$C$L12||}   ; [] |232| 
;* --------------------------------------------------------------------------*
        ASR       A3, V6, #7            ; [DPU_3_PIPE] |232| 
        SUB       A3, A3, V5            ; [DPU_3_PIPE] |232| 
        MULS      A3, A4, A3            ; [DPU_3_PIPE] |232| 
        CMP       A3, V4                ; [DPU_3_PIPE] |232| 
        BNE       ||$C$L13||            ; [DPU_3_PIPE] |232| 
        ; BRANCHCC OCCURS {||$C$L13||}   ; [] |232| 
;* --------------------------------------------------------------------------*
||$C$L12||:    
;** 232	-----------------------    S$1 = 1;
        MOV       LR, #1                ; [DPU_3_PIPE] |232| 
;* --------------------------------------------------------------------------*
||$C$L13||:    
;**	-----------------------g18:
;** 232	-----------------------    if ( dayno >= (unsigned)*(S$1*48+U$135+K$142) ) goto g11;
        LSL       A3, LR, #4            ; [DPU_3_PIPE] |232| 
        ADD       A3, A3, LR, LSL #5    ; [DPU_3_PIPE] |232| 
        ADD       A3, V9, A3            ; [DPU_3_PIPE] |232| 
        LDR       A3, [V7, +A3]         ; [DPU_3_PIPE] |232| 
        CMP       A3, V1                ; [DPU_3_PIPE] |232| 
        BLS       ||$C$L8||             ; [DPU_3_PIPE] |232| 
        ; BRANCHCC OCCURS {||$C$L8||}    ; [] |232| 
;* --------------------------------------------------------------------------*
;**  	-----------------------    *((int *)K$32+16) = v$2;
;** 237	-----------------------    *((int *)K$32+12) = ++dayno;
;** 238	-----------------------    *((int *)K$32+32) = 0;
;** 240	-----------------------    return K$32;
        STR       A2, [A1, #16]         ; [DPU_3_PIPE] 
	.dwpsn	file "C:/wolfssl/ctaocrypt/src/asn.c",line 237,column 5,is_stmt,isa 1
        ADDS      V1, V1, #1            ; [DPU_3_PIPE] |237| 
        STR       V1, [A1, #12]         ; [DPU_3_PIPE] |237| 
	.dwpsn	file "C:/wolfssl/ctaocrypt/src/asn.c",line 238,column 5,is_stmt,isa 1
        MOVS      A2, #0                ; [DPU_3_PIPE] |238| 
        STR       A2, [A1, #32]         ; [DPU_3_PIPE] |238| 
$C$DW$187	.dwtag  DW_TAG_TI_branch
	.dwattr $C$DW$187, DW_AT_low_pc(0x00)
	.dwattr $C$DW$187, DW_AT_TI_return
        POP       {V1, V2, V3, V4, V5, V6, V7, PC} ; [DPU_3_PIPE] 
	.dwcfi	cfa_offset, 0
        ; BRANCH OCCURS                  ; [] 
	.dwattr $C$DW$150, DW_AT_TI_end_file("C:/wolfssl/ctaocrypt/src/asn.c")
	.dwattr $C$DW$150, DW_AT_TI_end_line(0xf1)
	.dwattr $C$DW$150, DW_AT_TI_end_column(0x01)
	.dwendentry
	.dwendtag $C$DW$150

	.sect	".text:XTIME"
	.clink
	.thumbfunc XTIME
	.thumb
	.global	XTIME

$C$DW$188	.dwtag  DW_TAG_subprogram, DW_AT_name("XTIME")
	.dwattr $C$DW$188, DW_AT_low_pc(XTIME)
	.dwattr $C$DW$188, DW_AT_high_pc(0x00)
	.dwattr $C$DW$188, DW_AT_TI_symbol_name("XTIME")
	.dwattr $C$DW$188, DW_AT_external
	.dwattr $C$DW$188, DW_AT_type(*$C$DW$T$1257)
	.dwattr $C$DW$188, DW_AT_TI_begin_file("C:/wolfssl/ctaocrypt/src/asn.c")
	.dwattr $C$DW$188, DW_AT_TI_begin_line(0x142)
	.dwattr $C$DW$188, DW_AT_TI_begin_column(0x08)
	.dwattr $C$DW$188, DW_AT_decl_file("C:/wolfssl/ctaocrypt/src/asn.c")
	.dwattr $C$DW$188, DW_AT_decl_line(0x142)
	.dwattr $C$DW$188, DW_AT_decl_column(0x08)
	.dwattr $C$DW$188, DW_AT_TI_max_frame_size(0x08)
	.dwpsn	file "C:/wolfssl/ctaocrypt/src/asn.c",line 323,column 1,is_stmt,address XTIME,isa 1

	.dwfde $C$DW$CIE, XTIME
$C$DW$189	.dwtag  DW_TAG_formal_parameter, DW_AT_name("timer")
	.dwattr $C$DW$189, DW_AT_TI_symbol_name("timer")
	.dwattr $C$DW$189, DW_AT_type(*$C$DW$T$1258)
	.dwattr $C$DW$189, DW_AT_location[DW_OP_reg0]

;*****************************************************************************
;* FUNCTION NAME: XTIME                                                      *
;*                                                                           *
;*   Regs Modified     : A1,A2,A3,A4,V1,V9,SP,LR,SR,D0,D0_hi,D1,D1_hi,D2,    *
;*                           D2_hi,D3,D3_hi,D4,D4_hi,D5,D5_hi,D6,D6_hi,D7,   *
;*                           D7_hi,FPEXC,FPSCR                               *
;*   Regs Used         : A1,A2,A3,A4,V1,V9,SP,LR,SR,D0,D0_hi,D1,D1_hi,D2,    *
;*                           D2_hi,D3,D3_hi,D4,D4_hi,D5,D5_hi,D6,D6_hi,D7,   *
;*                           D7_hi,FPEXC,FPSCR                               *
;*   Local Frame Size  : 0 Args + 0 Auto + 8 Save = 8 byte                   *
;*****************************************************************************
XTIME:
;* --------------------------------------------------------------------------*
;* A1    assigned to sec
$C$DW$190	.dwtag  DW_TAG_variable, DW_AT_name("sec")
	.dwattr $C$DW$190, DW_AT_TI_symbol_name("sec")
	.dwattr $C$DW$190, DW_AT_type(*$C$DW$T$1257)
	.dwattr $C$DW$190, DW_AT_location[DW_OP_reg0]
;* V1    assigned to timer
$C$DW$191	.dwtag  DW_TAG_variable, DW_AT_name("timer")
	.dwattr $C$DW$191, DW_AT_TI_symbol_name("timer")
	.dwattr $C$DW$191, DW_AT_type(*$C$DW$T$1489)
	.dwattr $C$DW$191, DW_AT_location[DW_OP_reg4]
	.dwcfi	cfa_offset, 0
;** 326	-----------------------    sec = MYTIME_gettime();
;** 328	-----------------------    if ( timer == NULL ) goto g3;
;** 329	-----------------------    *timer = sec;
;**	-----------------------g3:
;** 331	-----------------------    return sec;
        PUSH      {V1, LR}              ; [DPU_3_PIPE] 
	.dwcfi	cfa_offset, 8
	.dwcfi	save_reg_to_mem, 14, -4
	.dwcfi	save_reg_to_mem, 4, -8
        MOV       V1, A1                ; [DPU_3_PIPE] |323| 
	.dwpsn	file "C:/wolfssl/ctaocrypt/src/asn.c",line 326,column 5,is_stmt,isa 1
$C$DW$192	.dwtag  DW_TAG_TI_branch
	.dwattr $C$DW$192, DW_AT_low_pc(0x00)
	.dwattr $C$DW$192, DW_AT_name("MYTIME_gettime")
	.dwattr $C$DW$192, DW_AT_TI_call
        BL        MYTIME_gettime        ; [DPU_3_PIPE] |326| 
        ; CALL OCCURS {MYTIME_gettime }  ; [] |326| 
	.dwpsn	file "C:/wolfssl/ctaocrypt/src/asn.c",line 328,column 5,is_stmt,isa 1
        CMP       V1, #0                ; [DPU_3_PIPE] |328| 
        IT        NE                    ; [DPU_3_PIPE] 
	.dwpsn	file "C:/wolfssl/ctaocrypt/src/asn.c",line 329,column 9,is_stmt,isa 1
        STRNE     A1, [V1, #0]          ; [DPU_3_PIPE] |329| 
$C$DW$193	.dwtag  DW_TAG_TI_branch
	.dwattr $C$DW$193, DW_AT_low_pc(0x00)
	.dwattr $C$DW$193, DW_AT_TI_return
        POP       {V1, PC}              ; [DPU_3_PIPE] 
	.dwcfi	cfa_offset, 0
        ; BRANCH OCCURS                  ; [] 
	.dwattr $C$DW$188, DW_AT_TI_end_file("C:/wolfssl/ctaocrypt/src/asn.c")
	.dwattr $C$DW$188, DW_AT_TI_end_line(0x14c)
	.dwattr $C$DW$188, DW_AT_TI_end_column(0x01)
	.dwendentry
	.dwendtag $C$DW$188

	.sect	".text:DateGreaterThan"
	.clink
	.thumbfunc DateGreaterThan
	.thumb

$C$DW$194	.dwtag  DW_TAG_subprogram, DW_AT_name("DateGreaterThan")
	.dwattr $C$DW$194, DW_AT_low_pc(DateGreaterThan)
	.dwattr $C$DW$194, DW_AT_high_pc(0x00)
	.dwattr $C$DW$194, DW_AT_TI_symbol_name("DateGreaterThan")
	.dwattr $C$DW$194, DW_AT_type(*$C$DW$T$10)
	.dwattr $C$DW$194, DW_AT_TI_begin_file("C:/wolfssl/ctaocrypt/src/asn.c")
	.dwattr $C$DW$194, DW_AT_TI_begin_line(0x8d4)
	.dwattr $C$DW$194, DW_AT_TI_begin_column(0x0c)
	.dwattr $C$DW$194, DW_AT_decl_file("C:/wolfssl/ctaocrypt/src/asn.c")
	.dwattr $C$DW$194, DW_AT_decl_line(0x8d4)
	.dwattr $C$DW$194, DW_AT_decl_column(0x0c)
	.dwattr $C$DW$194, DW_AT_TI_max_frame_size(0x18)
	.dwpsn	file "C:/wolfssl/ctaocrypt/src/asn.c",line 2261,column 1,is_stmt,address DateGreaterThan,isa 1

	.dwfde $C$DW$CIE, DateGreaterThan
$C$DW$195	.dwtag  DW_TAG_formal_parameter, DW_AT_name("a")
	.dwattr $C$DW$195, DW_AT_TI_symbol_name("a")
	.dwattr $C$DW$195, DW_AT_type(*$C$DW$T$1234)
	.dwattr $C$DW$195, DW_AT_location[DW_OP_reg0]
$C$DW$196	.dwtag  DW_TAG_formal_parameter, DW_AT_name("b")
	.dwattr $C$DW$196, DW_AT_TI_symbol_name("b")
	.dwattr $C$DW$196, DW_AT_type(*$C$DW$T$1234)
	.dwattr $C$DW$196, DW_AT_location[DW_OP_reg1]

;*****************************************************************************
;* FUNCTION NAME: DateGreaterThan                                            *
;*                                                                           *
;*   Regs Modified     : A1,A2,A3,A4,V1,V2,V3,V4,SP,SR                       *
;*   Regs Used         : A1,A2,A3,A4,V1,V2,V3,V4,SP,LR,SR                    *
;*   Local Frame Size  : 0 Args + 0 Auto + 20 Save = 20 byte                 *
;*****************************************************************************
DateGreaterThan:
;* --------------------------------------------------------------------------*
;* V1    assigned to $O$v4
$C$DW$197	.dwtag  DW_TAG_variable, DW_AT_name("$O$v4")
	.dwattr $C$DW$197, DW_AT_TI_symbol_name("$O$v4")
	.dwattr $C$DW$197, DW_AT_type(*$C$DW$T$10)
	.dwattr $C$DW$197, DW_AT_location[DW_OP_reg4]
;* A4    assigned to $O$v3
$C$DW$198	.dwtag  DW_TAG_variable, DW_AT_name("$O$v3")
	.dwattr $C$DW$198, DW_AT_TI_symbol_name("$O$v3")
	.dwattr $C$DW$198, DW_AT_type(*$C$DW$T$10)
	.dwattr $C$DW$198, DW_AT_location[DW_OP_reg3]
;* V2    assigned to $O$v2
$C$DW$199	.dwtag  DW_TAG_variable, DW_AT_name("$O$v2")
	.dwattr $C$DW$199, DW_AT_TI_symbol_name("$O$v2")
	.dwattr $C$DW$199, DW_AT_type(*$C$DW$T$10)
	.dwattr $C$DW$199, DW_AT_location[DW_OP_reg5]
;* A3    assigned to $O$v1
$C$DW$200	.dwtag  DW_TAG_variable, DW_AT_name("$O$v1")
	.dwattr $C$DW$200, DW_AT_TI_symbol_name("$O$v1")
	.dwattr $C$DW$200, DW_AT_type(*$C$DW$T$10)
	.dwattr $C$DW$200, DW_AT_location[DW_OP_reg2]
;* A2    assigned to b
$C$DW$201	.dwtag  DW_TAG_variable, DW_AT_name("b")
	.dwattr $C$DW$201, DW_AT_TI_symbol_name("b")
	.dwattr $C$DW$201, DW_AT_type(*$C$DW$T$1710)
	.dwattr $C$DW$201, DW_AT_location[DW_OP_reg1]
;* A1    assigned to a
$C$DW$202	.dwtag  DW_TAG_variable, DW_AT_name("a")
	.dwattr $C$DW$202, DW_AT_TI_symbol_name("a")
	.dwattr $C$DW$202, DW_AT_type(*$C$DW$T$1710)
	.dwattr $C$DW$202, DW_AT_location[DW_OP_reg0]
	.dwcfi	cfa_offset, 0
;* 2262	-----------------------    v$1 = *((const int *)b+20);
;* 2262	-----------------------    v$2 = *((const int *)a+20);
;* 2262	-----------------------    if ( v$2 > v$1 ) goto g18;
        PUSH      {A4, V1, V2, V3, V4, LR} ; [DPU_3_PIPE] 
	.dwcfi	cfa_offset, 24
	.dwcfi	save_reg_to_mem, 14, -4
	.dwcfi	save_reg_to_mem, 7, -8
	.dwcfi	save_reg_to_mem, 6, -12
	.dwcfi	save_reg_to_mem, 5, -16
	.dwcfi	save_reg_to_mem, 4, -20
	.dwcfi	save_reg_to_mem, 3, -24
	.dwpsn	file "C:/wolfssl/ctaocrypt/src/asn.c",line 2262,column 5,is_stmt,isa 1
        LDR       A3, [A2, #20]         ; [DPU_3_PIPE] |2262| 
        LDR       V2, [A1, #20]         ; [DPU_3_PIPE] |2262| 
        CMP       A3, V2                ; [DPU_3_PIPE] |2262| 
        BLT       ||$C$L17||            ; [DPU_3_PIPE] |2262| 
        ; BRANCHCC OCCURS {||$C$L17||}   ; [] |2262| 
;* --------------------------------------------------------------------------*
;* 2265	-----------------------    if ( v$2 != v$1 ) goto g19;
	.dwpsn	file "C:/wolfssl/ctaocrypt/src/asn.c",line 2265,column 5,is_stmt,isa 1
        CMP       A3, V2                ; [DPU_3_PIPE] |2265| 
        BNE       ||$C$L18||            ; [DPU_3_PIPE] |2265| 
        ; BRANCHCC OCCURS {||$C$L18||}   ; [] |2265| 
;* --------------------------------------------------------------------------*
;* 2265	-----------------------    v$3 = *((const int *)b+16);
;* 2265	-----------------------    v$4 = *((const int *)a+16);
;* 2265	-----------------------    if ( v$4 > v$3 ) goto g18;
        LDR       A4, [A2, #16]         ; [DPU_3_PIPE] |2265| 
        LDR       V1, [A1, #16]         ; [DPU_3_PIPE] |2265| 
        CMP       A4, V1                ; [DPU_3_PIPE] |2265| 
        BLT       ||$C$L17||            ; [DPU_3_PIPE] |2265| 
        ; BRANCHCC OCCURS {||$C$L17||}   ; [] |2265| 
;* --------------------------------------------------------------------------*
;* 2268	-----------------------    if ( v$4 != v$3 ) goto g6;
	.dwpsn	file "C:/wolfssl/ctaocrypt/src/asn.c",line 2268,column 5,is_stmt,isa 1
        CMP       A4, V1                ; [DPU_3_PIPE] |2268| 
        BNE       ||$C$L14||            ; [DPU_3_PIPE] |2268| 
        ; BRANCHCC OCCURS {||$C$L14||}   ; [] |2268| 
;* --------------------------------------------------------------------------*
;* 2268	-----------------------    if ( *((const int *)a+12) > *((const int *)b+12) ) goto g18;
        LDR       V3, [A2, #12]         ; [DPU_3_PIPE] |2268| 
        LDR       V4, [A1, #12]         ; [DPU_3_PIPE] |2268| 
        CMP       V3, V4                ; [DPU_3_PIPE] |2268| 
        BLT       ||$C$L17||            ; [DPU_3_PIPE] |2268| 
        ; BRANCHCC OCCURS {||$C$L17||}   ; [] |2268| 
;* --------------------------------------------------------------------------*
||$C$L14||:    
;**	-----------------------g6:
;* 2272	-----------------------    if ( v$2 != v$1 || v$4 != v$3 ) goto g19;
	.dwpsn	file "C:/wolfssl/ctaocrypt/src/asn.c",line 2272,column 5,is_stmt,isa 1
        CMP       A3, V2                ; [DPU_3_PIPE] |2272| 
        BNE       ||$C$L18||            ; [DPU_3_PIPE] |2272| 
        ; BRANCHCC OCCURS {||$C$L18||}   ; [] |2272| 
;* --------------------------------------------------------------------------*
        CMP       A4, V1                ; [DPU_3_PIPE] |2272| 
        BNE       ||$C$L18||            ; [DPU_3_PIPE] |2272| 
        ; BRANCHCC OCCURS {||$C$L18||}   ; [] |2272| 
;* --------------------------------------------------------------------------*
;* 2272	-----------------------    if ( *((const int *)a+12) != *((const int *)b+12) ) goto g9;
        LDR       A3, [A2, #12]         ; [DPU_3_PIPE] |2272| 
        LDR       V2, [A1, #12]         ; [DPU_3_PIPE] |2272| 
        CMP       A3, V2                ; [DPU_3_PIPE] |2272| 
        BNE       ||$C$L15||            ; [DPU_3_PIPE] |2272| 
        ; BRANCHCC OCCURS {||$C$L15||}   ; [] |2272| 
;* --------------------------------------------------------------------------*
;* 2272	-----------------------    if ( *((const int *)a+8) > *((const int *)b+8) ) goto g18;
        LDR       A3, [A2, #8]          ; [DPU_3_PIPE] |2272| 
        LDR       V2, [A1, #8]          ; [DPU_3_PIPE] |2272| 
        CMP       A3, V2                ; [DPU_3_PIPE] |2272| 
        BLT       ||$C$L17||            ; [DPU_3_PIPE] |2272| 
        ; BRANCHCC OCCURS {||$C$L17||}   ; [] |2272| 
;* --------------------------------------------------------------------------*
||$C$L15||:    
;**	-----------------------g9:
;* 2276	-----------------------    if ( v$4 != v$3 ) goto g19;
	.dwpsn	file "C:/wolfssl/ctaocrypt/src/asn.c",line 2276,column 5,is_stmt,isa 1
        CMP       A4, V1                ; [DPU_3_PIPE] |2276| 
        BNE       ||$C$L18||            ; [DPU_3_PIPE] |2276| 
        ; BRANCHCC OCCURS {||$C$L18||}   ; [] |2276| 
;* --------------------------------------------------------------------------*
;* 2276	-----------------------    if ( *((const int *)a+12) != *((const int *)b+12) ) goto g13;
        LDR       A3, [A2, #12]         ; [DPU_3_PIPE] |2276| 
        LDR       V2, [A1, #12]         ; [DPU_3_PIPE] |2276| 
        CMP       A3, V2                ; [DPU_3_PIPE] |2276| 
        BNE       ||$C$L16||            ; [DPU_3_PIPE] |2276| 
        ; BRANCHCC OCCURS {||$C$L16||}   ; [] |2276| 
;* --------------------------------------------------------------------------*
;* 2276	-----------------------    if ( *((const int *)a+8) != *((const int *)b+8) ) goto g13;
        LDR       A3, [A2, #8]          ; [DPU_3_PIPE] |2276| 
        LDR       V2, [A1, #8]          ; [DPU_3_PIPE] |2276| 
        CMP       A3, V2                ; [DPU_3_PIPE] |2276| 
        BNE       ||$C$L16||            ; [DPU_3_PIPE] |2276| 
        ; BRANCHCC OCCURS {||$C$L16||}   ; [] |2276| 
;* --------------------------------------------------------------------------*
;* 2276	-----------------------    if ( *((const int *)a+4) > *((const int *)b+4) ) goto g18;
        LDR       A3, [A2, #4]          ; [DPU_3_PIPE] |2276| 
        LDR       V2, [A1, #4]          ; [DPU_3_PIPE] |2276| 
        CMP       A3, V2                ; [DPU_3_PIPE] |2276| 
        BLT       ||$C$L17||            ; [DPU_3_PIPE] |2276| 
        ; BRANCHCC OCCURS {||$C$L17||}   ; [] |2276| 
;* --------------------------------------------------------------------------*
||$C$L16||:    
;**	-----------------------g13:
;* 2281	-----------------------    if ( v$4 != v$3 ) goto g19;
	.dwpsn	file "C:/wolfssl/ctaocrypt/src/asn.c",line 2281,column 5,is_stmt,isa 1
        CMP       A4, V1                ; [DPU_3_PIPE] |2281| 
        BNE       ||$C$L18||            ; [DPU_3_PIPE] |2281| 
        ; BRANCHCC OCCURS {||$C$L18||}   ; [] |2281| 
;* --------------------------------------------------------------------------*
;* 2281	-----------------------    if ( *((const int *)a+12) != *((const int *)b+12) ) goto g19;
        LDR       A3, [A2, #12]         ; [DPU_3_PIPE] |2281| 
        LDR       A4, [A1, #12]         ; [DPU_3_PIPE] |2281| 
        CMP       A3, A4                ; [DPU_3_PIPE] |2281| 
        BNE       ||$C$L18||            ; [DPU_3_PIPE] |2281| 
        ; BRANCHCC OCCURS {||$C$L18||}   ; [] |2281| 
;* --------------------------------------------------------------------------*
;* 2281	-----------------------    if ( *((const int *)a+8) != *((const int *)b+8) ) goto g19;
        LDR       A3, [A2, #8]          ; [DPU_3_PIPE] |2281| 
        LDR       A4, [A1, #8]          ; [DPU_3_PIPE] |2281| 
        CMP       A3, A4                ; [DPU_3_PIPE] |2281| 
        BNE       ||$C$L18||            ; [DPU_3_PIPE] |2281| 
        ; BRANCHCC OCCURS {||$C$L18||}   ; [] |2281| 
;* --------------------------------------------------------------------------*
;* 2281	-----------------------    if ( *((const int *)a+4) != *((const int *)b+4) ) goto g19;
        LDR       A3, [A2, #4]          ; [DPU_3_PIPE] |2281| 
        LDR       A4, [A1, #4]          ; [DPU_3_PIPE] |2281| 
        CMP       A3, A4                ; [DPU_3_PIPE] |2281| 
        BNE       ||$C$L18||            ; [DPU_3_PIPE] |2281| 
        ; BRANCHCC OCCURS {||$C$L18||}   ; [] |2281| 
;* --------------------------------------------------------------------------*
;* 2281	-----------------------    if ( *(const int *)a <= *(const int *)b ) goto g19;
        LDR       A2, [A2, #0]          ; [DPU_3_PIPE] |2281| 
        LDR       A1, [A1, #0]          ; [DPU_3_PIPE] |2281| 
        CMP       A2, A1                ; [DPU_3_PIPE] |2281| 
        BGE       ||$C$L18||            ; [DPU_3_PIPE] |2281| 
        ; BRANCHCC OCCURS {||$C$L18||}   ; [] |2281| 
;* --------------------------------------------------------------------------*
||$C$L17||:    
;**	-----------------------g18:
;* 2284	-----------------------    return 1;
	.dwpsn	file "C:/wolfssl/ctaocrypt/src/asn.c",line 2284,column 9,is_stmt,isa 1
        MOVS      A1, #1                ; [DPU_3_PIPE] |2284| 
$C$DW$203	.dwtag  DW_TAG_TI_branch
	.dwattr $C$DW$203, DW_AT_low_pc(0x00)
	.dwattr $C$DW$203, DW_AT_TI_return
        POP       {A4, V1, V2, V3, V4, PC} ; [DPU_3_PIPE] 
	.dwcfi	cfa_offset, 0
        ; BRANCH OCCURS                  ; [] 
	.dwcfi	restore_reg, 7
	.dwcfi	restore_reg, 6
	.dwcfi	restore_reg, 5
	.dwcfi	restore_reg, 4
	.dwcfi	restore_reg, 3
;* --------------------------------------------------------------------------*
||$C$L18||:    
;**	-----------------------g19:
;* 2286	-----------------------    return 0;
	.dwpsn	file "C:/wolfssl/ctaocrypt/src/asn.c",line 2286,column 5,is_stmt,isa 1
        MOVS      A1, #0                ; [DPU_3_PIPE] |2286| 
;* --------------------------------------------------------------------------*
$C$DW$204	.dwtag  DW_TAG_TI_branch
	.dwattr $C$DW$204, DW_AT_low_pc(0x00)
	.dwattr $C$DW$204, DW_AT_TI_return
        POP       {A4, V1, V2, V3, V4, PC} ; [DPU_3_PIPE] 
	.dwcfi	cfa_offset, 0
        ; BRANCH OCCURS                  ; [] 
	.dwattr $C$DW$194, DW_AT_TI_end_file("C:/wolfssl/ctaocrypt/src/asn.c")
	.dwattr $C$DW$194, DW_AT_TI_end_line(0x8ef)
	.dwattr $C$DW$194, DW_AT_TI_end_column(0x01)
	.dwendentry
	.dwendtag $C$DW$194

	.sect	".text:ValidateDate"
	.clink
	.thumbfunc ValidateDate
	.thumb
	.global	ValidateDate

$C$DW$205	.dwtag  DW_TAG_subprogram, DW_AT_name("ValidateDate")
	.dwattr $C$DW$205, DW_AT_low_pc(ValidateDate)
	.dwattr $C$DW$205, DW_AT_high_pc(0x00)
	.dwattr $C$DW$205, DW_AT_TI_symbol_name("ValidateDate")
	.dwattr $C$DW$205, DW_AT_external
	.dwattr $C$DW$205, DW_AT_type(*$C$DW$T$10)
	.dwattr $C$DW$205, DW_AT_TI_begin_file("C:/wolfssl/ctaocrypt/src/asn.c")
	.dwattr $C$DW$205, DW_AT_TI_begin_line(0x8fa)
	.dwattr $C$DW$205, DW_AT_TI_begin_column(0x05)
	.dwattr $C$DW$205, DW_AT_decl_file("C:/wolfssl/ctaocrypt/src/asn.c")
	.dwattr $C$DW$205, DW_AT_decl_line(0x8fa)
	.dwattr $C$DW$205, DW_AT_decl_column(0x05)
	.dwattr $C$DW$205, DW_AT_TI_max_frame_size(0x58)
	.dwpsn	file "C:/wolfssl/ctaocrypt/src/asn.c",line 2299,column 1,is_stmt,address ValidateDate,isa 1

	.dwfde $C$DW$CIE, ValidateDate
$C$DW$206	.dwtag  DW_TAG_formal_parameter, DW_AT_name("date")
	.dwattr $C$DW$206, DW_AT_TI_symbol_name("date")
	.dwattr $C$DW$206, DW_AT_type(*$C$DW$T$812)
	.dwattr $C$DW$206, DW_AT_location[DW_OP_reg0]
$C$DW$207	.dwtag  DW_TAG_formal_parameter, DW_AT_name("format")
	.dwattr $C$DW$207, DW_AT_TI_symbol_name("format")
	.dwattr $C$DW$207, DW_AT_type(*$C$DW$T$168)
	.dwattr $C$DW$207, DW_AT_location[DW_OP_reg1]
$C$DW$208	.dwtag  DW_TAG_formal_parameter, DW_AT_name("dateType")
	.dwattr $C$DW$208, DW_AT_TI_symbol_name("dateType")
	.dwattr $C$DW$208, DW_AT_type(*$C$DW$T$10)
	.dwattr $C$DW$208, DW_AT_location[DW_OP_reg2]

;*****************************************************************************
;* FUNCTION NAME: ValidateDate                                               *
;*                                                                           *
;*   Regs Modified     : A1,A2,A3,A4,V1,V2,V3,V4,V5,V6,V7,V8,V9,SP,LR,SR,D0, *
;*                           D0_hi,D1,D1_hi,D2,D2_hi,D3,D3_hi,D4,D4_hi,D5,   *
;*                           D5_hi,D6,D6_hi,D7,D7_hi,FPEXC,FPSCR             *
;*   Regs Used         : A1,A2,A3,A4,V1,V2,V3,V4,V5,V6,V7,V8,V9,SP,LR,SR,D0, *
;*                           D0_hi,D1,D1_hi,D2,D2_hi,D3,D3_hi,D4,D4_hi,D5,   *
;*                           D5_hi,D6,D6_hi,D7,D7_hi,FPEXC,FPSCR             *
;*   Local Frame Size  : 0 Args + 52 Auto + 36 Save = 88 byte                *
;*****************************************************************************
ValidateDate:
;* --------------------------------------------------------------------------*
;* A4    assigned to $O$v1
$C$DW$209	.dwtag  DW_TAG_variable, DW_AT_name("$O$v1")
	.dwattr $C$DW$209, DW_AT_TI_symbol_name("$O$v1")
	.dwattr $C$DW$209, DW_AT_type(*$C$DW$T$10)
	.dwattr $C$DW$209, DW_AT_location[DW_OP_reg3]
;* V3    assigned to i
$C$DW$210	.dwtag  DW_TAG_variable, DW_AT_name("i")
	.dwattr $C$DW$210, DW_AT_TI_symbol_name("i")
	.dwattr $C$DW$210, DW_AT_type(*$C$DW$T$10)
	.dwattr $C$DW$210, DW_AT_location[DW_OP_reg6]
;* A2    assigned to localTime
$C$DW$211	.dwtag  DW_TAG_variable, DW_AT_name("localTime")
	.dwattr $C$DW$211, DW_AT_TI_symbol_name("localTime")
	.dwattr $C$DW$211, DW_AT_type(*$C$DW$T$1707)
	.dwattr $C$DW$211, DW_AT_location[DW_OP_reg1]
$C$DW$212	.dwtag  DW_TAG_variable, DW_AT_name("ltime")
	.dwattr $C$DW$212, DW_AT_TI_symbol_name("ltime")
	.dwattr $C$DW$212, DW_AT_type(*$C$DW$T$1257)
	.dwattr $C$DW$212, DW_AT_location[DW_OP_breg13 0]
$C$DW$213	.dwtag  DW_TAG_variable, DW_AT_name("dateType")
	.dwattr $C$DW$213, DW_AT_TI_symbol_name("dateType")
	.dwattr $C$DW$213, DW_AT_type(*$C$DW$T$164)
	.dwattr $C$DW$213, DW_AT_location[DW_OP_breg13 48]
;* A1    assigned to format
$C$DW$214	.dwtag  DW_TAG_variable, DW_AT_name("format")
	.dwattr $C$DW$214, DW_AT_TI_symbol_name("format")
	.dwattr $C$DW$214, DW_AT_type(*$C$DW$T$811)
	.dwattr $C$DW$214, DW_AT_location[DW_OP_reg0]
;* A1    assigned to date
$C$DW$215	.dwtag  DW_TAG_variable, DW_AT_name("date")
	.dwattr $C$DW$215, DW_AT_TI_symbol_name("date")
	.dwattr $C$DW$215, DW_AT_type(*$C$DW$T$1016)
	.dwattr $C$DW$215, DW_AT_location[DW_OP_reg0]
$C$DW$216	.dwtag  DW_TAG_variable, DW_AT_name("certTime")
	.dwattr $C$DW$216, DW_AT_TI_symbol_name("certTime")
	.dwattr $C$DW$216, DW_AT_type(*$C$DW$T$442)
	.dwattr $C$DW$216, DW_AT_location[DW_OP_breg13 4]
	.dwcfi	cfa_offset, 0
;* 2305	-----------------------    ltime = XTIME(NULL);
;* 2306	-----------------------    memset(&certTime, 0, 44u);
;* 2308	-----------------------    if ( format != 23 ) goto g5;
        PUSH      {V1, V2, V3, V4, V5, V6, V7, V8, LR} ; [DPU_3_PIPE] 
	.dwcfi	cfa_offset, 36
	.dwcfi	save_reg_to_mem, 14, -4
	.dwcfi	save_reg_to_mem, 11, -8
	.dwcfi	save_reg_to_mem, 10, -12
	.dwcfi	save_reg_to_mem, 9, -16
	.dwcfi	save_reg_to_mem, 8, -20
	.dwcfi	save_reg_to_mem, 7, -24
	.dwcfi	save_reg_to_mem, 6, -28
	.dwcfi	save_reg_to_mem, 5, -32
	.dwcfi	save_reg_to_mem, 4, -36
        MOV       V1, A1                ; [DPU_3_PIPE] |2299| 
        MOV       V3, A3                ; [DPU_3_PIPE] |2299| 
        MOV       V2, A2                ; [DPU_3_PIPE] |2299| 
	.dwpsn	file "C:/wolfssl/ctaocrypt/src/asn.c",line 2305,column 5,is_stmt,isa 1
        MOVS      A1, #0                ; [DPU_3_PIPE] |2305| 
        SUB       SP, SP, #52           ; [DPU_3_PIPE] 
	.dwcfi	cfa_offset, 88
$C$DW$217	.dwtag  DW_TAG_TI_branch
	.dwattr $C$DW$217, DW_AT_low_pc(0x00)
	.dwattr $C$DW$217, DW_AT_name("XTIME")
	.dwattr $C$DW$217, DW_AT_TI_call
        BL        XTIME                 ; [DPU_3_PIPE] |2305| 
        ; CALL OCCURS {XTIME }           ; [] |2305| 
	.dwpsn	file "C:/wolfssl/ctaocrypt/src/asn.c",line 2306,column 5,is_stmt,isa 1
        MOVS      A2, #0                ; [DPU_3_PIPE] |2306| 
        MOVS      A3, #44               ; [DPU_3_PIPE] |2306| 
	.dwpsn	file "C:/wolfssl/ctaocrypt/src/asn.c",line 2305,column 5,is_stmt,isa 1
        STR       A1, [SP, #0]          ; [DPU_3_PIPE] |2305| 
	.dwpsn	file "C:/wolfssl/ctaocrypt/src/asn.c",line 2306,column 5,is_stmt,isa 1
        ADD       A1, SP, #4            ; [DPU_3_PIPE] |2306| 
$C$DW$218	.dwtag  DW_TAG_TI_branch
	.dwattr $C$DW$218, DW_AT_low_pc(0x00)
	.dwattr $C$DW$218, DW_AT_name("memset")
	.dwattr $C$DW$218, DW_AT_TI_call
        BL        memset                ; [DPU_3_PIPE] |2306| 
        ; CALL OCCURS {memset }          ; [] |2306| 
	.dwpsn	file "C:/wolfssl/ctaocrypt/src/asn.c",line 2299,column 1,is_stmt,isa 1
        MOV       A1, V1                ; [DPU_3_PIPE] |2299| 
	.dwpsn	file "C:/wolfssl/ctaocrypt/src/asn.c",line 2308,column 5,is_stmt,isa 1
        CMP       V2, #23               ; [DPU_3_PIPE] |2308| 
	.dwpsn	file "C:/wolfssl/ctaocrypt/src/asn.c",line 2299,column 1,is_stmt,isa 1
        STR       V3, [SP, #48]         ; [DPU_3_PIPE] |2299| 
	.dwpsn	file "C:/wolfssl/ctaocrypt/src/asn.c",line 2308,column 5,is_stmt,isa 1
        BNE       ||$C$L19||            ; [DPU_3_PIPE] |2308| 
        ; BRANCHCC OCCURS {||$C$L19||}   ; [] |2308| 
;* --------------------------------------------------------------------------*
;* 2303	-----------------------    i = 0;
;* 2309	-----------------------    if ( *date-48u >= 5u ) goto g4;
;* 2312	-----------------------    v$1 = 2000;
;* 2312	-----------------------    goto g6;
	.dwpsn	file "C:/wolfssl/ctaocrypt/src/asn.c",line 2309,column 9,is_stmt,isa 1
        LDRB      A2, [A1, #0]          ; [DPU_3_PIPE] |2309| 
	.dwpsn	file "C:/wolfssl/ctaocrypt/src/asn.c",line 2303,column 14,is_stmt,isa 1
        MOVS      V3, #0                ; [DPU_3_PIPE] |2303| 
	.dwpsn	file "C:/wolfssl/ctaocrypt/src/asn.c",line 2309,column 9,is_stmt,isa 1
        SUBS      A2, A2, #48           ; [DPU_3_PIPE] |2309| 
        CMP       A2, #5                ; [DPU_3_PIPE] |2309| 
        IT        CC                    ; [DPU_3_PIPE] 
	.dwpsn	file "C:/wolfssl/ctaocrypt/src/asn.c",line 2312,column 13,is_stmt,isa 1
        MOVCC     A4, #2000             ; [DPU_3_PIPE] |2312| 
        BCC       ||$C$L20||            ; [DPU_3_PIPE] |2312| 
        ; BRANCHCC OCCURS {||$C$L20||}   ; [] |2312| 
;* --------------------------------------------------------------------------*
;**	-----------------------g4:
;* 2310	-----------------------    v$1 = 1900;
;* 2310	-----------------------    goto g6;
	.dwpsn	file "C:/wolfssl/ctaocrypt/src/asn.c",line 2310,column 13,is_stmt,isa 1
        MOV       A4, #1900             ; [DPU_3_PIPE] |2310| 
        B         ||$C$L20||            ; [DPU_3_PIPE] |2310| 
        ; BRANCH OCCURS {||$C$L20||}     ; [] |2310| 
;* --------------------------------------------------------------------------*
||$C$L19||:    
;**	-----------------------g5:
;* 2316	-----------------------    v$1 = (int)(date[1]*100u-4800u)+(int)(*date*1000u-48000u)+certTime.tm_year;
;* 2316	-----------------------    i = 2;
	.dwpsn	file "C:/wolfssl/ctaocrypt/src/asn.c",line 2316,column 9,is_stmt,isa 1
        LDRB      A3, [A1, #1]          ; [DPU_3_PIPE] |2316| 
        LDRB      A2, [A1, #0]          ; [DPU_3_PIPE] |2316| 
        LDR       A4, [SP, #24]         ; [DPU_3_PIPE] |2316| 
        MOVS      V1, #100              ; [DPU_3_PIPE] |2316| 
        MOV       V2, #1000             ; [DPU_3_PIPE] |2316| 
        MOV       LR, #48000            ; [DPU_3_PIPE] |2316| 
        MOVS      V3, #2                ; [DPU_3_PIPE] |2316| 
        SMULBB    A3, V1, A3            ; [DPU_LIN_PIPE] |2316| 
        SMULBB    A2, V2, A2            ; [DPU_LIN_PIPE] |2316| 
        SUB       A3, A3, #4800         ; [DPU_3_PIPE] |2316| 
        SUB       A2, A2, LR            ; [DPU_3_PIPE] |2316| 
        ADDS      A2, A2, A3            ; [DPU_3_PIPE] |2316| 
        ADDS      A4, A4, A2            ; [DPU_3_PIPE] |2316| 
;* --------------------------------------------------------------------------*
||$C$L20||:    
;**	-----------------------g6:
;** 347	-----------------------    v$1 += date[i]*10u-480u;  // [41]
;** 348	-----------------------    v$1 += date[i+1]-1948u;  // [41]
;* 2319	-----------------------    certTime.tm_year = v$1;
;** 347	-----------------------    i += 2;  // [41]
;** 348	-----------------------    *(&certTime+16) += (int)(date[i+1]-48u)+(int)(date[i]*10u-480u);  // [41]
;* 2320	-----------------------    --certTime.tm_mon;
;** 347	-----------------------    i += 2;  // [41]
;** 348	-----------------------    *(&certTime+12) += (int)(date[i+1]-48u)+(int)(date[i]*10u-480u);  // [41]
;** 347	-----------------------    i += 2;  // [41]
;** 348	-----------------------    *(&certTime+8) += (int)(date[i+1]-48u)+(int)(date[i]*10u-480u);  // [41]
;** 347	-----------------------    i += 2;  // [41]
;** 348	-----------------------    *(&certTime+4) += (int)(date[i+1]-48u)+(int)(date[i]*10u-480u);  // [41]
;** 347	-----------------------    i += 2;  // [41]
;** 348	-----------------------    *&certTime += (int)(date[i+1]-48u)+(int)(date[i]*10u-480u);  // [41]
;* 2326	-----------------------    if ( date[(i += 2)] != 90 ) goto g10;
	.dwpsn	file "C:/wolfssl/ctaocrypt/src/asn.c",line 347,column 5,is_stmt,isa 1
        LDRB      V2, [A1, +V3]         ; [DPU_3_PIPE] |347| 
	.dwpsn	file "C:/wolfssl/ctaocrypt/src/asn.c",line 348,column 5,is_stmt,isa 1
        ADD       V8, SP, #4            ; [DPU_3_PIPE] |348| 
        LDR       V9, [V8, #0]          ; [DPU_3_PIPE] |348| 
	.dwpsn	file "C:/wolfssl/ctaocrypt/src/asn.c",line 347,column 5,is_stmt,isa 1
        ADD       LR, V3, #2            ; [DPU_3_PIPE] |347| 
        ADD       V5, LR, #2            ; [DPU_3_PIPE] |347| 
        ADD       V6, V5, #2            ; [DPU_3_PIPE] |347| 
        ADD       V7, V6, #2            ; [DPU_3_PIPE] |347| 
        ADD       A2, V7, #2            ; [DPU_3_PIPE] |347| 
	.dwpsn	file "C:/wolfssl/ctaocrypt/src/asn.c",line 348,column 5,is_stmt,isa 1
        ADDS      A3, A1, A2            ; [DPU_3_PIPE] |348| 
        LDRB      V1, [A3, #1]          ; [DPU_3_PIPE] |348| 
        LDR       V4, [SP, #20]         ; [DPU_3_PIPE] |348| 
        SUBS      V1, V1, #48           ; [DPU_3_PIPE] |348| 
        ADD       A3, V9, V1            ; [DPU_3_PIPE] |348| 
	.dwpsn	file "C:/wolfssl/ctaocrypt/src/asn.c",line 347,column 5,is_stmt,isa 1
        LSL       V9, V2, #1            ; [DPU_3_PIPE] |347| 
        ADD       V1, V9, V2, LSL #3    ; [DPU_3_PIPE] |347| 
	.dwpsn	file "C:/wolfssl/ctaocrypt/src/asn.c",line 348,column 5,is_stmt,isa 1
        ADDS      V2, A1, V3            ; [DPU_3_PIPE] |348| 
        LDRB      V9, [V2, #1]          ; [DPU_3_PIPE] |348| 
        ADD       V3, A1, LR            ; [DPU_3_PIPE] |348| 
        LDRB      V2, [V3, #1]          ; [DPU_3_PIPE] |348| 
	.dwpsn	file "C:/wolfssl/ctaocrypt/src/asn.c",line 347,column 5,is_stmt,isa 1
        ADDS      V1, V1, A4            ; [DPU_3_PIPE] |347| 
	.dwpsn	file "C:/wolfssl/ctaocrypt/src/asn.c",line 348,column 5,is_stmt,isa 1
        ADD       A4, A1, V5            ; [DPU_3_PIPE] |348| 
        LDRB      A4, [A4, #1]          ; [DPU_3_PIPE] |348| 
        LDR       V3, [SP, #16]         ; [DPU_3_PIPE] |348| 
        LDRB      LR, [A1, +LR]         ; [DPU_3_PIPE] |348| 
	.dwpsn	file "C:/wolfssl/ctaocrypt/src/asn.c",line 347,column 5,is_stmt,isa 1
        SUB       V1, V1, #480          ; [DPU_3_PIPE] |347| 
	.dwpsn	file "C:/wolfssl/ctaocrypt/src/asn.c",line 348,column 5,is_stmt,isa 1
        ADD       V9, V9, V1            ; [DPU_3_PIPE] |348| 
        LDR       V1, [SP, #8]          ; [DPU_3_PIPE] |348| 
        SUBS      V2, V2, #48           ; [DPU_3_PIPE] |348| 
        ADDS      V4, V4, V2            ; [DPU_3_PIPE] |348| 
        LDR       V2, [SP, #12]         ; [DPU_3_PIPE] |348| 
        SUBS      A4, A4, #48           ; [DPU_3_PIPE] |348| 
        ADDS      V3, V3, A4            ; [DPU_3_PIPE] |348| 
        ADD       A4, A1, V6            ; [DPU_3_PIPE] |348| 
        LDRB      A4, [A4, #1]          ; [DPU_3_PIPE] |348| 
        SUBS      A4, A4, #48           ; [DPU_3_PIPE] |348| 
        ADDS      V2, V2, A4            ; [DPU_3_PIPE] |348| 
        ADD       A4, A1, V7            ; [DPU_3_PIPE] |348| 
        LDRB      A4, [A4, #1]          ; [DPU_3_PIPE] |348| 
        SUBS      A4, A4, #48           ; [DPU_3_PIPE] |348| 
        ADDS      V1, V1, A4            ; [DPU_3_PIPE] |348| 
        LSL       A4, LR, #1            ; [DPU_3_PIPE] |348| 
        ADD       A4, A4, LR, LSL #3    ; [DPU_3_PIPE] |348| 
        LDRB      LR, [A1, +V5]         ; [DPU_3_PIPE] |348| 
        LDRB      V5, [A1, +V6]         ; [DPU_3_PIPE] |348| 
        LDRB      V6, [A1, +V7]         ; [DPU_3_PIPE] |348| 
        SUB       A4, A4, #480          ; [DPU_3_PIPE] |348| 
        ADDS      A4, A4, V4            ; [DPU_3_PIPE] |348| 
        LSL       V4, LR, #1            ; [DPU_3_PIPE] |348| 
        ADD       V4, V4, LR, LSL #3    ; [DPU_3_PIPE] |348| 
        SUB       V4, V4, #480          ; [DPU_3_PIPE] |348| 
        ADDS      V4, V4, V3            ; [DPU_3_PIPE] |348| 
        LSL       V3, V5, #1            ; [DPU_3_PIPE] |348| 
        ADD       V3, V3, V5, LSL #3    ; [DPU_3_PIPE] |348| 
        LDRB      V5, [A1, +A2]         ; [DPU_3_PIPE] |348| 
        SUB       V9, V9, #1948         ; [DPU_3_PIPE] |348| 
	.dwpsn	file "C:/wolfssl/ctaocrypt/src/asn.c",line 2319,column 43,is_stmt,isa 1
        STR       V9, [SP, #24]         ; [DPU_3_PIPE] |2319| 
	.dwpsn	file "C:/wolfssl/ctaocrypt/src/asn.c",line 2326,column 9,is_stmt,isa 1
        ADD       LR, A2, #2            ; [DPU_3_PIPE] |2326| 
        LDRB      A1, [A1, +LR]         ; [DPU_3_PIPE] |2326| 
	.dwpsn	file "C:/wolfssl/ctaocrypt/src/asn.c",line 348,column 5,is_stmt,isa 1
        STR       A4, [SP, #20]         ; [DPU_3_PIPE] |348| 
	.dwpsn	file "C:/wolfssl/ctaocrypt/src/asn.c",line 2320,column 43,is_stmt,isa 1
        SUB       V9, A4, #1            ; [DPU_3_PIPE] |2320| 
        STR       V9, [SP, #20]         ; [DPU_3_PIPE] |2320| 
	.dwpsn	file "C:/wolfssl/ctaocrypt/src/asn.c",line 348,column 5,is_stmt,isa 1
        SUB       V3, V3, #480          ; [DPU_3_PIPE] |348| 
        STR       V4, [SP, #16]         ; [DPU_3_PIPE] |348| 
        ADDS      V3, V3, V2            ; [DPU_3_PIPE] |348| 
        LSL       A4, V5, #1            ; [DPU_3_PIPE] |348| 
        LSL       V2, V6, #1            ; [DPU_3_PIPE] |348| 
        ADD       A4, A4, V5, LSL #3    ; [DPU_3_PIPE] |348| 
        STR       V3, [SP, #12]         ; [DPU_3_PIPE] |348| 
        ADD       V2, V2, V6, LSL #3    ; [DPU_3_PIPE] |348| 
        SUB       A4, A4, #480          ; [DPU_3_PIPE] |348| 
	.dwpsn	file "C:/wolfssl/ctaocrypt/src/asn.c",line 2326,column 9,is_stmt,isa 1
        CMP       A1, #90               ; [DPU_3_PIPE] |2326| 
	.dwpsn	file "C:/wolfssl/ctaocrypt/src/asn.c",line 348,column 5,is_stmt,isa 1
        SUB       V2, V2, #480          ; [DPU_3_PIPE] |348| 
        ADD       A4, A4, A3            ; [DPU_3_PIPE] |348| 
        STR       A4, [V8, #0]          ; [DPU_3_PIPE] |348| 
        ADD       V1, V2, V1            ; [DPU_3_PIPE] |348| 
        STR       V1, [SP, #8]          ; [DPU_3_PIPE] |348| 
	.dwpsn	file "C:/wolfssl/ctaocrypt/src/asn.c",line 2326,column 9,is_stmt,isa 1
        BNE       ||$C$L22||            ; [DPU_3_PIPE] |2326| 
        ; BRANCHCC OCCURS {||$C$L22||}   ; [] |2326| 
;* --------------------------------------------------------------------------*
;* 2331	-----------------------    localTime = gmtime(&ltime);
;* 2333	-----------------------    if ( dateType ) goto g9;
	.dwpsn	file "C:/wolfssl/ctaocrypt/src/asn.c",line 2331,column 5,is_stmt,isa 1
        MOV       A1, SP                ; [DPU_3_PIPE] |2331| 
$C$DW$219	.dwtag  DW_TAG_TI_branch
	.dwattr $C$DW$219, DW_AT_low_pc(0x00)
	.dwattr $C$DW$219, DW_AT_name("gmtime")
	.dwattr $C$DW$219, DW_AT_TI_call
        BL        gmtime                ; [DPU_3_PIPE] |2331| 
        ; CALL OCCURS {gmtime }          ; [] |2331| 
        MOV       A2, A1                ; [DPU_3_PIPE] |2331| 
        LDR       A1, [SP, #48]         ; [DPU_3_PIPE] |2331| 
        CBNZ      A1, ||$C$L21||        ; [] 
	.dwpsn	file "C:/wolfssl/ctaocrypt/src/asn.c",line 2333,column 5,is_stmt,isa 1
        ; BRANCHCC OCCURS {||$C$L21||}   ; [] |2333| 
;* --------------------------------------------------------------------------*
;* 2292	-----------------------    if ( DateGreaterThan(&certTime, localTime) ) goto g10;  // [73]
	.dwpsn	file "C:/wolfssl/ctaocrypt/src/asn.c",line 2292,column 5,is_stmt,isa 1
        ADD       A1, SP, #4            ; [DPU_3_PIPE] |2292| 
$C$DW$220	.dwtag  DW_TAG_TI_branch
	.dwattr $C$DW$220, DW_AT_low_pc(0x00)
	.dwattr $C$DW$220, DW_AT_name("DateGreaterThan")
	.dwattr $C$DW$220, DW_AT_TI_call
        BL        DateGreaterThan       ; [DPU_3_PIPE] |2292| 
        ; CALL OCCURS {DateGreaterThan }  ; [] |2292| 
        CBNZ      A1, ||$C$L22||        ; [] 
        ; BRANCHCC OCCURS {||$C$L22||}   ; [] |2292| 
;* --------------------------------------------------------------------------*
;* 2292	-----------------------    goto g11;  // [73]
        B         ||$C$L23||            ; [DPU_3_PIPE] |2292| 
        ; BRANCH OCCURS {||$C$L23||}     ; [] |2292| 
;* --------------------------------------------------------------------------*
||$C$L21||:    
;**	-----------------------g9:
;* 2338	-----------------------    if ( !DateGreaterThan(localTime, &certTime) ) goto g11;
	.dwpsn	file "C:/wolfssl/ctaocrypt/src/asn.c",line 2338,column 9,is_stmt,isa 1
        MOV       A1, A2                ; [DPU_3_PIPE] |2338| 
        ADD       A2, SP, #4            ; [DPU_3_PIPE] |2338| 
$C$DW$221	.dwtag  DW_TAG_TI_branch
	.dwattr $C$DW$221, DW_AT_low_pc(0x00)
	.dwattr $C$DW$221, DW_AT_name("DateGreaterThan")
	.dwattr $C$DW$221, DW_AT_TI_call
        BL        DateGreaterThan       ; [DPU_3_PIPE] |2338| 
        ; CALL OCCURS {DateGreaterThan }  ; [] |2338| 
        CBZ       A1, ||$C$L23||        ; [] 
        ; BRANCHCC OCCURS {||$C$L23||}   ; [] |2338| 
;* --------------------------------------------------------------------------*
||$C$L22||:    
;**	-----------------------g10:
;* 2339	-----------------------    return 0;
	.dwpsn	file "C:/wolfssl/ctaocrypt/src/asn.c",line 2339,column 13,is_stmt,isa 1
        MOVS      A1, #0                ; [DPU_3_PIPE] |2339| 
        B         ||$C$L24||            ; [DPU_3_PIPE] |2339| 
        ; BRANCH OCCURS {||$C$L24||}     ; [] |2339| 
;* --------------------------------------------------------------------------*
||$C$L23||:    
;**	-----------------------g11:
;* 2341	-----------------------    return 1;
	.dwpsn	file "C:/wolfssl/ctaocrypt/src/asn.c",line 2341,column 5,is_stmt,isa 1
        MOVS      A1, #1                ; [DPU_3_PIPE] |2341| 
;* --------------------------------------------------------------------------*
||$C$L24||:    
        ADD       SP, SP, #52           ; [DPU_3_PIPE] 
	.dwcfi	cfa_offset, 36
$C$DW$222	.dwtag  DW_TAG_TI_branch
	.dwattr $C$DW$222, DW_AT_low_pc(0x00)
	.dwattr $C$DW$222, DW_AT_TI_return
        POP       {V1, V2, V3, V4, V5, V6, V7, V8, PC} ; [DPU_3_PIPE] 
	.dwcfi	cfa_offset, 0
        ; BRANCH OCCURS                  ; [] 
	.dwattr $C$DW$205, DW_AT_TI_end_file("C:/wolfssl/ctaocrypt/src/asn.c")
	.dwattr $C$DW$205, DW_AT_TI_end_line(0x926)
	.dwattr $C$DW$205, DW_AT_TI_end_column(0x01)
	.dwendentry
	.dwendtag $C$DW$205

	.sect	".text:GetLength"
	.clink
	.thumbfunc GetLength
	.thumb
	.global	GetLength

$C$DW$223	.dwtag  DW_TAG_subprogram, DW_AT_name("GetLength")
	.dwattr $C$DW$223, DW_AT_low_pc(GetLength)
	.dwattr $C$DW$223, DW_AT_high_pc(0x00)
	.dwattr $C$DW$223, DW_AT_TI_symbol_name("GetLength")
	.dwattr $C$DW$223, DW_AT_external
	.dwattr $C$DW$223, DW_AT_type(*$C$DW$T$10)
	.dwattr $C$DW$223, DW_AT_TI_begin_file("C:/wolfssl/ctaocrypt/src/asn.c")
	.dwattr $C$DW$223, DW_AT_TI_begin_line(0x19d)
	.dwattr $C$DW$223, DW_AT_TI_begin_column(0x12)
	.dwattr $C$DW$223, DW_AT_decl_file("C:/wolfssl/ctaocrypt/src/asn.c")
	.dwattr $C$DW$223, DW_AT_decl_line(0x19d)
	.dwattr $C$DW$223, DW_AT_decl_column(0x12)
	.dwattr $C$DW$223, DW_AT_TI_max_frame_size(0x18)
	.dwpsn	file "C:/wolfssl/ctaocrypt/src/asn.c",line 415,column 1,is_stmt,address GetLength,isa 1

	.dwfde $C$DW$CIE, GetLength
$C$DW$224	.dwtag  DW_TAG_formal_parameter, DW_AT_name("input")
	.dwattr $C$DW$224, DW_AT_TI_symbol_name("input")
	.dwattr $C$DW$224, DW_AT_type(*$C$DW$T$812)
	.dwattr $C$DW$224, DW_AT_location[DW_OP_reg0]
$C$DW$225	.dwtag  DW_TAG_formal_parameter, DW_AT_name("inOutIdx")
	.dwattr $C$DW$225, DW_AT_TI_symbol_name("inOutIdx")
	.dwattr $C$DW$225, DW_AT_type(*$C$DW$T$1205)
	.dwattr $C$DW$225, DW_AT_location[DW_OP_reg1]
$C$DW$226	.dwtag  DW_TAG_formal_parameter, DW_AT_name("len")
	.dwattr $C$DW$226, DW_AT_TI_symbol_name("len")
	.dwattr $C$DW$226, DW_AT_type(*$C$DW$T$819)
	.dwattr $C$DW$226, DW_AT_location[DW_OP_reg2]
$C$DW$227	.dwtag  DW_TAG_formal_parameter, DW_AT_name("maxIdx")
	.dwattr $C$DW$227, DW_AT_TI_symbol_name("maxIdx")
	.dwattr $C$DW$227, DW_AT_type(*$C$DW$T$179)
	.dwattr $C$DW$227, DW_AT_location[DW_OP_reg3]

;*****************************************************************************
;* FUNCTION NAME: GetLength                                                  *
;*                                                                           *
;*   Regs Modified     : A1,A4,V1,V2,V3,V4,SP,SR                             *
;*   Regs Used         : A1,A2,A3,A4,V1,V2,V3,V4,SP,LR,SR                    *
;*   Local Frame Size  : 0 Args + 0 Auto + 20 Save = 20 byte                 *
;*****************************************************************************
GetLength:
;* --------------------------------------------------------------------------*
;* V3    assigned to $O$C1
$C$DW$228	.dwtag  DW_TAG_variable, DW_AT_name("$O$C1")
	.dwattr $C$DW$228, DW_AT_TI_symbol_name("$O$C1")
	.dwattr $C$DW$228, DW_AT_type(*$C$DW$T$11)
	.dwattr $C$DW$228, DW_AT_location[DW_OP_reg6]
;* A1    assigned to $O$C2
$C$DW$229	.dwtag  DW_TAG_variable, DW_AT_name("$O$C2")
	.dwattr $C$DW$229, DW_AT_TI_symbol_name("$O$C2")
	.dwattr $C$DW$229, DW_AT_type(*$C$DW$T$11)
	.dwattr $C$DW$229, DW_AT_location[DW_OP_reg0]
;* V2    assigned to $O$C3
$C$DW$230	.dwtag  DW_TAG_variable, DW_AT_name("$O$C3")
	.dwattr $C$DW$230, DW_AT_TI_symbol_name("$O$C3")
	.dwattr $C$DW$230, DW_AT_type(*$C$DW$T$11)
	.dwattr $C$DW$230, DW_AT_location[DW_OP_reg5]
;* V3    assigned to $O$U29
$C$DW$231	.dwtag  DW_TAG_variable, DW_AT_name("$O$U29")
	.dwattr $C$DW$231, DW_AT_TI_symbol_name("$O$U29")
	.dwattr $C$DW$231, DW_AT_type(*$C$DW$T$985)
	.dwattr $C$DW$231, DW_AT_location[DW_OP_reg6]
;* V4    assigned to input
$C$DW$232	.dwtag  DW_TAG_variable, DW_AT_name("input")
	.dwattr $C$DW$232, DW_AT_TI_symbol_name("input")
	.dwattr $C$DW$232, DW_AT_type(*$C$DW$T$1016)
	.dwattr $C$DW$232, DW_AT_location[DW_OP_reg7]
;* A2    assigned to inOutIdx
$C$DW$233	.dwtag  DW_TAG_variable, DW_AT_name("inOutIdx")
	.dwattr $C$DW$233, DW_AT_TI_symbol_name("inOutIdx")
	.dwattr $C$DW$233, DW_AT_type(*$C$DW$T$1459)
	.dwattr $C$DW$233, DW_AT_location[DW_OP_reg1]
;* A3    assigned to len
$C$DW$234	.dwtag  DW_TAG_variable, DW_AT_name("len")
	.dwattr $C$DW$234, DW_AT_TI_symbol_name("len")
	.dwattr $C$DW$234, DW_AT_type(*$C$DW$T$1159)
	.dwattr $C$DW$234, DW_AT_location[DW_OP_reg2]
;* A4    assigned to maxIdx
$C$DW$235	.dwtag  DW_TAG_variable, DW_AT_name("maxIdx")
	.dwattr $C$DW$235, DW_AT_TI_symbol_name("maxIdx")
	.dwattr $C$DW$235, DW_AT_type(*$C$DW$T$1469)
	.dwattr $C$DW$235, DW_AT_location[DW_OP_reg3]
;* A1    assigned to length
$C$DW$236	.dwtag  DW_TAG_variable, DW_AT_name("length")
	.dwattr $C$DW$236, DW_AT_TI_symbol_name("length")
	.dwattr $C$DW$236, DW_AT_type(*$C$DW$T$10)
	.dwattr $C$DW$236, DW_AT_location[DW_OP_reg0]
;* V2    assigned to i
$C$DW$237	.dwtag  DW_TAG_variable, DW_AT_name("i")
	.dwattr $C$DW$237, DW_AT_TI_symbol_name("i")
	.dwattr $C$DW$237, DW_AT_type(*$C$DW$T$179)
	.dwattr $C$DW$237, DW_AT_location[DW_OP_reg5]
;* V1    assigned to bytes
$C$DW$238	.dwtag  DW_TAG_variable, DW_AT_name("bytes")
	.dwattr $C$DW$238, DW_AT_TI_symbol_name("bytes")
	.dwattr $C$DW$238, DW_AT_type(*$C$DW$T$179)
	.dwattr $C$DW$238, DW_AT_location[DW_OP_reg4]
;* A1    assigned to b
$C$DW$239	.dwtag  DW_TAG_variable, DW_AT_name("b")
	.dwattr $C$DW$239, DW_AT_TI_symbol_name("b")
	.dwattr $C$DW$239, DW_AT_type(*$C$DW$T$168)
	.dwattr $C$DW$239, DW_AT_location[DW_OP_reg0]
;* A1    assigned to b
$C$DW$240	.dwtag  DW_TAG_variable, DW_AT_name("b")
	.dwattr $C$DW$240, DW_AT_TI_symbol_name("b")
	.dwattr $C$DW$240, DW_AT_type(*$C$DW$T$168)
	.dwattr $C$DW$240, DW_AT_location[DW_OP_reg0]
;* A1    assigned to b
$C$DW$241	.dwtag  DW_TAG_variable, DW_AT_name("b")
	.dwattr $C$DW$241, DW_AT_TI_symbol_name("b")
	.dwattr $C$DW$241, DW_AT_type(*$C$DW$T$168)
	.dwattr $C$DW$241, DW_AT_location[DW_OP_reg0]
;* A1    assigned to b
$C$DW$242	.dwtag  DW_TAG_variable, DW_AT_name("b")
	.dwattr $C$DW$242, DW_AT_TI_symbol_name("b")
	.dwattr $C$DW$242, DW_AT_type(*$C$DW$T$168)
	.dwattr $C$DW$242, DW_AT_location[DW_OP_reg0]
;* A1    assigned to b
$C$DW$243	.dwtag  DW_TAG_variable, DW_AT_name("b")
	.dwattr $C$DW$243, DW_AT_TI_symbol_name("b")
	.dwattr $C$DW$243, DW_AT_type(*$C$DW$T$168)
	.dwattr $C$DW$243, DW_AT_location[DW_OP_reg0]
	.dwcfi	cfa_offset, 0
;** 420	-----------------------    C$1 = *inOutIdx;
;** 420	-----------------------    C$3 = C$1+1u;
;** 420	-----------------------    if ( C$3 > maxIdx ) goto g12;
        PUSH      {A4, V1, V2, V3, V4, LR} ; [DPU_3_PIPE] 
	.dwcfi	cfa_offset, 24
	.dwcfi	save_reg_to_mem, 14, -4
	.dwcfi	save_reg_to_mem, 7, -8
	.dwcfi	save_reg_to_mem, 6, -12
	.dwcfi	save_reg_to_mem, 5, -16
	.dwcfi	save_reg_to_mem, 4, -20
	.dwcfi	save_reg_to_mem, 3, -24
	.dwpsn	file "C:/wolfssl/ctaocrypt/src/asn.c",line 420,column 5,is_stmt,isa 1
        LDR       V3, [A2, #0]          ; [DPU_3_PIPE] |420| 
	.dwpsn	file "C:/wolfssl/ctaocrypt/src/asn.c",line 415,column 1,is_stmt,isa 1
        MOV       V4, A1                ; [DPU_3_PIPE] |415| 
	.dwpsn	file "C:/wolfssl/ctaocrypt/src/asn.c",line 420,column 5,is_stmt,isa 1
        ADDS      V2, V3, #1            ; [DPU_3_PIPE] |420| 
        CMP       A4, V2                ; [DPU_3_PIPE] |420| 
        BCC       ||$C$L27||            ; [DPU_3_PIPE] |420| 
        ; BRANCHCC OCCURS {||$C$L27||}   ; [] |420| 
;* --------------------------------------------------------------------------*
;** 425	-----------------------    b = input[C$1];
;** 425	-----------------------    i = C$3;
;** 426	-----------------------    if ( b < 128 ) goto g10;
	.dwpsn	file "C:/wolfssl/ctaocrypt/src/asn.c",line 425,column 5,is_stmt,isa 1
        LDRB      A1, [V4, +V3]         ; [DPU_3_PIPE] |425| 
	.dwpsn	file "C:/wolfssl/ctaocrypt/src/asn.c",line 426,column 5,is_stmt,isa 1
        CMP       A1, #128              ; [DPU_3_PIPE] |426| 
        BLT       ||$C$L26||            ; [DPU_3_PIPE] |426| 
        ; BRANCHCC OCCURS {||$C$L26||}   ; [] |426| 
;* --------------------------------------------------------------------------*
;** 429	-----------------------    C$2 = b&0x7fu;
;** 429	-----------------------    if ( i+C$2 > maxIdx ) goto g12;
	.dwpsn	file "C:/wolfssl/ctaocrypt/src/asn.c",line 429,column 9,is_stmt,isa 1
        AND       A1, A1, #127          ; [DPU_3_PIPE] |429| 
        ADDS      V1, A1, V2            ; [DPU_3_PIPE] |429| 
        CMP       A4, V1                ; [DPU_3_PIPE] |429| 
        BCC       ||$C$L27||            ; [DPU_3_PIPE] |429| 
        ; BRANCHCC OCCURS {||$C$L27||}   ; [] |429| 
;* --------------------------------------------------------------------------*
;** 434	-----------------------    bytes = C$2-1u;
;** 416	-----------------------    length = 0;
;** 434	-----------------------    if ( bytes == 0xffffffffu ) goto g11;
	.dwpsn	file "C:/wolfssl/ctaocrypt/src/asn.c",line 434,column 9,is_stmt,isa 1
        SUBS      V1, A1, #1            ; [DPU_3_PIPE] |434| 
	.dwpsn	file "C:/wolfssl/ctaocrypt/src/asn.c",line 416,column 20,is_stmt,isa 1
        MOVS      A1, #0                ; [DPU_3_PIPE] |416| 
	.dwpsn	file "C:/wolfssl/ctaocrypt/src/asn.c",line 434,column 9,is_stmt,isa 1
        CMP       V1, #-1               ; [DPU_3_PIPE] |434| 
        BEQ       ||$C$L26||            ; [DPU_3_PIPE] |434| 
        ; BRANCHCC OCCURS {||$C$L26||}   ; [] |434| 
;* --------------------------------------------------------------------------*
;**  	-----------------------    U$29 = &input[C$1+1];
;**  	-----------------------    #pragma MUST_ITERATE(1, 1073741824, 1)
;**  	-----------------------    // LOOP BELOW UNROLLED BY FACTOR(4)
;**  	-----------------------    #pragma LOOP_FLAGS(2u)
        ADDS      V3, V3, V4            ; [DPU_3_PIPE] 
        ADDS      V3, V3, #1            ; [DPU_3_PIPE] 
;* --------------------------------------------------------------------------*
;*   BEGIN LOOP ||$C$L25||
;*
;*   Loop source line                : 434
;*   Loop closing brace source line  : 437
;*   Loop Unroll Multiple            : 4x
;*   Known Minimum Trip Count        : 1
;*   Known Maximum Trip Count        : 1073741824
;*   Known Max Trip Count Factor     : 1
;* --------------------------------------------------------------------------*
||$C$L25||:    
;**	-----------------------g6:
;** 435	-----------------------    b = *U$29;
;** 435	-----------------------    ++i;
;** 436	-----------------------    length = length<<8|b;
;** 434	-----------------------    if ( (--bytes) == 0xffffffffu ) goto g11;
	.dwpsn	file "C:/wolfssl/ctaocrypt/src/asn.c",line 435,column 13,is_stmt,isa 1
        LDRB      V4, [V3, #0]          ; [DPU_3_PIPE] |435| 
	.dwpsn	file "C:/wolfssl/ctaocrypt/src/asn.c",line 434,column 9,is_stmt,isa 1
        SUBS      V1, V1, #1            ; [DPU_3_PIPE] |434| 
	.dwpsn	file "C:/wolfssl/ctaocrypt/src/asn.c",line 435,column 13,is_stmt,isa 1
        ADDS      V2, V2, #1            ; [DPU_3_PIPE] |435| 
	.dwpsn	file "C:/wolfssl/ctaocrypt/src/asn.c",line 434,column 9,is_stmt,isa 1
        CMP       V1, #-1               ; [DPU_3_PIPE] |434| 
	.dwpsn	file "C:/wolfssl/ctaocrypt/src/asn.c",line 436,column 13,is_stmt,isa 1
        ORR       A1, V4, A1, LSL #8    ; [DPU_3_PIPE] |436| 
	.dwpsn	file "C:/wolfssl/ctaocrypt/src/asn.c",line 434,column 9,is_stmt,isa 1
        BEQ       ||$C$L26||            ; [DPU_3_PIPE] |434| 
        ; BRANCHCC OCCURS {||$C$L26||}   ; [] |434| 
;* --------------------------------------------------------------------------*
;** 435	-----------------------    b = *(++U$29);
;** 435	-----------------------    ++i;
;** 436	-----------------------    length = length<<8|b;
;** 434	-----------------------    if ( (--bytes) == 0xffffffffu ) goto g11;
	.dwpsn	file "C:/wolfssl/ctaocrypt/src/asn.c",line 435,column 13,is_stmt,isa 1
        LDRB      V4, [V3, #1]!         ; [DPU_3_PIPE] |435| 
	.dwpsn	file "C:/wolfssl/ctaocrypt/src/asn.c",line 434,column 9,is_stmt,isa 1
        SUBS      V1, V1, #1            ; [DPU_3_PIPE] |434| 
	.dwpsn	file "C:/wolfssl/ctaocrypt/src/asn.c",line 435,column 13,is_stmt,isa 1
        ADDS      V2, V2, #1            ; [DPU_3_PIPE] |435| 
	.dwpsn	file "C:/wolfssl/ctaocrypt/src/asn.c",line 434,column 9,is_stmt,isa 1
        CMP       V1, #-1               ; [DPU_3_PIPE] |434| 
	.dwpsn	file "C:/wolfssl/ctaocrypt/src/asn.c",line 436,column 13,is_stmt,isa 1
        ORR       A1, V4, A1, LSL #8    ; [DPU_3_PIPE] |436| 
	.dwpsn	file "C:/wolfssl/ctaocrypt/src/asn.c",line 434,column 9,is_stmt,isa 1
        BEQ       ||$C$L26||            ; [DPU_3_PIPE] |434| 
        ; BRANCHCC OCCURS {||$C$L26||}   ; [] |434| 
;* --------------------------------------------------------------------------*
;** 435	-----------------------    b = *(++U$29);
;** 435	-----------------------    ++i;
;** 436	-----------------------    length = length<<8|b;
;** 434	-----------------------    if ( (--bytes) == 0xffffffffu ) goto g11;
	.dwpsn	file "C:/wolfssl/ctaocrypt/src/asn.c",line 435,column 13,is_stmt,isa 1
        LDRB      V4, [V3, #1]!         ; [DPU_3_PIPE] |435| 
	.dwpsn	file "C:/wolfssl/ctaocrypt/src/asn.c",line 434,column 9,is_stmt,isa 1
        SUBS      V1, V1, #1            ; [DPU_3_PIPE] |434| 
	.dwpsn	file "C:/wolfssl/ctaocrypt/src/asn.c",line 435,column 13,is_stmt,isa 1
        ADDS      V2, V2, #1            ; [DPU_3_PIPE] |435| 
	.dwpsn	file "C:/wolfssl/ctaocrypt/src/asn.c",line 434,column 9,is_stmt,isa 1
        CMP       V1, #-1               ; [DPU_3_PIPE] |434| 
	.dwpsn	file "C:/wolfssl/ctaocrypt/src/asn.c",line 436,column 13,is_stmt,isa 1
        ORR       A1, V4, A1, LSL #8    ; [DPU_3_PIPE] |436| 
	.dwpsn	file "C:/wolfssl/ctaocrypt/src/asn.c",line 434,column 9,is_stmt,isa 1
        BEQ       ||$C$L26||            ; [DPU_3_PIPE] |434| 
        ; BRANCHCC OCCURS {||$C$L26||}   ; [] |434| 
;* --------------------------------------------------------------------------*
;** 435	-----------------------    ++U$29;
;** 435	-----------------------    b = *U$29++;
;** 435	-----------------------    ++i;
;** 436	-----------------------    length = length<<8|b;
;** 434	-----------------------    if ( (--bytes) != 0xffffffffu ) goto g6;
	.dwpsn	file "C:/wolfssl/ctaocrypt/src/asn.c",line 435,column 13,is_stmt,isa 1
        ADDS      V3, V3, #1            ; [DPU_3_PIPE] |435| 
	.dwpsn	file "C:/wolfssl/ctaocrypt/src/asn.c",line 434,column 9,is_stmt,isa 1
        SUBS      V1, V1, #1            ; [DPU_3_PIPE] |434| 
	.dwpsn	file "C:/wolfssl/ctaocrypt/src/asn.c",line 435,column 13,is_stmt,isa 1
        ADDS      V2, V2, #1            ; [DPU_3_PIPE] |435| 
        LDRB      V4, [V3], #1          ; [DPU_3_PIPE] |435| 
	.dwpsn	file "C:/wolfssl/ctaocrypt/src/asn.c",line 434,column 9,is_stmt,isa 1
        CMP       V1, #-1               ; [DPU_3_PIPE] |434| 
	.dwpsn	file "C:/wolfssl/ctaocrypt/src/asn.c",line 436,column 13,is_stmt,isa 1
        ORR       A1, V4, A1, LSL #8    ; [DPU_3_PIPE] |436| 
	.dwpsn	file "C:/wolfssl/ctaocrypt/src/asn.c",line 434,column 9,is_stmt,isa 1
        BNE       ||$C$L25||            ; [DPU_3_PIPE] |434| 
        ; BRANCHCC OCCURS {||$C$L25||}   ; [] |434| 
;* --------------------------------------------------------------------------*
;** 434	-----------------------    goto g11;
;**	-----------------------g10:
;** 440	-----------------------    length = b;
;* --------------------------------------------------------------------------*
||$C$L26||:    
;**	-----------------------g11:
;** 442	-----------------------    if ( (unsigned)length+i <= maxIdx ) goto g13;
	.dwpsn	file "C:/wolfssl/ctaocrypt/src/asn.c",line 442,column 5,is_stmt,isa 1
        ADDS      V1, V2, A1            ; [DPU_3_PIPE] |442| 
        CMP       A4, V1                ; [DPU_3_PIPE] |442| 
        BCS       ||$C$L28||            ; [DPU_3_PIPE] |442| 
        ; BRANCHCC OCCURS {||$C$L28||}   ; [] |442| 
;* --------------------------------------------------------------------------*
||$C$L27||:    
;**	-----------------------g12:
;** 444	-----------------------    return (-132);
	.dwpsn	file "C:/wolfssl/ctaocrypt/src/asn.c",line 444,column 9,is_stmt,isa 1
        MVN       A1, #131              ; [DPU_3_PIPE] |444| 
$C$DW$244	.dwtag  DW_TAG_TI_branch
	.dwattr $C$DW$244, DW_AT_low_pc(0x00)
	.dwattr $C$DW$244, DW_AT_TI_return
        POP       {A4, V1, V2, V3, V4, PC} ; [DPU_3_PIPE] 
	.dwcfi	cfa_offset, 0
        ; BRANCH OCCURS                  ; [] 
	.dwcfi	restore_reg, 7
	.dwcfi	restore_reg, 6
	.dwcfi	restore_reg, 5
	.dwcfi	restore_reg, 4
	.dwcfi	restore_reg, 3
;* --------------------------------------------------------------------------*
||$C$L28||:    
;**	-----------------------g13:
;** 447	-----------------------    *inOutIdx = i;
;** 448	-----------------------    *len = length;
;** 450	-----------------------    return length;
	.dwpsn	file "C:/wolfssl/ctaocrypt/src/asn.c",line 447,column 5,is_stmt,isa 1
        STR       V2, [A2, #0]          ; [DPU_3_PIPE] |447| 
	.dwpsn	file "C:/wolfssl/ctaocrypt/src/asn.c",line 448,column 5,is_stmt,isa 1
        STR       A1, [A3, #0]          ; [DPU_3_PIPE] |448| 
;* --------------------------------------------------------------------------*
$C$DW$245	.dwtag  DW_TAG_TI_branch
	.dwattr $C$DW$245, DW_AT_low_pc(0x00)
	.dwattr $C$DW$245, DW_AT_TI_return
        POP       {A4, V1, V2, V3, V4, PC} ; [DPU_3_PIPE] 
	.dwcfi	cfa_offset, 0
        ; BRANCH OCCURS                  ; [] 
	.dwattr $C$DW$223, DW_AT_TI_end_file("C:/wolfssl/ctaocrypt/src/asn.c")
	.dwattr $C$DW$223, DW_AT_TI_end_line(0x1c3)
	.dwattr $C$DW$223, DW_AT_TI_end_column(0x01)
	.dwendentry
	.dwendtag $C$DW$223

	.sect	".text:GetSequence"
	.clink
	.thumbfunc GetSequence
	.thumb
	.global	GetSequence

$C$DW$246	.dwtag  DW_TAG_subprogram, DW_AT_name("GetSequence")
	.dwattr $C$DW$246, DW_AT_low_pc(GetSequence)
	.dwattr $C$DW$246, DW_AT_high_pc(0x00)
	.dwattr $C$DW$246, DW_AT_TI_symbol_name("GetSequence")
	.dwattr $C$DW$246, DW_AT_external
	.dwattr $C$DW$246, DW_AT_type(*$C$DW$T$10)
	.dwattr $C$DW$246, DW_AT_TI_begin_file("C:/wolfssl/ctaocrypt/src/asn.c")
	.dwattr $C$DW$246, DW_AT_TI_begin_line(0x1c6)
	.dwattr $C$DW$246, DW_AT_TI_begin_column(0x12)
	.dwattr $C$DW$246, DW_AT_decl_file("C:/wolfssl/ctaocrypt/src/asn.c")
	.dwattr $C$DW$246, DW_AT_decl_line(0x1c6)
	.dwattr $C$DW$246, DW_AT_decl_column(0x12)
	.dwattr $C$DW$246, DW_AT_TI_max_frame_size(0x18)
	.dwpsn	file "C:/wolfssl/ctaocrypt/src/asn.c",line 456,column 1,is_stmt,address GetSequence,isa 1

	.dwfde $C$DW$CIE, GetSequence
$C$DW$247	.dwtag  DW_TAG_formal_parameter, DW_AT_name("input")
	.dwattr $C$DW$247, DW_AT_TI_symbol_name("input")
	.dwattr $C$DW$247, DW_AT_type(*$C$DW$T$812)
	.dwattr $C$DW$247, DW_AT_location[DW_OP_reg0]
$C$DW$248	.dwtag  DW_TAG_formal_parameter, DW_AT_name("inOutIdx")
	.dwattr $C$DW$248, DW_AT_TI_symbol_name("inOutIdx")
	.dwattr $C$DW$248, DW_AT_type(*$C$DW$T$1205)
	.dwattr $C$DW$248, DW_AT_location[DW_OP_reg1]
$C$DW$249	.dwtag  DW_TAG_formal_parameter, DW_AT_name("len")
	.dwattr $C$DW$249, DW_AT_TI_symbol_name("len")
	.dwattr $C$DW$249, DW_AT_type(*$C$DW$T$819)
	.dwattr $C$DW$249, DW_AT_location[DW_OP_reg2]
$C$DW$250	.dwtag  DW_TAG_formal_parameter, DW_AT_name("maxIdx")
	.dwattr $C$DW$250, DW_AT_TI_symbol_name("maxIdx")
	.dwattr $C$DW$250, DW_AT_type(*$C$DW$T$179)
	.dwattr $C$DW$250, DW_AT_location[DW_OP_reg3]

;*****************************************************************************
;* FUNCTION NAME: GetSequence                                                *
;*                                                                           *
;*   Regs Modified     : A1,A2,A3,A4,V1,V2,V3,V9,SP,LR,SR,FPEXC,FPSCR        *
;*   Regs Used         : A1,A2,A3,A4,V1,V2,V3,V9,SP,LR,SR,FPEXC,FPSCR        *
;*   Local Frame Size  : 0 Args + 8 Auto + 16 Save = 24 byte                 *
;*****************************************************************************
GetSequence:
;* --------------------------------------------------------------------------*
;* A1    assigned to $O$y6
$C$DW$251	.dwtag  DW_TAG_variable, DW_AT_name("$O$y6")
	.dwattr $C$DW$251, DW_AT_TI_symbol_name("$O$y6")
	.dwattr $C$DW$251, DW_AT_type(*$C$DW$T$179)
	.dwattr $C$DW$251, DW_AT_location[DW_OP_reg0]
$C$DW$252	.dwtag  DW_TAG_variable, DW_AT_name("idx")
	.dwattr $C$DW$252, DW_AT_TI_symbol_name("idx")
	.dwattr $C$DW$252, DW_AT_type(*$C$DW$T$179)
	.dwattr $C$DW$252, DW_AT_location[DW_OP_breg13 0]
$C$DW$253	.dwtag  DW_TAG_variable, DW_AT_name("length")
	.dwattr $C$DW$253, DW_AT_TI_symbol_name("length")
	.dwattr $C$DW$253, DW_AT_type(*$C$DW$T$10)
	.dwattr $C$DW$253, DW_AT_location[DW_OP_breg13 4]
;* A4    assigned to maxIdx
$C$DW$254	.dwtag  DW_TAG_variable, DW_AT_name("maxIdx")
	.dwattr $C$DW$254, DW_AT_TI_symbol_name("maxIdx")
	.dwattr $C$DW$254, DW_AT_type(*$C$DW$T$1469)
	.dwattr $C$DW$254, DW_AT_location[DW_OP_reg3]
;* V2    assigned to len
$C$DW$255	.dwtag  DW_TAG_variable, DW_AT_name("len")
	.dwattr $C$DW$255, DW_AT_TI_symbol_name("len")
	.dwattr $C$DW$255, DW_AT_type(*$C$DW$T$1159)
	.dwattr $C$DW$255, DW_AT_location[DW_OP_reg5]
;* V1    assigned to inOutIdx
$C$DW$256	.dwtag  DW_TAG_variable, DW_AT_name("inOutIdx")
	.dwattr $C$DW$256, DW_AT_TI_symbol_name("inOutIdx")
	.dwattr $C$DW$256, DW_AT_type(*$C$DW$T$1459)
	.dwattr $C$DW$256, DW_AT_location[DW_OP_reg4]
;* A1    assigned to input
$C$DW$257	.dwtag  DW_TAG_variable, DW_AT_name("input")
	.dwattr $C$DW$257, DW_AT_TI_symbol_name("input")
	.dwattr $C$DW$257, DW_AT_type(*$C$DW$T$1016)
	.dwattr $C$DW$257, DW_AT_location[DW_OP_reg0]
	.dwcfi	cfa_offset, 0
;** 457	-----------------------    length = (-1);
;** 458	-----------------------    y$6 = *inOutIdx+1u;
;** 458	-----------------------    idx = y$6;
;** 460	-----------------------    if ( input[idx-1] != 48 ) goto g3;
        PUSH      {V1, V2, V3, LR}      ; [DPU_3_PIPE] 
	.dwcfi	cfa_offset, 16
	.dwcfi	save_reg_to_mem, 14, -4
	.dwcfi	save_reg_to_mem, 6, -8
	.dwcfi	save_reg_to_mem, 5, -12
	.dwcfi	save_reg_to_mem, 4, -16
        MOV       V1, A2                ; [DPU_3_PIPE] |456| 
	.dwpsn	file "C:/wolfssl/ctaocrypt/src/asn.c",line 458,column 19,is_stmt,isa 1
        LDR       A2, [V1, #0]          ; [DPU_3_PIPE] |458| 
        SUB       SP, SP, #8            ; [DPU_3_PIPE] 
	.dwcfi	cfa_offset, 24
        ADDS      A2, A2, #1            ; [DPU_3_PIPE] |458| 
        STR       A2, [SP, #0]          ; [DPU_3_PIPE] |458| 
	.dwpsn	file "C:/wolfssl/ctaocrypt/src/asn.c",line 460,column 5,is_stmt,isa 1
        LDR       A2, [SP, #0]          ; [DPU_3_PIPE] |460| 
        ADDS      A2, A1, A2            ; [DPU_3_PIPE] |460| 
        LDRB      A2, [A2, #-1]         ; [DPU_3_PIPE] |460| 
	.dwpsn	file "C:/wolfssl/ctaocrypt/src/asn.c",line 457,column 19,is_stmt,isa 1
        MOV       V3, #-1               ; [DPU_3_PIPE] |457| 
        STR       V3, [SP, #4]          ; [DPU_3_PIPE] |457| 
	.dwpsn	file "C:/wolfssl/ctaocrypt/src/asn.c",line 456,column 1,is_stmt,isa 1
        MOV       V2, A3                ; [DPU_3_PIPE] |456| 
	.dwpsn	file "C:/wolfssl/ctaocrypt/src/asn.c",line 460,column 5,is_stmt,isa 1
        CMP       A2, #48               ; [DPU_3_PIPE] |460| 
        BNE       ||$C$L29||            ; [DPU_3_PIPE] |460| 
        ; BRANCHCC OCCURS {||$C$L29||}   ; [] |460| 
;* --------------------------------------------------------------------------*
;** 460	-----------------------    if ( GetLength(input, &idx, &length, maxIdx) >= 0 ) goto g4;
        MOV       A2, SP                ; [DPU_3_PIPE] |460| 
        ADD       A3, SP, #4            ; [DPU_3_PIPE] |460| 
$C$DW$258	.dwtag  DW_TAG_TI_branch
	.dwattr $C$DW$258, DW_AT_low_pc(0x00)
	.dwattr $C$DW$258, DW_AT_name("GetLength")
	.dwattr $C$DW$258, DW_AT_TI_call
        BL        GetLength             ; [DPU_3_PIPE] |460| 
        ; CALL OCCURS {GetLength }       ; [] |460| 
        CMP       A1, #0                ; [DPU_3_PIPE] |460| 
        BPL       ||$C$L30||            ; [DPU_3_PIPE] |460| 
        ; BRANCHCC OCCURS {||$C$L30||}   ; [] |460| 
;* --------------------------------------------------------------------------*
||$C$L29||:    
;**	-----------------------g3:
;** 462	-----------------------    return (-140);
	.dwpsn	file "C:/wolfssl/ctaocrypt/src/asn.c",line 462,column 9,is_stmt,isa 1
        MVN       A1, #139              ; [DPU_3_PIPE] |462| 
        B         ||$C$L31||            ; [DPU_3_PIPE] |462| 
        ; BRANCH OCCURS {||$C$L31||}     ; [] |462| 
;* --------------------------------------------------------------------------*
||$C$L30||:    
;**	-----------------------g4:
;** 464	-----------------------    *len = length;
;** 465	-----------------------    *inOutIdx = idx;
;** 467	-----------------------    return length;
	.dwpsn	file "C:/wolfssl/ctaocrypt/src/asn.c",line 464,column 5,is_stmt,isa 1
        LDR       A1, [SP, #4]          ; [DPU_3_PIPE] |464| 
	.dwpsn	file "C:/wolfssl/ctaocrypt/src/asn.c",line 465,column 5,is_stmt,isa 1
        LDR       A2, [SP, #0]          ; [DPU_3_PIPE] |465| 
	.dwpsn	file "C:/wolfssl/ctaocrypt/src/asn.c",line 464,column 5,is_stmt,isa 1
        STR       A1, [V2, #0]          ; [DPU_3_PIPE] |464| 
	.dwpsn	file "C:/wolfssl/ctaocrypt/src/asn.c",line 465,column 5,is_stmt,isa 1
        STR       A2, [V1, #0]          ; [DPU_3_PIPE] |465| 
;* --------------------------------------------------------------------------*
||$C$L31||:    
        ADD       SP, SP, #8            ; [DPU_3_PIPE] 
	.dwcfi	cfa_offset, 16
$C$DW$259	.dwtag  DW_TAG_TI_branch
	.dwattr $C$DW$259, DW_AT_low_pc(0x00)
	.dwattr $C$DW$259, DW_AT_TI_return
        POP       {V1, V2, V3, PC}      ; [DPU_3_PIPE] 
	.dwcfi	cfa_offset, 0
        ; BRANCH OCCURS                  ; [] 
	.dwattr $C$DW$246, DW_AT_TI_end_file("C:/wolfssl/ctaocrypt/src/asn.c")
	.dwattr $C$DW$246, DW_AT_TI_end_line(0x1d4)
	.dwattr $C$DW$246, DW_AT_TI_end_column(0x01)
	.dwendentry
	.dwendtag $C$DW$246

	.sect	".text:GetAlgoId"
	.clink
	.thumbfunc GetAlgoId
	.thumb
	.global	GetAlgoId

$C$DW$260	.dwtag  DW_TAG_subprogram, DW_AT_name("GetAlgoId")
	.dwattr $C$DW$260, DW_AT_low_pc(GetAlgoId)
	.dwattr $C$DW$260, DW_AT_high_pc(0x00)
	.dwattr $C$DW$260, DW_AT_TI_symbol_name("GetAlgoId")
	.dwattr $C$DW$260, DW_AT_external
	.dwattr $C$DW$260, DW_AT_type(*$C$DW$T$10)
	.dwattr $C$DW$260, DW_AT_TI_begin_file("C:/wolfssl/ctaocrypt/src/asn.c")
	.dwattr $C$DW$260, DW_AT_TI_begin_line(0x261)
	.dwattr $C$DW$260, DW_AT_TI_begin_column(0x12)
	.dwattr $C$DW$260, DW_AT_decl_file("C:/wolfssl/ctaocrypt/src/asn.c")
	.dwattr $C$DW$260, DW_AT_decl_line(0x261)
	.dwattr $C$DW$260, DW_AT_decl_column(0x12)
	.dwattr $C$DW$260, DW_AT_TI_max_frame_size(0x20)
	.dwpsn	file "C:/wolfssl/ctaocrypt/src/asn.c",line 611,column 1,is_stmt,address GetAlgoId,isa 1

	.dwfde $C$DW$CIE, GetAlgoId
$C$DW$261	.dwtag  DW_TAG_formal_parameter, DW_AT_name("input")
	.dwattr $C$DW$261, DW_AT_TI_symbol_name("input")
	.dwattr $C$DW$261, DW_AT_type(*$C$DW$T$812)
	.dwattr $C$DW$261, DW_AT_location[DW_OP_reg0]
$C$DW$262	.dwtag  DW_TAG_formal_parameter, DW_AT_name("inOutIdx")
	.dwattr $C$DW$262, DW_AT_TI_symbol_name("inOutIdx")
	.dwattr $C$DW$262, DW_AT_type(*$C$DW$T$1205)
	.dwattr $C$DW$262, DW_AT_location[DW_OP_reg1]
$C$DW$263	.dwtag  DW_TAG_formal_parameter, DW_AT_name("oid")
	.dwattr $C$DW$263, DW_AT_TI_symbol_name("oid")
	.dwattr $C$DW$263, DW_AT_type(*$C$DW$T$1205)
	.dwattr $C$DW$263, DW_AT_location[DW_OP_reg2]
$C$DW$264	.dwtag  DW_TAG_formal_parameter, DW_AT_name("maxIdx")
	.dwattr $C$DW$264, DW_AT_TI_symbol_name("maxIdx")
	.dwattr $C$DW$264, DW_AT_type(*$C$DW$T$179)
	.dwattr $C$DW$264, DW_AT_location[DW_OP_reg3]

;*****************************************************************************
;* FUNCTION NAME: GetAlgoId                                                  *
;*                                                                           *
;*   Regs Modified     : A1,A2,A3,A4,V1,V2,V3,V4,V5,V9,SP,LR,SR,FPEXC,FPSCR  *
;*   Regs Used         : A1,A2,A3,A4,V1,V2,V3,V4,V5,V9,SP,LR,SR,FPEXC,FPSCR  *
;*   Local Frame Size  : 0 Args + 8 Auto + 24 Save = 32 byte                 *
;*****************************************************************************
GetAlgoId:
;* --------------------------------------------------------------------------*
;* V1    assigned to input
$C$DW$265	.dwtag  DW_TAG_variable, DW_AT_name("input")
	.dwattr $C$DW$265, DW_AT_TI_symbol_name("input")
	.dwattr $C$DW$265, DW_AT_type(*$C$DW$T$1016)
	.dwattr $C$DW$265, DW_AT_location[DW_OP_reg4]
;* V2    assigned to inOutIdx
$C$DW$266	.dwtag  DW_TAG_variable, DW_AT_name("inOutIdx")
	.dwattr $C$DW$266, DW_AT_TI_symbol_name("inOutIdx")
	.dwattr $C$DW$266, DW_AT_type(*$C$DW$T$1459)
	.dwattr $C$DW$266, DW_AT_location[DW_OP_reg5]
;* V4    assigned to oid
$C$DW$267	.dwtag  DW_TAG_variable, DW_AT_name("oid")
	.dwattr $C$DW$267, DW_AT_TI_symbol_name("oid")
	.dwattr $C$DW$267, DW_AT_type(*$C$DW$T$1459)
	.dwattr $C$DW$267, DW_AT_location[DW_OP_reg7]
;* V5    assigned to maxIdx
$C$DW$268	.dwtag  DW_TAG_variable, DW_AT_name("maxIdx")
	.dwattr $C$DW$268, DW_AT_TI_symbol_name("maxIdx")
	.dwattr $C$DW$268, DW_AT_type(*$C$DW$T$1469)
	.dwattr $C$DW$268, DW_AT_location[DW_OP_reg8]
$C$DW$269	.dwtag  DW_TAG_variable, DW_AT_name("length")
	.dwattr $C$DW$269, DW_AT_TI_symbol_name("length")
	.dwattr $C$DW$269, DW_AT_type(*$C$DW$T$10)
	.dwattr $C$DW$269, DW_AT_location[DW_OP_breg13 0]
$C$DW$270	.dwtag  DW_TAG_variable, DW_AT_name("i")
	.dwattr $C$DW$270, DW_AT_TI_symbol_name("i")
	.dwattr $C$DW$270, DW_AT_type(*$C$DW$T$179)
	.dwattr $C$DW$270, DW_AT_location[DW_OP_breg13 4]
;* A3    assigned to $O$V0
$C$DW$271	.dwtag  DW_TAG_variable, DW_AT_name("$O$V0")
	.dwattr $C$DW$271, DW_AT_TI_symbol_name("$O$V0")
	.dwattr $C$DW$271, DW_AT_type(*$C$DW$T$179)
	.dwattr $C$DW$271, DW_AT_location[DW_OP_reg2]
;* A1    assigned to $O$y16
$C$DW$272	.dwtag  DW_TAG_variable, DW_AT_name("$O$y16")
	.dwattr $C$DW$272, DW_AT_TI_symbol_name("$O$y16")
	.dwattr $C$DW$272, DW_AT_type(*$C$DW$T$10)
	.dwattr $C$DW$272, DW_AT_location[DW_OP_reg0]
;* A3    assigned to $O$y23
$C$DW$273	.dwtag  DW_TAG_variable, DW_AT_name("$O$y23")
	.dwattr $C$DW$273, DW_AT_TI_symbol_name("$O$y23")
	.dwattr $C$DW$273, DW_AT_type(*$C$DW$T$179)
	.dwattr $C$DW$273, DW_AT_location[DW_OP_reg2]
;* A1    assigned to b
$C$DW$274	.dwtag  DW_TAG_variable, DW_AT_name("b")
	.dwattr $C$DW$274, DW_AT_TI_symbol_name("b")
	.dwattr $C$DW$274, DW_AT_type(*$C$DW$T$168)
	.dwattr $C$DW$274, DW_AT_location[DW_OP_reg0]
;* A1    assigned to b
$C$DW$275	.dwtag  DW_TAG_variable, DW_AT_name("b")
	.dwattr $C$DW$275, DW_AT_TI_symbol_name("b")
	.dwattr $C$DW$275, DW_AT_type(*$C$DW$T$168)
	.dwattr $C$DW$275, DW_AT_location[DW_OP_reg0]
	.dwcfi	cfa_offset, 0
;** 613	-----------------------    i = *inOutIdx;
;** 615	-----------------------    *oid = 0u;
;** 619	-----------------------    if ( GetSequence(input, &i, &length, maxIdx) < 0 ) goto g5;
        PUSH      {V1, V2, V3, V4, V5, LR} ; [DPU_3_PIPE] 
	.dwcfi	cfa_offset, 24
	.dwcfi	save_reg_to_mem, 14, -4
	.dwcfi	save_reg_to_mem, 8, -8
	.dwcfi	save_reg_to_mem, 7, -12
	.dwcfi	save_reg_to_mem, 6, -16
	.dwcfi	save_reg_to_mem, 5, -20
	.dwcfi	save_reg_to_mem, 4, -24
        MOV       V2, A2                ; [DPU_3_PIPE] |611| 
	.dwpsn	file "C:/wolfssl/ctaocrypt/src/asn.c",line 613,column 14,is_stmt,isa 1
        LDR       A2, [V2, #0]          ; [DPU_3_PIPE] |613| 
	.dwpsn	file "C:/wolfssl/ctaocrypt/src/asn.c",line 611,column 1,is_stmt,isa 1
        MOV       V4, A3                ; [DPU_3_PIPE] |611| 
	.dwpsn	file "C:/wolfssl/ctaocrypt/src/asn.c",line 615,column 5,is_stmt,isa 1
        MOVS      V3, #0                ; [DPU_3_PIPE] |615| 
        SUB       SP, SP, #8            ; [DPU_3_PIPE] 
	.dwcfi	cfa_offset, 32
	.dwpsn	file "C:/wolfssl/ctaocrypt/src/asn.c",line 611,column 1,is_stmt,isa 1
        MOV       V1, A1                ; [DPU_3_PIPE] |611| 
        MOV       V5, A4                ; [DPU_3_PIPE] |611| 
	.dwpsn	file "C:/wolfssl/ctaocrypt/src/asn.c",line 613,column 14,is_stmt,isa 1
        STR       A2, [SP, #4]          ; [DPU_3_PIPE] |613| 
	.dwpsn	file "C:/wolfssl/ctaocrypt/src/asn.c",line 619,column 5,is_stmt,isa 1
        MOV       A3, SP                ; [DPU_3_PIPE] |619| 
	.dwpsn	file "C:/wolfssl/ctaocrypt/src/asn.c",line 615,column 5,is_stmt,isa 1
        STR       V3, [V4, #0]          ; [DPU_3_PIPE] |615| 
	.dwpsn	file "C:/wolfssl/ctaocrypt/src/asn.c",line 619,column 5,is_stmt,isa 1
        ADD       A2, SP, #4            ; [DPU_3_PIPE] |619| 
$C$DW$276	.dwtag  DW_TAG_TI_branch
	.dwattr $C$DW$276, DW_AT_low_pc(0x00)
	.dwattr $C$DW$276, DW_AT_name("GetSequence")
	.dwattr $C$DW$276, DW_AT_TI_call
        BL        GetSequence           ; [DPU_3_PIPE] |619| 
        ; CALL OCCURS {GetSequence }     ; [] |619| 
        CMP       A1, #0                ; [DPU_3_PIPE] |619| 
        BMI       ||$C$L32||            ; [DPU_3_PIPE] |619| 
        ; BRANCHCC OCCURS {||$C$L32||}   ; [] |619| 
;* --------------------------------------------------------------------------*
;** 622	-----------------------    b = input[i];
;** 622	-----------------------    i = i+1u;
;** 623	-----------------------    if ( b == 6 ) goto g4;
;** 624	-----------------------    return (-144);
	.dwpsn	file "C:/wolfssl/ctaocrypt/src/asn.c",line 622,column 5,is_stmt,isa 1
        LDR       A2, [SP, #4]          ; [DPU_3_PIPE] |622| 
        LDR       A1, [SP, #4]          ; [DPU_3_PIPE] |622| 
        LDRB      A2, [V1, +A2]         ; [DPU_3_PIPE] |622| 
        ADDS      A1, A1, #1            ; [DPU_3_PIPE] |622| 
	.dwpsn	file "C:/wolfssl/ctaocrypt/src/asn.c",line 623,column 5,is_stmt,isa 1
        CMP       A2, #6                ; [DPU_3_PIPE] |623| 
	.dwpsn	file "C:/wolfssl/ctaocrypt/src/asn.c",line 622,column 5,is_stmt,isa 1
        STR       A1, [SP, #4]          ; [DPU_3_PIPE] |622| 
        IT        NE                    ; [DPU_3_PIPE] 
	.dwpsn	file "C:/wolfssl/ctaocrypt/src/asn.c",line 624,column 9,is_stmt,isa 1
        MVNNE     A1, #143              ; [DPU_3_PIPE] |624| 
        BNE       ||$C$L38||            ; [DPU_3_PIPE] |624| 
        ; BRANCHCC OCCURS {||$C$L38||}   ; [] |624| 
;* --------------------------------------------------------------------------*
;**	-----------------------g4:
;** 626	-----------------------    if ( GetLength(input, &i, &length, maxIdx) >= 0 ) goto g6;
	.dwpsn	file "C:/wolfssl/ctaocrypt/src/asn.c",line 626,column 5,is_stmt,isa 1
        MOV       A1, V1                ; [DPU_3_PIPE] |626| 
        ADD       A2, SP, #4            ; [DPU_3_PIPE] |626| 
        MOV       A3, SP                ; [DPU_3_PIPE] |626| 
        MOV       A4, V5                ; [DPU_3_PIPE] |626| 
$C$DW$277	.dwtag  DW_TAG_TI_branch
	.dwattr $C$DW$277, DW_AT_low_pc(0x00)
	.dwattr $C$DW$277, DW_AT_name("GetLength")
	.dwattr $C$DW$277, DW_AT_TI_call
        BL        GetLength             ; [DPU_3_PIPE] |626| 
        ; CALL OCCURS {GetLength }       ; [] |626| 
        CMP       A1, #0                ; [DPU_3_PIPE] |626| 
        BPL       ||$C$L33||            ; [DPU_3_PIPE] |626| 
        ; BRANCHCC OCCURS {||$C$L33||}   ; [] |626| 
;* --------------------------------------------------------------------------*
||$C$L32||:    
;**	-----------------------g5:
;** 627	-----------------------    return (-140);
	.dwpsn	file "C:/wolfssl/ctaocrypt/src/asn.c",line 627,column 9,is_stmt,isa 1
        MVN       A1, #139              ; [DPU_3_PIPE] |627| 
        B         ||$C$L38||            ; [DPU_3_PIPE] |627| 
        ; BRANCH OCCURS {||$C$L38||}     ; [] |627| 
;* --------------------------------------------------------------------------*
||$C$L33||:    
;**	-----------------------g6:
;** 629	-----------------------    if ( !length ) goto g9;
	.dwpsn	file "C:/wolfssl/ctaocrypt/src/asn.c",line 629,column 5,is_stmt,isa 1
        LDR       A1, [SP, #0]          ; [DPU_3_PIPE] |629| 
        CBZ       A1, ||$C$L35||        ; [] 
        ; BRANCHCC OCCURS {||$C$L35||}   ; [] |629| 
;* --------------------------------------------------------------------------*
;**  	-----------------------    V$0 = *oid;
;**  	-----------------------    #pragma LOOP_FLAGS(4096u)
        LDR       A3, [V4, #0]          ; [DPU_3_PIPE] 
;* --------------------------------------------------------------------------*
;*   BEGIN LOOP ||$C$L34||
;*
;*   Loop source line                : 629
;*   Loop closing brace source line  : 633
;*   Known Minimum Trip Count        : 1
;*   Known Maximum Trip Count        : 4294967295
;*   Known Max Trip Count Factor     : 1
;* --------------------------------------------------------------------------*
||$C$L34||:    
;**	-----------------------g8:
;** 629	-----------------------    y$16 = length-1;
;** 629	-----------------------    length = y$16;
;** 631	-----------------------    V$0 += input[i];
;** 631	-----------------------    *oid = V$0;
;** 632	-----------------------    i = i+1u;
;** 629	-----------------------    if ( y$16 ) goto g8;
	.dwpsn	file "C:/wolfssl/ctaocrypt/src/asn.c",line 631,column 9,is_stmt,isa 1
        LDR       A4, [SP, #4]          ; [DPU_3_PIPE] |631| 
	.dwpsn	file "C:/wolfssl/ctaocrypt/src/asn.c",line 632,column 9,is_stmt,isa 1
        LDR       A2, [SP, #4]          ; [DPU_3_PIPE] |632| 
	.dwpsn	file "C:/wolfssl/ctaocrypt/src/asn.c",line 631,column 9,is_stmt,isa 1
        LDRB      A4, [V1, +A4]         ; [DPU_3_PIPE] |631| 
	.dwpsn	file "C:/wolfssl/ctaocrypt/src/asn.c",line 629,column 5,is_stmt,isa 1
        SUBS      A1, A1, #1            ; [DPU_3_PIPE] |629| 
        STR       A1, [SP, #0]          ; [DPU_3_PIPE] |629| 
	.dwpsn	file "C:/wolfssl/ctaocrypt/src/asn.c",line 632,column 9,is_stmt,isa 1
        ADD       A2, A2, #1            ; [DPU_3_PIPE] |632| 
        STR       A2, [SP, #4]          ; [DPU_3_PIPE] |632| 
	.dwpsn	file "C:/wolfssl/ctaocrypt/src/asn.c",line 631,column 9,is_stmt,isa 1
        ADD       A3, A4, A3            ; [DPU_3_PIPE] |631| 
        STR       A3, [V4, #0]          ; [DPU_3_PIPE] |631| 
	.dwpsn	file "C:/wolfssl/ctaocrypt/src/asn.c",line 629,column 5,is_stmt,isa 1
        BNE       ||$C$L34||            ; [DPU_3_PIPE] |629| 
        ; BRANCHCC OCCURS {||$C$L34||}   ; [] |629| 
;* --------------------------------------------------------------------------*
||$C$L35||:    
;**	-----------------------g9:
;** 637	-----------------------    y$23 = i+1u;
;** 639	-----------------------    if ( input[i] != 5 ) goto g12;
	.dwpsn	file "C:/wolfssl/ctaocrypt/src/asn.c",line 639,column 5,is_stmt,isa 1
        LDR       A1, [SP, #4]          ; [DPU_3_PIPE] |639| 
	.dwpsn	file "C:/wolfssl/ctaocrypt/src/asn.c",line 637,column 5,is_stmt,isa 1
        LDR       A2, [SP, #4]          ; [DPU_3_PIPE] |637| 
	.dwpsn	file "C:/wolfssl/ctaocrypt/src/asn.c",line 639,column 5,is_stmt,isa 1
        LDRB      A4, [V1, +A1]         ; [DPU_3_PIPE] |639| 
	.dwpsn	file "C:/wolfssl/ctaocrypt/src/asn.c",line 637,column 5,is_stmt,isa 1
        ADDS      A3, A2, #1            ; [DPU_3_PIPE] |637| 
	.dwpsn	file "C:/wolfssl/ctaocrypt/src/asn.c",line 639,column 5,is_stmt,isa 1
        CMP       A4, #5                ; [DPU_3_PIPE] |639| 
        BNE       ||$C$L36||            ; [DPU_3_PIPE] |639| 
        ; BRANCHCC OCCURS {||$C$L36||}   ; [] |639| 
;* --------------------------------------------------------------------------*
;** 640	-----------------------    b = input[i+1];
;** 640	-----------------------    i = i+2u;
;** 641	-----------------------    if ( !b ) goto g13;
	.dwpsn	file "C:/wolfssl/ctaocrypt/src/asn.c",line 640,column 9,is_stmt,isa 1
        ADDS      V1, V1, A1            ; [DPU_3_PIPE] |640| 
        LDRB      A1, [V1, #1]          ; [DPU_3_PIPE] |640| 
        ADDS      A2, A2, #2            ; [DPU_3_PIPE] |640| 
        STR       A2, [SP, #4]          ; [DPU_3_PIPE] |640| 
        CBZ       A1, ||$C$L37||        ; [] 
	.dwpsn	file "C:/wolfssl/ctaocrypt/src/asn.c",line 641,column 9,is_stmt,isa 1
        ; BRANCHCC OCCURS {||$C$L37||}   ; [] |641| 
;* --------------------------------------------------------------------------*
;** 642	-----------------------    return (-146);
	.dwpsn	file "C:/wolfssl/ctaocrypt/src/asn.c",line 642,column 13,is_stmt,isa 1
        MVN       A1, #145              ; [DPU_3_PIPE] |642| 
        B         ||$C$L38||            ; [DPU_3_PIPE] |642| 
        ; BRANCH OCCURS {||$C$L38||}     ; [] |642| 
;* --------------------------------------------------------------------------*
||$C$L36||:    
;**	-----------------------g12:
;** 646	-----------------------    i = y$23-1u;
	.dwpsn	file "C:/wolfssl/ctaocrypt/src/asn.c",line 646,column 9,is_stmt,isa 1
        SUBS      A3, A3, #1            ; [DPU_3_PIPE] |646| 
        STR       A3, [SP, #4]          ; [DPU_3_PIPE] |646| 
;* --------------------------------------------------------------------------*
||$C$L37||:    
;**	-----------------------g13:
;** 648	-----------------------    *inOutIdx = i;
;** 650	-----------------------    return 0;
	.dwpsn	file "C:/wolfssl/ctaocrypt/src/asn.c",line 648,column 5,is_stmt,isa 1
        LDR       A2, [SP, #4]          ; [DPU_3_PIPE] |648| 
        MOV       A1, V3                ; [DPU_3_PIPE] 
        STR       A2, [V2, #0]          ; [DPU_3_PIPE] |648| 
;* --------------------------------------------------------------------------*
||$C$L38||:    
        ADD       SP, SP, #8            ; [DPU_3_PIPE] 
	.dwcfi	cfa_offset, 24
$C$DW$278	.dwtag  DW_TAG_TI_branch
	.dwattr $C$DW$278, DW_AT_low_pc(0x00)
	.dwattr $C$DW$278, DW_AT_TI_return
        POP       {V1, V2, V3, V4, V5, PC} ; [DPU_3_PIPE] 
	.dwcfi	cfa_offset, 0
        ; BRANCH OCCURS                  ; [] 
	.dwattr $C$DW$260, DW_AT_TI_end_file("C:/wolfssl/ctaocrypt/src/asn.c")
	.dwattr $C$DW$260, DW_AT_TI_end_line(0x28b)
	.dwattr $C$DW$260, DW_AT_TI_end_column(0x01)
	.dwendentry
	.dwendtag $C$DW$260

;

; The following local variables in DecryptKey() will be grouped together
; to share stack space among distinct scoping blocks.  References
; in the source interlisting will look like "O$1.s3_1.l3_2" or "&$O$O1+0".
;
;    --offset--    --reference--		 --variable--
;
;         0	  O$1.s3_1.l3_2                  struct Arc4 dec  [C:/wolfssl/ctaocrypt/src/asn.c:992]
;         0	  O$1.s3_3.l3_4                  struct Des3 dec  [C:/wolfssl/ctaocrypt/src/asn.c:967]
;         0	  O$1.s3_5.l3_6                  struct Des dec  [C:/wolfssl/ctaocrypt/src/asn.c:947]
;         0	  O$1.s3_7.l3_8                  unsigned char unicodePasswd[256]  [C:/wolfssl/ctaocrypt/src/asn.c:906]
;
	.sect	".text:DecryptKey"
	.clink
	.thumbfunc DecryptKey
	.thumb

$C$DW$279	.dwtag  DW_TAG_subprogram, DW_AT_name("DecryptKey")
	.dwattr $C$DW$279, DW_AT_low_pc(DecryptKey)
	.dwattr $C$DW$279, DW_AT_high_pc(0x00)
	.dwattr $C$DW$279, DW_AT_TI_symbol_name("DecryptKey")
	.dwattr $C$DW$279, DW_AT_type(*$C$DW$T$10)
	.dwattr $C$DW$279, DW_AT_TI_begin_file("C:/wolfssl/ctaocrypt/src/asn.c")
	.dwattr $C$DW$279, DW_AT_TI_begin_line(0x351)
	.dwattr $C$DW$279, DW_AT_TI_begin_column(0x0c)
	.dwattr $C$DW$279, DW_AT_decl_file("C:/wolfssl/ctaocrypt/src/asn.c")
	.dwattr $C$DW$279, DW_AT_decl_line(0x351)
	.dwattr $C$DW$279, DW_AT_decl_column(0x0c)
	.dwattr $C$DW$279, DW_AT_TI_max_frame_size(0x220)
	.dwpsn	file "C:/wolfssl/ctaocrypt/src/asn.c",line 852,column 1,is_stmt,address DecryptKey,isa 1

	.dwfde $C$DW$CIE, DecryptKey
$C$DW$280	.dwtag  DW_TAG_formal_parameter, DW_AT_name("password")
	.dwattr $C$DW$280, DW_AT_TI_symbol_name("password")
	.dwattr $C$DW$280, DW_AT_type(*$C$DW$T$129)
	.dwattr $C$DW$280, DW_AT_location[DW_OP_reg0]
$C$DW$281	.dwtag  DW_TAG_formal_parameter, DW_AT_name("passwordSz")
	.dwattr $C$DW$281, DW_AT_TI_symbol_name("passwordSz")
	.dwattr $C$DW$281, DW_AT_type(*$C$DW$T$10)
	.dwattr $C$DW$281, DW_AT_location[DW_OP_reg1]
$C$DW$282	.dwtag  DW_TAG_formal_parameter, DW_AT_name("salt")
	.dwattr $C$DW$282, DW_AT_TI_symbol_name("salt")
	.dwattr $C$DW$282, DW_AT_type(*$C$DW$T$178)
	.dwattr $C$DW$282, DW_AT_location[DW_OP_reg2]
$C$DW$283	.dwtag  DW_TAG_formal_parameter, DW_AT_name("saltSz")
	.dwattr $C$DW$283, DW_AT_TI_symbol_name("saltSz")
	.dwattr $C$DW$283, DW_AT_type(*$C$DW$T$10)
	.dwattr $C$DW$283, DW_AT_location[DW_OP_reg3]
$C$DW$284	.dwtag  DW_TAG_formal_parameter, DW_AT_name("iterations")
	.dwattr $C$DW$284, DW_AT_TI_symbol_name("iterations")
	.dwattr $C$DW$284, DW_AT_type(*$C$DW$T$10)
	.dwattr $C$DW$284, DW_AT_location[DW_OP_breg13 544]
$C$DW$285	.dwtag  DW_TAG_formal_parameter, DW_AT_name("id")
	.dwattr $C$DW$285, DW_AT_TI_symbol_name("id")
	.dwattr $C$DW$285, DW_AT_type(*$C$DW$T$10)
	.dwattr $C$DW$285, DW_AT_location[DW_OP_breg13 548]
$C$DW$286	.dwtag  DW_TAG_formal_parameter, DW_AT_name("input")
	.dwattr $C$DW$286, DW_AT_TI_symbol_name("input")
	.dwattr $C$DW$286, DW_AT_type(*$C$DW$T$178)
	.dwattr $C$DW$286, DW_AT_location[DW_OP_breg13 552]
$C$DW$287	.dwtag  DW_TAG_formal_parameter, DW_AT_name("length")
	.dwattr $C$DW$287, DW_AT_TI_symbol_name("length")
	.dwattr $C$DW$287, DW_AT_type(*$C$DW$T$10)
	.dwattr $C$DW$287, DW_AT_location[DW_OP_breg13 556]
$C$DW$288	.dwtag  DW_TAG_formal_parameter, DW_AT_name("version")
	.dwattr $C$DW$288, DW_AT_TI_symbol_name("version")
	.dwattr $C$DW$288, DW_AT_type(*$C$DW$T$10)
	.dwattr $C$DW$288, DW_AT_location[DW_OP_breg13 560]
$C$DW$289	.dwtag  DW_TAG_formal_parameter, DW_AT_name("cbcIv")
	.dwattr $C$DW$289, DW_AT_TI_symbol_name("cbcIv")
	.dwattr $C$DW$289, DW_AT_type(*$C$DW$T$178)
	.dwattr $C$DW$289, DW_AT_location[DW_OP_breg13 564]

;*****************************************************************************
;* FUNCTION NAME: DecryptKey                                                 *
;*                                                                           *
;*   Regs Modified     : A1,A2,A3,A4,V1,V2,V3,V4,V5,V6,V7,V8,V9,SP,LR,SR,D0, *
;*                           D0_hi,D1,D1_hi,D2,D2_hi,D3,D3_hi,D4,D4_hi,D5,   *
;*                           D5_hi,D6,D6_hi,D7,D7_hi,FPEXC,FPSCR             *
;*   Regs Used         : A1,A2,A3,A4,V1,V2,V3,V4,V5,V6,V7,V8,V9,SP,LR,SR,D0, *
;*                           D0_hi,D1,D1_hi,D2,D2_hi,D3,D3_hi,D4,D4_hi,D5,   *
;*                           D5_hi,D6,D6_hi,D7,D7_hi,FPEXC,FPSCR             *
;*   Local Frame Size  : 20 Args + 484 Auto + 36 Save = 540 byte             *
;*****************************************************************************
DecryptKey:
;* --------------------------------------------------------------------------*
;* A4    assigned to $O$U44
$C$DW$290	.dwtag  DW_TAG_variable, DW_AT_name("$O$U44")
	.dwattr $C$DW$290, DW_AT_TI_symbol_name("$O$U44")
	.dwattr $C$DW$290, DW_AT_type(*$C$DW$T$992)
	.dwattr $C$DW$290, DW_AT_location[DW_OP_reg3]
;* A1    assigned to $O$U47
$C$DW$291	.dwtag  DW_TAG_variable, DW_AT_name("$O$U47")
	.dwattr $C$DW$291, DW_AT_TI_symbol_name("$O$U47")
	.dwattr $C$DW$291, DW_AT_type(*$C$DW$T$985)
	.dwattr $C$DW$291, DW_AT_location[DW_OP_reg0]
$C$DW$292	.dwtag  DW_TAG_variable, DW_AT_name("password")
	.dwattr $C$DW$292, DW_AT_TI_symbol_name("password")
	.dwattr $C$DW$292, DW_AT_type(*$C$DW$T$977)
	.dwattr $C$DW$292, DW_AT_location[DW_OP_breg13 484]
;* A3    assigned to passwordSz
$C$DW$293	.dwtag  DW_TAG_variable, DW_AT_name("passwordSz")
	.dwattr $C$DW$293, DW_AT_TI_symbol_name("passwordSz")
	.dwattr $C$DW$293, DW_AT_type(*$C$DW$T$164)
	.dwattr $C$DW$293, DW_AT_location[DW_OP_reg2]
$C$DW$294	.dwtag  DW_TAG_variable, DW_AT_name("salt")
	.dwattr $C$DW$294, DW_AT_TI_symbol_name("salt")
	.dwattr $C$DW$294, DW_AT_type(*$C$DW$T$1007)
	.dwattr $C$DW$294, DW_AT_location[DW_OP_breg13 488]
;* V3    assigned to saltSz
$C$DW$295	.dwtag  DW_TAG_variable, DW_AT_name("saltSz")
	.dwattr $C$DW$295, DW_AT_TI_symbol_name("saltSz")
	.dwattr $C$DW$295, DW_AT_type(*$C$DW$T$164)
	.dwattr $C$DW$295, DW_AT_location[DW_OP_reg6]
;* V7    assigned to iterations
$C$DW$296	.dwtag  DW_TAG_variable, DW_AT_name("iterations")
	.dwattr $C$DW$296, DW_AT_TI_symbol_name("iterations")
	.dwattr $C$DW$296, DW_AT_type(*$C$DW$T$164)
	.dwattr $C$DW$296, DW_AT_location[DW_OP_reg10]
$C$DW$297	.dwtag  DW_TAG_variable, DW_AT_name("input")
	.dwattr $C$DW$297, DW_AT_TI_symbol_name("input")
	.dwattr $C$DW$297, DW_AT_type(*$C$DW$T$1007)
	.dwattr $C$DW$297, DW_AT_location[DW_OP_breg13 492]
$C$DW$298	.dwtag  DW_TAG_variable, DW_AT_name("length")
	.dwattr $C$DW$298, DW_AT_TI_symbol_name("length")
	.dwattr $C$DW$298, DW_AT_type(*$C$DW$T$164)
	.dwattr $C$DW$298, DW_AT_location[DW_OP_breg13 496]
;* V6    assigned to version
$C$DW$299	.dwtag  DW_TAG_variable, DW_AT_name("version")
	.dwattr $C$DW$299, DW_AT_TI_symbol_name("version")
	.dwattr $C$DW$299, DW_AT_type(*$C$DW$T$164)
	.dwattr $C$DW$299, DW_AT_location[DW_OP_reg9]
$C$DW$300	.dwtag  DW_TAG_variable, DW_AT_name("cbcIv")
	.dwattr $C$DW$300, DW_AT_TI_symbol_name("cbcIv")
	.dwattr $C$DW$300, DW_AT_type(*$C$DW$T$1007)
	.dwattr $C$DW$300, DW_AT_location[DW_OP_breg13 500]
;* V4    assigned to typeH
$C$DW$301	.dwtag  DW_TAG_variable, DW_AT_name("typeH")
	.dwattr $C$DW$301, DW_AT_TI_symbol_name("typeH")
	.dwattr $C$DW$301, DW_AT_type(*$C$DW$T$10)
	.dwattr $C$DW$301, DW_AT_location[DW_OP_reg7]
;* V5    assigned to derivedLen
$C$DW$302	.dwtag  DW_TAG_variable, DW_AT_name("derivedLen")
	.dwattr $C$DW$302, DW_AT_TI_symbol_name("derivedLen")
	.dwattr $C$DW$302, DW_AT_type(*$C$DW$T$10)
	.dwattr $C$DW$302, DW_AT_location[DW_OP_reg8]
;* V2    assigned to decryptionType
$C$DW$303	.dwtag  DW_TAG_variable, DW_AT_name("decryptionType")
	.dwattr $C$DW$303, DW_AT_TI_symbol_name("decryptionType")
	.dwattr $C$DW$303, DW_AT_type(*$C$DW$T$10)
	.dwattr $C$DW$303, DW_AT_location[DW_OP_reg5]
;* LR    assigned to i
$C$DW$304	.dwtag  DW_TAG_variable, DW_AT_name("i")
	.dwattr $C$DW$304, DW_AT_TI_symbol_name("i")
	.dwattr $C$DW$304, DW_AT_type(*$C$DW$T$10)
	.dwattr $C$DW$304, DW_AT_location[DW_OP_reg14]
;* V1    assigned to idx
$C$DW$305	.dwtag  DW_TAG_variable, DW_AT_name("idx")
	.dwattr $C$DW$305, DW_AT_TI_symbol_name("idx")
	.dwattr $C$DW$305, DW_AT_type(*$C$DW$T$10)
	.dwattr $C$DW$305, DW_AT_location[DW_OP_reg4]
;* A3    assigned to desIv
$C$DW$306	.dwtag  DW_TAG_variable, DW_AT_name("desIv")
	.dwattr $C$DW$306, DW_AT_TI_symbol_name("desIv")
	.dwattr $C$DW$306, DW_AT_type(*$C$DW$T$178)
	.dwattr $C$DW$306, DW_AT_location[DW_OP_reg2]
;* A3    assigned to desIv
$C$DW$307	.dwtag  DW_TAG_variable, DW_AT_name("desIv")
	.dwattr $C$DW$307, DW_AT_TI_symbol_name("desIv")
	.dwattr $C$DW$307, DW_AT_type(*$C$DW$T$178)
	.dwattr $C$DW$307, DW_AT_location[DW_OP_reg2]
;* V9    assigned to $O$d2
$C$DW$308	.dwtag  DW_TAG_variable, DW_AT_name("$O$d2")
	.dwattr $C$DW$308, DW_AT_TI_symbol_name("$O$d2")
	.dwattr $C$DW$308, DW_AT_type(*$C$DW$T$10)
	.dwattr $C$DW$308, DW_AT_location[DW_OP_reg12]
;* V8    assigned to $O$K41
$C$DW$309	.dwtag  DW_TAG_variable, DW_AT_name("$O$K41")
	.dwattr $C$DW$309, DW_AT_TI_symbol_name("$O$K41")
	.dwattr $C$DW$309, DW_AT_type(*$C$DW$T$10)
	.dwattr $C$DW$309, DW_AT_location[DW_OP_reg11]
;* A1    assigned to $O$K41
$C$DW$310	.dwtag  DW_TAG_variable, DW_AT_name("$O$K41")
	.dwattr $C$DW$310, DW_AT_TI_symbol_name("$O$K41")
	.dwattr $C$DW$310, DW_AT_type(*$C$DW$T$10)
	.dwattr $C$DW$310, DW_AT_location[DW_OP_reg0]
;* V8    assigned to ret
$C$DW$311	.dwtag  DW_TAG_variable, DW_AT_name("ret")
	.dwattr $C$DW$311, DW_AT_TI_symbol_name("ret")
	.dwattr $C$DW$311, DW_AT_type(*$C$DW$T$10)
	.dwattr $C$DW$311, DW_AT_location[DW_OP_reg11]
;* A1    assigned to ret
$C$DW$312	.dwtag  DW_TAG_variable, DW_AT_name("ret")
	.dwattr $C$DW$312, DW_AT_TI_symbol_name("ret")
	.dwattr $C$DW$312, DW_AT_type(*$C$DW$T$10)
	.dwattr $C$DW$312, DW_AT_location[DW_OP_reg0]
;* A1    assigned to ret
$C$DW$313	.dwtag  DW_TAG_variable, DW_AT_name("ret")
	.dwattr $C$DW$313, DW_AT_TI_symbol_name("ret")
	.dwattr $C$DW$313, DW_AT_type(*$C$DW$T$10)
	.dwattr $C$DW$313, DW_AT_location[DW_OP_reg0]
;* A1    assigned to ret
$C$DW$314	.dwtag  DW_TAG_variable, DW_AT_name("ret")
	.dwattr $C$DW$314, DW_AT_TI_symbol_name("ret")
	.dwattr $C$DW$314, DW_AT_type(*$C$DW$T$10)
	.dwattr $C$DW$314, DW_AT_location[DW_OP_reg0]
$C$DW$315	.dwtag  DW_TAG_variable, DW_AT_name("$O$O1")
	.dwattr $C$DW$315, DW_AT_TI_symbol_name("$O$O1")
	.dwattr $C$DW$315, DW_AT_type(*$C$DW$T$224)
	.dwattr $C$DW$315, DW_AT_location[DW_OP_breg13 20]
$C$DW$316	.dwtag  DW_TAG_variable, DW_AT_name("key")
	.dwattr $C$DW$316, DW_AT_TI_symbol_name("key")
	.dwattr $C$DW$316, DW_AT_type(*$C$DW$T$1008)
	.dwattr $C$DW$316, DW_AT_location[DW_OP_breg13 420]
	.dwcfi	cfa_offset, 0
;** 863	-----------------------    switch ( id ) {case 0: goto g5;, case 1: goto g4;, case 2: goto g3;, case 3: goto g2;, DEFAULT goto g24};
        PUSH      {V1, V2, V3, V4, V5, V6, V7, V8, LR} ; [DPU_3_PIPE] 
	.dwcfi	cfa_offset, 36
	.dwcfi	save_reg_to_mem, 14, -4
	.dwcfi	save_reg_to_mem, 11, -8
	.dwcfi	save_reg_to_mem, 10, -12
	.dwcfi	save_reg_to_mem, 9, -16
	.dwcfi	save_reg_to_mem, 8, -20
	.dwcfi	save_reg_to_mem, 7, -24
	.dwcfi	save_reg_to_mem, 6, -28
	.dwcfi	save_reg_to_mem, 5, -32
	.dwcfi	save_reg_to_mem, 4, -36
        MOV       V2, A3                ; [DPU_3_PIPE] |852| 
        MOV       A3, A2                ; [DPU_3_PIPE] |852| 
        SUB       SP, SP, #508          ; [DPU_3_PIPE] 
	.dwcfi	cfa_offset, 544
        LDR       A2, [SP, #564]        ; [DPU_3_PIPE] |852| 
	.dwpsn	file "C:/wolfssl/ctaocrypt/src/asn.c",line 863,column 5,is_stmt,isa 1
        LDR       V1, [SP, #548]        ; [DPU_3_PIPE] |863| 
	.dwpsn	file "C:/wolfssl/ctaocrypt/src/asn.c",line 852,column 1,is_stmt,isa 1
        LDR       V6, [SP, #560]        ; [DPU_3_PIPE] |852| 
        STR       A2, [SP, #500]        ; [DPU_3_PIPE] |852| 
        LDR       V7, [SP, #544]        ; [DPU_3_PIPE] |852| 
        STR       A1, [SP, #484]        ; [DPU_3_PIPE] |852| 
        LDR       A2, [SP, #556]        ; [DPU_3_PIPE] |852| 
        STR       V2, [SP, #488]        ; [DPU_3_PIPE] |852| 
        MOV       V3, A4                ; [DPU_3_PIPE] |852| 
        STR       A2, [SP, #496]        ; [DPU_3_PIPE] |852| 
        LDR       A2, [SP, #552]        ; [DPU_3_PIPE] |852| 
        STR       A2, [SP, #492]        ; [DPU_3_PIPE] |852| 
        CBZ       V1, ||$C$L41||        ; [] 
	.dwpsn	file "C:/wolfssl/ctaocrypt/src/asn.c",line 863,column 5,is_stmt,isa 1
        ; BRANCHCC OCCURS {||$C$L41||}   ; [] |863| 
;* --------------------------------------------------------------------------*
        SUBS      V1, V1, #1            ; [DPU_3_PIPE] |863| 
        BEQ       ||$C$L40||            ; [DPU_3_PIPE] |863| 
        ; BRANCHCC OCCURS {||$C$L40||}   ; [] |863| 
;* --------------------------------------------------------------------------*
        SUBS      V1, V1, #1            ; [DPU_3_PIPE] |863| 
        BEQ       ||$C$L39||            ; [DPU_3_PIPE] |863| 
        ; BRANCHCC OCCURS {||$C$L39||}   ; [] |863| 
;* --------------------------------------------------------------------------*
        SUBS      V1, V1, #1            ; [DPU_3_PIPE] |863| 
        BNE       ||$C$L51||            ; [DPU_3_PIPE] |863| 
        ; BRANCHCC OCCURS {||$C$L51||}   ; [] |863| 
;* --------------------------------------------------------------------------*
;**	-----------------------g2:
;** 883	-----------------------    typeH = 1;
;** 884	-----------------------    derivedLen = 16;
;** 885	-----------------------    decryptionType = 2;
;** 886	-----------------------    goto g6;
	.dwpsn	file "C:/wolfssl/ctaocrypt/src/asn.c",line 883,column 13,is_stmt,isa 1
        MOVS      V4, #1                ; [DPU_3_PIPE] |883| 
	.dwpsn	file "C:/wolfssl/ctaocrypt/src/asn.c",line 884,column 13,is_stmt,isa 1
        MOV       V5, #16               ; [DPU_3_PIPE] |884| 
	.dwpsn	file "C:/wolfssl/ctaocrypt/src/asn.c",line 885,column 13,is_stmt,isa 1
        MOVS      V2, #2                ; [DPU_3_PIPE] |885| 
	.dwpsn	file "C:/wolfssl/ctaocrypt/src/asn.c",line 886,column 13,is_stmt,isa 1
        B         ||$C$L42||            ; [DPU_3_PIPE] |886| 
        ; BRANCH OCCURS {||$C$L42||}     ; [] |886| 
;* --------------------------------------------------------------------------*
||$C$L39||:    
;**	-----------------------g3:
;** 877	-----------------------    typeH = 1;
;** 878	-----------------------    derivedLen = 32;
;** 879	-----------------------    decryptionType = 1;
;** 880	-----------------------    goto g6;
	.dwpsn	file "C:/wolfssl/ctaocrypt/src/asn.c",line 877,column 13,is_stmt,isa 1
        MOVS      V4, #1                ; [DPU_3_PIPE] |877| 
	.dwpsn	file "C:/wolfssl/ctaocrypt/src/asn.c",line 878,column 13,is_stmt,isa 1
        MOV       V5, #32               ; [DPU_3_PIPE] |878| 
        MOV       V2, V4                ; [DPU_3_PIPE] 
	.dwpsn	file "C:/wolfssl/ctaocrypt/src/asn.c",line 880,column 13,is_stmt,isa 1
        B         ||$C$L42||            ; [DPU_3_PIPE] |880| 
        ; BRANCH OCCURS {||$C$L42||}     ; [] |880| 
;* --------------------------------------------------------------------------*
||$C$L40||:    
;**	-----------------------g4:
;** 871	-----------------------    typeH = 1;
;** 872	-----------------------    derivedLen = 16;
;** 873	-----------------------    decryptionType = 0;
;** 874	-----------------------    goto g6;
	.dwpsn	file "C:/wolfssl/ctaocrypt/src/asn.c",line 871,column 13,is_stmt,isa 1
        MOVS      V4, #1                ; [DPU_3_PIPE] |871| 
	.dwpsn	file "C:/wolfssl/ctaocrypt/src/asn.c",line 872,column 13,is_stmt,isa 1
        MOV       V5, #16               ; [DPU_3_PIPE] |872| 
	.dwpsn	file "C:/wolfssl/ctaocrypt/src/asn.c",line 873,column 13,is_stmt,isa 1
        MOVS      V2, #0                ; [DPU_3_PIPE] |873| 
	.dwpsn	file "C:/wolfssl/ctaocrypt/src/asn.c",line 874,column 13,is_stmt,isa 1
        B         ||$C$L42||            ; [DPU_3_PIPE] |874| 
        ; BRANCH OCCURS {||$C$L42||}     ; [] |874| 
;* --------------------------------------------------------------------------*
||$C$L41||:    
;**	-----------------------g5:
;** 865	-----------------------    typeH = 0;
;** 866	-----------------------    derivedLen = 16;
;** 867	-----------------------    decryptionType = 0;
	.dwpsn	file "C:/wolfssl/ctaocrypt/src/asn.c",line 865,column 13,is_stmt,isa 1
        MOVS      V4, #0                ; [DPU_3_PIPE] |865| 
	.dwpsn	file "C:/wolfssl/ctaocrypt/src/asn.c",line 866,column 13,is_stmt,isa 1
        MOV       V5, #16               ; [DPU_3_PIPE] |866| 
        MOV       V2, V4                ; [DPU_3_PIPE] 
;* --------------------------------------------------------------------------*
||$C$L42||:    
;**	-----------------------g6:
;** 898	-----------------------    if ( version == 6 ) goto g20;
	.dwpsn	file "C:/wolfssl/ctaocrypt/src/asn.c",line 898,column 5,is_stmt,isa 1
        CMP       V6, #6                ; [DPU_3_PIPE] |898| 
        BEQ       ||$C$L47||            ; [DPU_3_PIPE] |898| 
        ; BRANCHCC OCCURS {||$C$L47||}   ; [] |898| 
;* --------------------------------------------------------------------------*
;** 901	-----------------------    if ( version == 5 ) goto g19;
	.dwpsn	file "C:/wolfssl/ctaocrypt/src/asn.c",line 901,column 10,is_stmt,isa 1
        CMP       V6, #5                ; [DPU_3_PIPE] |901| 
        BEQ       ||$C$L46||            ; [DPU_3_PIPE] |901| 
        ; BRANCHCC OCCURS {||$C$L46||}   ; [] |901| 
;* --------------------------------------------------------------------------*
;** 904	-----------------------    if ( version != 12 ) goto g24;
	.dwpsn	file "C:/wolfssl/ctaocrypt/src/asn.c",line 904,column 10,is_stmt,isa 1
        CMP       V6, #12               ; [DPU_3_PIPE] |904| 
        BNE       ||$C$L51||            ; [DPU_3_PIPE] |904| 
        ; BRANCHCC OCCURS {||$C$L51||}   ; [] |904| 
;* --------------------------------------------------------------------------*
;** 908	-----------------------    if ( passwordSz*2 <= 254 ) goto g11;
;** 912	-----------------------    return (-175);
	.dwpsn	file "C:/wolfssl/ctaocrypt/src/asn.c",line 908,column 9,is_stmt,isa 1
        MOVS      A1, #254              ; [DPU_3_PIPE] |908| 
        CMP       A1, A3, LSL #1        ; [DPU_3_PIPE] |908| 
        IT        LT                    ; [DPU_3_PIPE] 
	.dwpsn	file "C:/wolfssl/ctaocrypt/src/asn.c",line 912,column 13,is_stmt,isa 1
        MVNLT     A1, #174              ; [DPU_3_PIPE] |912| 
        BLT       ||$C$L56||            ; [DPU_3_PIPE] |912| 
        ; BRANCHCC OCCURS {||$C$L56||}   ; [] |912| 
;* --------------------------------------------------------------------------*
;**	-----------------------g11:
;** 905	-----------------------    idx = 0;
;** 915	-----------------------    if ( passwordSz <= 0 ) goto g17;
	.dwpsn	file "C:/wolfssl/ctaocrypt/src/asn.c",line 915,column 21,is_stmt,isa 1
        CMP       A3, #0                ; [DPU_3_PIPE] |915| 
	.dwpsn	file "C:/wolfssl/ctaocrypt/src/asn.c",line 905,column 21,is_stmt,isa 1
        MOV       V1, #0                ; [DPU_3_PIPE] |905| 
	.dwpsn	file "C:/wolfssl/ctaocrypt/src/asn.c",line 915,column 21,is_stmt,isa 1
        BLE       ||$C$L45||            ; [DPU_3_PIPE] |915| 
        ; BRANCHCC OCCURS {||$C$L45||}   ; [] |915| 
;* --------------------------------------------------------------------------*
;** 916	-----------------------    d$2 = passwordSz>>1;
;** 915	-----------------------    i = 0;
;** 916	-----------------------    if ( passwordSz < 2 ) goto g15;
	.dwpsn	file "C:/wolfssl/ctaocrypt/src/asn.c",line 916,column 13,is_stmt,isa 1
        CMP       A3, #2                ; [DPU_3_PIPE] |916| 
        ASR       V9, A3, #1            ; [DPU_3_PIPE] |916| 
        MOV       LR, V1                ; [DPU_3_PIPE] 
        BLT       ||$C$L44||            ; [DPU_3_PIPE] |916| 
        ; BRANCHCC OCCURS {||$C$L44||}   ; [] |916| 
;* --------------------------------------------------------------------------*
;**  	-----------------------    K$41 = 0;
;**  	-----------------------    U$47 = password;
;**  	-----------------------    U$44 = &O$1;
;**  	-----------------------    #pragma MUST_ITERATE(1, 1073741823, 1)
;**  	-----------------------    // LOOP BELOW UNROLLED BY FACTOR(2)
;**  	-----------------------    #pragma LOOP_FLAGS(4102u)
        LDR       A1, [SP, #484]        ; [DPU_3_PIPE] 
        MOV       V8, LR                ; [DPU_3_PIPE] 
        ADD       A4, SP, #20           ; [DPU_3_PIPE] 
;* --------------------------------------------------------------------------*
;*   BEGIN LOOP ||$C$L43||
;*
;*   Loop source line                : 915
;*   Loop closing brace source line  : 918
;*   Loop Unroll Multiple            : 2x
;*   Known Minimum Trip Count        : 1
;*   Known Maximum Trip Count        : 1073741823
;*   Known Max Trip Count Factor     : 1
;* --------------------------------------------------------------------------*
||$C$L43||:    
;**	-----------------------g14:
;** 916	-----------------------    *U$44++ = K$41;
;** 917	-----------------------    *U$44++ = *U$47++;
;** 916	-----------------------    *U$44++ = K$41;
;** 917	-----------------------    *U$44++ = *U$47++;
;** 917	-----------------------    idx += 4;
;** 917	-----------------------    i += 2;
;** 915	-----------------------    if ( --d$2 ) goto g14;
	.dwpsn	file "C:/wolfssl/ctaocrypt/src/asn.c",line 917,column 13,is_stmt,isa 1
        LDRB      A2, [A1], #1          ; [DPU_3_PIPE] |917| 
	.dwpsn	file "C:/wolfssl/ctaocrypt/src/asn.c",line 916,column 13,is_stmt,isa 1
        STRB      V8, [A4], #1          ; [DPU_3_PIPE] |916| 
	.dwpsn	file "C:/wolfssl/ctaocrypt/src/asn.c",line 917,column 13,is_stmt,isa 1
        STRB      A2, [A4], #1          ; [DPU_3_PIPE] |917| 
        LDRB      A2, [A1], #1          ; [DPU_3_PIPE] |917| 
	.dwpsn	file "C:/wolfssl/ctaocrypt/src/asn.c",line 915,column 21,is_stmt,isa 1
        SUBS      V9, V9, #1            ; [DPU_3_PIPE] |915| 
	.dwpsn	file "C:/wolfssl/ctaocrypt/src/asn.c",line 917,column 13,is_stmt,isa 1
        ADD       V1, V1, #4            ; [DPU_3_PIPE] |917| 
	.dwpsn	file "C:/wolfssl/ctaocrypt/src/asn.c",line 916,column 13,is_stmt,isa 1
        STRB      V8, [A4], #1          ; [DPU_3_PIPE] |916| 
	.dwpsn	file "C:/wolfssl/ctaocrypt/src/asn.c",line 917,column 13,is_stmt,isa 1
        ADD       LR, LR, #2            ; [DPU_3_PIPE] |917| 
        STRB      A2, [A4], #1          ; [DPU_3_PIPE] |917| 
	.dwpsn	file "C:/wolfssl/ctaocrypt/src/asn.c",line 915,column 21,is_stmt,isa 1
        BNE       ||$C$L43||            ; [DPU_3_PIPE] |915| 
        ; BRANCHCC OCCURS {||$C$L43||}   ; [] |915| 
;* --------------------------------------------------------------------------*
||$C$L44||:    
;**	-----------------------g15:
;**  	-----------------------    if ( !(passwordSz&1) ) goto g17;
        LSRS      A1, A3, #1            ; [DPU_3_PIPE] 
        BCC       ||$C$L45||            ; [DPU_3_PIPE] 
        ; BRANCHCC OCCURS {||$C$L45||}   ; [] 
;* --------------------------------------------------------------------------*
; Peeled loop iterations for unrolled loop:
;** 916	-----------------------    *(&O$1+idx) = 0u;
;** 917	-----------------------    *(&O$1+(++idx)) = password[i];
;** 917	-----------------------    ++idx;
        LDR       A1, [SP, #484]        ; [DPU_3_PIPE] 
	.dwpsn	file "C:/wolfssl/ctaocrypt/src/asn.c",line 917,column 13,is_stmt,isa 1
        LDRB      A2, [A1, +LR]         ; [DPU_3_PIPE] |917| 
        ADD       V9, V1, #1            ; [DPU_3_PIPE] |917| 
	.dwpsn	file "C:/wolfssl/ctaocrypt/src/asn.c",line 916,column 13,is_stmt,isa 1
        MOVS      A4, #0                ; [DPU_3_PIPE] |916| 
        ADD       V8, V1, SP            ; [DPU_3_PIPE] |916| 
	.dwpsn	file "C:/wolfssl/ctaocrypt/src/asn.c",line 917,column 13,is_stmt,isa 1
        ADD       A3, V9, SP            ; [DPU_3_PIPE] |917| 
	.dwpsn	file "C:/wolfssl/ctaocrypt/src/asn.c",line 916,column 13,is_stmt,isa 1
        STRB      A4, [V8, #20]         ; [DPU_3_PIPE] |916| 
	.dwpsn	file "C:/wolfssl/ctaocrypt/src/asn.c",line 917,column 13,is_stmt,isa 1
        ADD       V1, V9, #1            ; [DPU_3_PIPE] |917| 
        STRB      A2, [A3, #20]         ; [DPU_3_PIPE] |917| 
;* --------------------------------------------------------------------------*
||$C$L45||:    
;**	-----------------------g17:
;** 920	-----------------------    *(&O$1+idx) = K$41 = 0;
;** 921	-----------------------    *(&O$1+(++idx)) = K$41;
;** 923	-----------------------    ret = PKCS12_PBKDF(&key, &O$1, ++idx, salt, saltSz, iterations, derivedLen, typeH, 1);
;** 925	-----------------------    if ( decryptionType == 2 ) goto g21;
	.dwpsn	file "C:/wolfssl/ctaocrypt/src/asn.c",line 923,column 9,is_stmt,isa 1
        LDR       A4, [SP, #488]        ; [DPU_3_PIPE] |923| 
	.dwpsn	file "C:/wolfssl/ctaocrypt/src/asn.c",line 920,column 9,is_stmt,isa 1
        ADD       A1, V1, SP            ; [DPU_3_PIPE] |920| 
        MOVS      A2, #0                ; [DPU_3_PIPE] |920| 
	.dwpsn	file "C:/wolfssl/ctaocrypt/src/asn.c",line 921,column 9,is_stmt,isa 1
        ADDS      V1, V1, #1            ; [DPU_3_PIPE] |921| 
	.dwpsn	file "C:/wolfssl/ctaocrypt/src/asn.c",line 920,column 9,is_stmt,isa 1
        STRB      A2, [A1, #20]         ; [DPU_3_PIPE] |920| 
	.dwpsn	file "C:/wolfssl/ctaocrypt/src/asn.c",line 921,column 9,is_stmt,isa 1
        ADD       A1, V1, SP            ; [DPU_3_PIPE] |921| 
        STRB      A2, [A1, #20]         ; [DPU_3_PIPE] |921| 
	.dwpsn	file "C:/wolfssl/ctaocrypt/src/asn.c",line 923,column 9,is_stmt,isa 1
        MOV       LR, #1                ; [DPU_3_PIPE] |923| 
        STR       V3, [SP, #0]          ; [DPU_3_PIPE] |923| 
        ADDS      V1, V1, #1            ; [DPU_3_PIPE] |923| 
        STR       V7, [SP, #4]          ; [DPU_3_PIPE] |923| 
        MOV       A3, V1                ; [DPU_3_PIPE] |923| 
        STR       V5, [SP, #8]          ; [DPU_3_PIPE] |923| 
        ADD       A1, SP, #420          ; [DPU_3_PIPE] |923| 
        STR       V4, [SP, #12]         ; [DPU_3_PIPE] |923| 
        ADD       A2, SP, #20           ; [DPU_3_PIPE] |923| 
        STR       LR, [SP, #16]         ; [DPU_3_PIPE] |923| 
$C$DW$317	.dwtag  DW_TAG_TI_branch
	.dwattr $C$DW$317, DW_AT_low_pc(0x00)
	.dwattr $C$DW$317, DW_AT_name("PKCS12_PBKDF")
	.dwattr $C$DW$317, DW_AT_TI_call
        BL        PKCS12_PBKDF          ; [DPU_3_PIPE] |923| 
        ; CALL OCCURS {PKCS12_PBKDF }    ; [] |923| 
	.dwpsn	file "C:/wolfssl/ctaocrypt/src/asn.c",line 925,column 9,is_stmt,isa 1
        CMP       V2, #2                ; [DPU_3_PIPE] |925| 
	.dwpsn	file "C:/wolfssl/ctaocrypt/src/asn.c",line 923,column 9,is_stmt,isa 1
        MOV       V8, A1                ; [DPU_3_PIPE] |923| 
	.dwpsn	file "C:/wolfssl/ctaocrypt/src/asn.c",line 925,column 9,is_stmt,isa 1
        BEQ       ||$C$L48||            ; [DPU_3_PIPE] |925| 
        ; BRANCHCC OCCURS {||$C$L48||}   ; [] |925| 
;* --------------------------------------------------------------------------*
;** 926	-----------------------    if ( ret += PKCS12_PBKDF(cbcIv, &O$1, idx, salt, saltSz, iterations, 8, typeH, 2) ) goto g22;
	.dwpsn	file "C:/wolfssl/ctaocrypt/src/asn.c",line 926,column 13,is_stmt,isa 1
        STR       V3, [SP, #0]          ; [DPU_3_PIPE] |926| 
        LDR       A4, [SP, #488]        ; [DPU_3_PIPE] |926| 
        STR       V7, [SP, #4]          ; [DPU_3_PIPE] |926| 
        MOVS      A1, #8                ; [DPU_3_PIPE] |926| 
        STR       A1, [SP, #8]          ; [DPU_3_PIPE] |926| 
        LDR       A1, [SP, #500]        ; [DPU_3_PIPE] |926| 
        MOV       LR, #2                ; [DPU_3_PIPE] |926| 
        ADD       A2, SP, #20           ; [DPU_3_PIPE] |926| 
        STR       V4, [SP, #12]         ; [DPU_3_PIPE] |926| 
        MOV       A3, V1                ; [DPU_3_PIPE] |926| 
        STR       LR, [SP, #16]         ; [DPU_3_PIPE] |926| 
$C$DW$318	.dwtag  DW_TAG_TI_branch
	.dwattr $C$DW$318, DW_AT_low_pc(0x00)
	.dwattr $C$DW$318, DW_AT_name("PKCS12_PBKDF")
	.dwattr $C$DW$318, DW_AT_TI_call
        BL        PKCS12_PBKDF          ; [DPU_3_PIPE] |926| 
        ; CALL OCCURS {PKCS12_PBKDF }    ; [] |926| 
        ADDS      V8, A1, V8            ; [DPU_3_PIPE] |926| 
        BNE       ||$C$L49||            ; [DPU_3_PIPE] |926| 
        ; BRANCHCC OCCURS {||$C$L49||}   ; [] |926| 
;* --------------------------------------------------------------------------*
;** 926	-----------------------    goto g23;
        B         ||$C$L50||            ; [DPU_3_PIPE] |926| 
        ; BRANCH OCCURS {||$C$L50||}     ; [] |926| 
;* --------------------------------------------------------------------------*
||$C$L46||:    
;**	-----------------------g19:
;** 902	-----------------------    if ( ret = PBKDF1(&key, password, passwordSz, salt, saltSz, iterations, derivedLen, typeH) ) goto g22;
	.dwpsn	file "C:/wolfssl/ctaocrypt/src/asn.c",line 902,column 9,is_stmt,isa 1
        STR       V3, [SP, #0]          ; [DPU_3_PIPE] |902| 
        LDR       A2, [SP, #484]        ; [DPU_3_PIPE] |902| 
        STR       V7, [SP, #4]          ; [DPU_3_PIPE] |902| 
        LDR       A4, [SP, #488]        ; [DPU_3_PIPE] |902| 
        STR       V5, [SP, #8]          ; [DPU_3_PIPE] |902| 
        ADD       A1, SP, #420          ; [DPU_3_PIPE] |902| 
        STR       V4, [SP, #12]         ; [DPU_3_PIPE] |902| 
$C$DW$319	.dwtag  DW_TAG_TI_branch
	.dwattr $C$DW$319, DW_AT_low_pc(0x00)
	.dwattr $C$DW$319, DW_AT_name("PBKDF1")
	.dwattr $C$DW$319, DW_AT_TI_call
        BL        PBKDF1                ; [DPU_3_PIPE] |902| 
        ; CALL OCCURS {PBKDF1 }          ; [] |902| 
        MOV       V8, A1                ; [DPU_3_PIPE] |902| 
        CMP       V8, #0                ; [DPU_3_PIPE] |902| 
        BNE       ||$C$L49||            ; [DPU_3_PIPE] |902| 
        ; BRANCHCC OCCURS {||$C$L49||}   ; [] |902| 
;* --------------------------------------------------------------------------*
;** 902	-----------------------    goto g23;
        B         ||$C$L50||            ; [DPU_3_PIPE] |902| 
        ; BRANCH OCCURS {||$C$L50||}     ; [] |902| 
;* --------------------------------------------------------------------------*
||$C$L47||:    
;**	-----------------------g20:
;** 899	-----------------------    ret = PBKDF2(&key, password, passwordSz, salt, saltSz, iterations, derivedLen, typeH);
	.dwpsn	file "C:/wolfssl/ctaocrypt/src/asn.c",line 899,column 9,is_stmt,isa 1
        STR       V3, [SP, #0]          ; [DPU_3_PIPE] |899| 
        LDR       A2, [SP, #484]        ; [DPU_3_PIPE] |899| 
        STR       V7, [SP, #4]          ; [DPU_3_PIPE] |899| 
        LDR       A4, [SP, #488]        ; [DPU_3_PIPE] |899| 
        STR       V5, [SP, #8]          ; [DPU_3_PIPE] |899| 
        ADD       A1, SP, #420          ; [DPU_3_PIPE] |899| 
        STR       V4, [SP, #12]         ; [DPU_3_PIPE] |899| 
$C$DW$320	.dwtag  DW_TAG_TI_branch
	.dwattr $C$DW$320, DW_AT_low_pc(0x00)
	.dwattr $C$DW$320, DW_AT_name("PBKDF2")
	.dwattr $C$DW$320, DW_AT_TI_call
        BL        PBKDF2                ; [DPU_3_PIPE] |899| 
        ; CALL OCCURS {PBKDF2 }          ; [] |899| 
        MOV       V8, A1                ; [DPU_3_PIPE] |899| 
;* --------------------------------------------------------------------------*
||$C$L48||:    
;**	-----------------------g21:
;** 936	-----------------------    if ( !ret ) goto g23;
	.dwpsn	file "C:/wolfssl/ctaocrypt/src/asn.c",line 936,column 5,is_stmt,isa 1
        CMP       V8, #0                ; [DPU_3_PIPE] |936| 
        BEQ       ||$C$L50||            ; [DPU_3_PIPE] |936| 
        ; BRANCHCC OCCURS {||$C$L50||}   ; [] |936| 
;* --------------------------------------------------------------------------*
||$C$L49||:    
;**	-----------------------g22:
;** 940	-----------------------    return ret;
	.dwpsn	file "C:/wolfssl/ctaocrypt/src/asn.c",line 940,column 9,is_stmt,isa 1
        MOV       A1, V8                ; [DPU_3_PIPE] |940| 
        B         ||$C$L56||            ; [DPU_3_PIPE] |940| 
        ; BRANCH OCCURS {||$C$L56||}     ; [] |940| 
;* --------------------------------------------------------------------------*
||$C$L50||:    
;**	-----------------------g23:
;** 943	-----------------------    switch ( decryptionType ) {case 0: goto g31;, case 1: goto g25;, case 2: goto g36;, DEFAULT goto g24};
        CBZ       V2, ||$C$L53||        ; [] 
	.dwpsn	file "C:/wolfssl/ctaocrypt/src/asn.c",line 943,column 5,is_stmt,isa 1
        ; BRANCHCC OCCURS {||$C$L53||}   ; [] |943| 
;* --------------------------------------------------------------------------*
        SUBS      V2, V2, #1            ; [DPU_3_PIPE] |943| 
        BEQ       ||$C$L52||            ; [DPU_3_PIPE] |943| 
        ; BRANCHCC OCCURS {||$C$L52||}   ; [] |943| 
;* --------------------------------------------------------------------------*
        SUBS      V2, V2, #1            ; [DPU_3_PIPE] |943| 
        BEQ       ||$C$L54||            ; [DPU_3_PIPE] |943| 
        ; BRANCHCC OCCURS {||$C$L54||}   ; [] |943| 
;* --------------------------------------------------------------------------*
||$C$L51||:    
;**	-----------------------g24:
;* 1004	-----------------------    return (-133);
	.dwpsn	file "C:/wolfssl/ctaocrypt/src/asn.c",line 1004,column 13,is_stmt,isa 1
        MVN       A1, #132              ; [DPU_3_PIPE] |1004| 
        B         ||$C$L56||            ; [DPU_3_PIPE] |1004| 
        ; BRANCH OCCURS {||$C$L56||}     ; [] |1004| 
;* --------------------------------------------------------------------------*
||$C$L52||:    
;**	-----------------------g25:
;** 968	-----------------------    desIv = &key[24];
;** 970	-----------------------    if ( version != 6 && version != 12 ) goto g27;
;** 971	-----------------------    desIv = cbcIv;
;**	-----------------------g27:
;** 972	-----------------------    if ( !(ret = Des3_SetKey(&O$1, &key, desIv, 1)) ) goto g29;
	.dwpsn	file "C:/wolfssl/ctaocrypt/src/asn.c",line 968,column 26,is_stmt,isa 1
        ADD       A3, SP, #444          ; [DPU_3_PIPE] |968| 
	.dwpsn	file "C:/wolfssl/ctaocrypt/src/asn.c",line 970,column 13,is_stmt,isa 1
        CMP       V6, #6                ; [DPU_3_PIPE] |970| 
        ITE       NE                    ; [DPU_3_PIPE] 
        CMPNE     V6, #12               ; [DPU_3_PIPE] |970| 
        LDREQ     A3, [SP, #500]        ; [DPU_3_PIPE] 
	.dwpsn	file "C:/wolfssl/ctaocrypt/src/asn.c",line 972,column 13,is_stmt,isa 1
        ADD       A1, SP, #20           ; [DPU_3_PIPE] |972| 
        ADD       A2, SP, #420          ; [DPU_3_PIPE] |972| 
        MOVS      A4, #1                ; [DPU_3_PIPE] |972| 
$C$DW$321	.dwtag  DW_TAG_TI_branch
	.dwattr $C$DW$321, DW_AT_low_pc(0x00)
	.dwattr $C$DW$321, DW_AT_name("Des3_SetKey")
	.dwattr $C$DW$321, DW_AT_TI_call
        BL        Des3_SetKey           ; [DPU_3_PIPE] |972| 
        ; CALL OCCURS {Des3_SetKey }     ; [] |972| 
        CMP       A1, #0                ; [DPU_3_PIPE] |972| 
        BNE       ||$C$L56||            ; [DPU_3_PIPE] |972| 
        ; BRANCHCC OCCURS {||$C$L56||}   ; [] |972| 
;* --------------------------------------------------------------------------*
;** 977	-----------------------    return ret;
;* --------------------------------------------------------------------------*
;**	-----------------------g29:
;** 979	-----------------------    if ( !(ret = Des3_CbcDecrypt(&O$1, input, input, (unsigned)length)) ) goto g37;
	.dwpsn	file "C:/wolfssl/ctaocrypt/src/asn.c",line 979,column 13,is_stmt,isa 1
        LDR       A2, [SP, #492]        ; [DPU_3_PIPE] |979| 
        LDR       A4, [SP, #496]        ; [DPU_3_PIPE] 
        ADD       A1, SP, #20           ; [DPU_3_PIPE] |979| 
        MOV       A3, A2                ; [DPU_3_PIPE] |979| 
$C$DW$322	.dwtag  DW_TAG_TI_branch
	.dwattr $C$DW$322, DW_AT_low_pc(0x00)
	.dwattr $C$DW$322, DW_AT_name("Des3_CbcDecrypt")
	.dwattr $C$DW$322, DW_AT_TI_call
        BL        Des3_CbcDecrypt       ; [DPU_3_PIPE] |979| 
        ; CALL OCCURS {Des3_CbcDecrypt }  ; [] |979| 
        CBZ       A1, ||$C$L55||        ; [] 
        ; BRANCHCC OCCURS {||$C$L55||}   ; [] |979| 
;* --------------------------------------------------------------------------*
;** 984	-----------------------    return ret;
	.dwpsn	file "C:/wolfssl/ctaocrypt/src/asn.c",line 984,column 17,is_stmt,isa 1
        B         ||$C$L56||            ; [DPU_3_PIPE] |984| 
        ; BRANCH OCCURS {||$C$L56||}     ; [] |984| 
;* --------------------------------------------------------------------------*
||$C$L53||:    
;**	-----------------------g31:
;** 948	-----------------------    desIv = &key[8];
;** 950	-----------------------    if ( version != 6 && version != 12 ) goto g33;
;** 951	-----------------------    desIv = cbcIv;
;**	-----------------------g33:
;** 953	-----------------------    if ( !(ret = Des_SetKey(&O$1, &key, desIv, 1)) ) goto g35;
	.dwpsn	file "C:/wolfssl/ctaocrypt/src/asn.c",line 948,column 26,is_stmt,isa 1
        ADD       A3, SP, #428          ; [DPU_3_PIPE] |948| 
	.dwpsn	file "C:/wolfssl/ctaocrypt/src/asn.c",line 950,column 13,is_stmt,isa 1
        CMP       V6, #6                ; [DPU_3_PIPE] |950| 
        ITE       NE                    ; [DPU_3_PIPE] 
        CMPNE     V6, #12               ; [DPU_3_PIPE] |950| 
        LDREQ     A3, [SP, #500]        ; [DPU_3_PIPE] 
	.dwpsn	file "C:/wolfssl/ctaocrypt/src/asn.c",line 953,column 13,is_stmt,isa 1
        ADD       A1, SP, #20           ; [DPU_3_PIPE] |953| 
        ADD       A2, SP, #420          ; [DPU_3_PIPE] |953| 
        MOVS      A4, #1                ; [DPU_3_PIPE] |953| 
$C$DW$323	.dwtag  DW_TAG_TI_branch
	.dwattr $C$DW$323, DW_AT_low_pc(0x00)
	.dwattr $C$DW$323, DW_AT_name("Des_SetKey")
	.dwattr $C$DW$323, DW_AT_TI_call
        BL        Des_SetKey            ; [DPU_3_PIPE] |953| 
        ; CALL OCCURS {Des_SetKey }      ; [] |953| 
        CBNZ      A1, ||$C$L56||        ; [] 
        ; BRANCHCC OCCURS {||$C$L56||}   ; [] |953| 
;* --------------------------------------------------------------------------*
;** 958	-----------------------    return ret;
;* --------------------------------------------------------------------------*
;**	-----------------------g35:
;** 961	-----------------------    Des_CbcDecrypt(&O$1, input, input, (unsigned)length);
;* 1011	-----------------------    return 0;
	.dwpsn	file "C:/wolfssl/ctaocrypt/src/asn.c",line 961,column 13,is_stmt,isa 1
        LDR       A2, [SP, #492]        ; [DPU_3_PIPE] |961| 
        LDR       A4, [SP, #496]        ; [DPU_3_PIPE] 
        ADD       A1, SP, #20           ; [DPU_3_PIPE] |961| 
        MOV       A3, A2                ; [DPU_3_PIPE] |961| 
$C$DW$324	.dwtag  DW_TAG_TI_branch
	.dwattr $C$DW$324, DW_AT_low_pc(0x00)
	.dwattr $C$DW$324, DW_AT_name("Des_CbcDecrypt")
	.dwattr $C$DW$324, DW_AT_TI_call
        BL        Des_CbcDecrypt        ; [DPU_3_PIPE] |961| 
        ; CALL OCCURS {Des_CbcDecrypt }  ; [] |961| 
	.dwpsn	file "C:/wolfssl/ctaocrypt/src/asn.c",line 1011,column 5,is_stmt,isa 1
        MOVS      A1, #0                ; [DPU_3_PIPE] |1011| 
        B         ||$C$L56||            ; [DPU_3_PIPE] |1011| 
        ; BRANCH OCCURS {||$C$L56||}     ; [] |1011| 
;* --------------------------------------------------------------------------*
||$C$L54||:    
;**	-----------------------g36:
;** 994	-----------------------    Arc4SetKey(&O$1, &key, (unsigned)derivedLen);
;** 995	-----------------------    Arc4Process(&O$1, input, input, (unsigned)length);
	.dwpsn	file "C:/wolfssl/ctaocrypt/src/asn.c",line 994,column 13,is_stmt,isa 1
        MOV       A3, V5                ; [DPU_3_PIPE] |994| 
        ADD       A1, SP, #20           ; [DPU_3_PIPE] |994| 
        ADD       A2, SP, #420          ; [DPU_3_PIPE] |994| 
$C$DW$325	.dwtag  DW_TAG_TI_branch
	.dwattr $C$DW$325, DW_AT_low_pc(0x00)
	.dwattr $C$DW$325, DW_AT_name("Arc4SetKey")
	.dwattr $C$DW$325, DW_AT_TI_call
        BL        Arc4SetKey            ; [DPU_3_PIPE] |994| 
        ; CALL OCCURS {Arc4SetKey }      ; [] |994| 
	.dwpsn	file "C:/wolfssl/ctaocrypt/src/asn.c",line 995,column 13,is_stmt,isa 1
        LDR       A2, [SP, #492]        ; [DPU_3_PIPE] |995| 
	.dwpsn	file "C:/wolfssl/ctaocrypt/src/asn.c",line 994,column 13,is_stmt,isa 1
        LDR       A4, [SP, #496]        ; [DPU_3_PIPE] |994| 
	.dwpsn	file "C:/wolfssl/ctaocrypt/src/asn.c",line 995,column 13,is_stmt,isa 1
        ADD       A1, SP, #20           ; [DPU_3_PIPE] |995| 
        MOV       A3, A2                ; [DPU_3_PIPE] |995| 
$C$DW$326	.dwtag  DW_TAG_TI_branch
	.dwattr $C$DW$326, DW_AT_low_pc(0x00)
	.dwattr $C$DW$326, DW_AT_name("Arc4Process")
	.dwattr $C$DW$326, DW_AT_TI_call
        BL        Arc4Process           ; [DPU_3_PIPE] |995| 
        ; CALL OCCURS {Arc4Process }     ; [] |995| 
;* --------------------------------------------------------------------------*
||$C$L55||:    
;**	-----------------------g37:
;* 1011	-----------------------    return 0;
	.dwpsn	file "C:/wolfssl/ctaocrypt/src/asn.c",line 1011,column 5,is_stmt,isa 1
        MOVS      A1, #0                ; [DPU_3_PIPE] |1011| 
;* --------------------------------------------------------------------------*
||$C$L56||:    
        ADD       SP, SP, #508          ; [DPU_3_PIPE] 
	.dwcfi	cfa_offset, 36
$C$DW$327	.dwtag  DW_TAG_TI_branch
	.dwattr $C$DW$327, DW_AT_low_pc(0x00)
	.dwattr $C$DW$327, DW_AT_TI_return
        POP       {V1, V2, V3, V4, V5, V6, V7, V8, PC} ; [DPU_3_PIPE] 
	.dwcfi	cfa_offset, 0
        ; BRANCH OCCURS                  ; [] 
	.dwattr $C$DW$279, DW_AT_TI_end_file("C:/wolfssl/ctaocrypt/src/asn.c")
	.dwattr $C$DW$279, DW_AT_TI_end_line(0x3f4)
	.dwattr $C$DW$279, DW_AT_TI_end_column(0x01)
	.dwendentry
	.dwendtag $C$DW$279

	.sect	".text:GetMyVersion"
	.clink
	.thumbfunc GetMyVersion
	.thumb
	.global	GetMyVersion

$C$DW$328	.dwtag  DW_TAG_subprogram, DW_AT_name("GetMyVersion")
	.dwattr $C$DW$328, DW_AT_low_pc(GetMyVersion)
	.dwattr $C$DW$328, DW_AT_high_pc(0x00)
	.dwattr $C$DW$328, DW_AT_TI_symbol_name("GetMyVersion")
	.dwattr $C$DW$328, DW_AT_external
	.dwattr $C$DW$328, DW_AT_type(*$C$DW$T$10)
	.dwattr $C$DW$328, DW_AT_TI_begin_file("C:/wolfssl/ctaocrypt/src/asn.c")
	.dwattr $C$DW$328, DW_AT_TI_begin_line(0x1e9)
	.dwattr $C$DW$328, DW_AT_TI_begin_column(0x12)
	.dwattr $C$DW$328, DW_AT_decl_file("C:/wolfssl/ctaocrypt/src/asn.c")
	.dwattr $C$DW$328, DW_AT_decl_line(0x1e9)
	.dwattr $C$DW$328, DW_AT_decl_column(0x12)
	.dwattr $C$DW$328, DW_AT_TI_max_frame_size(0x08)
	.dwpsn	file "C:/wolfssl/ctaocrypt/src/asn.c",line 490,column 1,is_stmt,address GetMyVersion,isa 1

	.dwfde $C$DW$CIE, GetMyVersion
$C$DW$329	.dwtag  DW_TAG_formal_parameter, DW_AT_name("input")
	.dwattr $C$DW$329, DW_AT_TI_symbol_name("input")
	.dwattr $C$DW$329, DW_AT_type(*$C$DW$T$812)
	.dwattr $C$DW$329, DW_AT_location[DW_OP_reg0]
$C$DW$330	.dwtag  DW_TAG_formal_parameter, DW_AT_name("inOutIdx")
	.dwattr $C$DW$330, DW_AT_TI_symbol_name("inOutIdx")
	.dwattr $C$DW$330, DW_AT_type(*$C$DW$T$1205)
	.dwattr $C$DW$330, DW_AT_location[DW_OP_reg1]
$C$DW$331	.dwtag  DW_TAG_formal_parameter, DW_AT_name("version")
	.dwattr $C$DW$331, DW_AT_TI_symbol_name("version")
	.dwattr $C$DW$331, DW_AT_type(*$C$DW$T$819)
	.dwattr $C$DW$331, DW_AT_location[DW_OP_reg2]

;*****************************************************************************
;* FUNCTION NAME: GetMyVersion                                               *
;*                                                                           *
;*   Regs Modified     : A1,A4,V1,SP,SR                                      *
;*   Regs Used         : A1,A2,A3,A4,V1,SP,LR,SR                             *
;*   Local Frame Size  : 0 Args + 0 Auto + 8 Save = 8 byte                   *
;*****************************************************************************
GetMyVersion:
;* --------------------------------------------------------------------------*
;* A1    assigned to $O$C1
$C$DW$332	.dwtag  DW_TAG_variable, DW_AT_name("$O$C1")
	.dwattr $C$DW$332, DW_AT_TI_symbol_name("$O$C1")
	.dwattr $C$DW$332, DW_AT_type(*$C$DW$T$985)
	.dwattr $C$DW$332, DW_AT_location[DW_OP_reg0]
;* A4    assigned to $O$C2
$C$DW$333	.dwtag  DW_TAG_variable, DW_AT_name("$O$C2")
	.dwattr $C$DW$333, DW_AT_TI_symbol_name("$O$C2")
	.dwattr $C$DW$333, DW_AT_type(*$C$DW$T$11)
	.dwattr $C$DW$333, DW_AT_location[DW_OP_reg3]
;* A4    assigned to idx
$C$DW$334	.dwtag  DW_TAG_variable, DW_AT_name("idx")
	.dwattr $C$DW$334, DW_AT_TI_symbol_name("idx")
	.dwattr $C$DW$334, DW_AT_type(*$C$DW$T$179)
	.dwattr $C$DW$334, DW_AT_location[DW_OP_reg3]
;* A3    assigned to version
$C$DW$335	.dwtag  DW_TAG_variable, DW_AT_name("version")
	.dwattr $C$DW$335, DW_AT_TI_symbol_name("version")
	.dwattr $C$DW$335, DW_AT_type(*$C$DW$T$1159)
	.dwattr $C$DW$335, DW_AT_location[DW_OP_reg2]
;* A2    assigned to inOutIdx
$C$DW$336	.dwtag  DW_TAG_variable, DW_AT_name("inOutIdx")
	.dwattr $C$DW$336, DW_AT_TI_symbol_name("inOutIdx")
	.dwattr $C$DW$336, DW_AT_type(*$C$DW$T$1459)
	.dwattr $C$DW$336, DW_AT_location[DW_OP_reg1]
;* A1    assigned to input
$C$DW$337	.dwtag  DW_TAG_variable, DW_AT_name("input")
	.dwattr $C$DW$337, DW_AT_TI_symbol_name("input")
	.dwattr $C$DW$337, DW_AT_type(*$C$DW$T$1016)
	.dwattr $C$DW$337, DW_AT_location[DW_OP_reg0]
	.dwcfi	cfa_offset, 0
;** 495	-----------------------    C$2 = *inOutIdx;
;** 495	-----------------------    if ( input[C$2] == 2 ) goto g3;
;** 496	-----------------------    return (-140);
        PUSH      {V1, LR}              ; [DPU_3_PIPE] 
	.dwcfi	cfa_offset, 8
	.dwcfi	save_reg_to_mem, 14, -4
	.dwcfi	save_reg_to_mem, 4, -8
	.dwpsn	file "C:/wolfssl/ctaocrypt/src/asn.c",line 495,column 5,is_stmt,isa 1
        LDR       A4, [A2, #0]          ; [DPU_3_PIPE] |495| 
        LDRB      V1, [A1, +A4]         ; [DPU_3_PIPE] |495| 
        CMP       V1, #2                ; [DPU_3_PIPE] |495| 
        IT        NE                    ; [DPU_3_PIPE] 
	.dwpsn	file "C:/wolfssl/ctaocrypt/src/asn.c",line 496,column 9,is_stmt,isa 1
        MVNNE     A1, #139              ; [DPU_3_PIPE] |496| 
        BNE       ||$C$L57||            ; [DPU_3_PIPE] |496| 
        ; BRANCHCC OCCURS {||$C$L57||}   ; [] |496| 
;* --------------------------------------------------------------------------*
;**	-----------------------g3:
;** 498	-----------------------    idx = C$2+2u;
;** 498	-----------------------    C$1 = &input[C$2];
;** 498	-----------------------    if ( C$1[1] == 1 ) goto g5;
;** 499	-----------------------    return (-141);
	.dwpsn	file "C:/wolfssl/ctaocrypt/src/asn.c",line 498,column 5,is_stmt,isa 1
        ADDS      A1, A4, A1            ; [DPU_3_PIPE] |498| 
        LDRB      V1, [A1, #1]          ; [DPU_3_PIPE] |498| 
        ADDS      A4, A4, #2            ; [DPU_3_PIPE] |498| 
        CMP       V1, #1                ; [DPU_3_PIPE] |498| 
        IT        NE                    ; [DPU_3_PIPE] 
	.dwpsn	file "C:/wolfssl/ctaocrypt/src/asn.c",line 499,column 9,is_stmt,isa 1
        MVNNE     A1, #140              ; [DPU_3_PIPE] |499| 
        BNE       ||$C$L57||            ; [DPU_3_PIPE] |499| 
        ; BRANCHCC OCCURS {||$C$L57||}   ; [] |499| 
;* --------------------------------------------------------------------------*
;**	-----------------------g5:
;** 501	-----------------------    *version = C$1[2];
;** 502	-----------------------    *inOutIdx = ++idx;
;** 504	-----------------------    return *version;
	.dwpsn	file "C:/wolfssl/ctaocrypt/src/asn.c",line 501,column 5,is_stmt,isa 1
        LDRB      A1, [A1, #2]          ; [DPU_3_PIPE] |501| 
        STR       A1, [A3, #0]          ; [DPU_3_PIPE] |501| 
	.dwpsn	file "C:/wolfssl/ctaocrypt/src/asn.c",line 502,column 5,is_stmt,isa 1
        ADDS      A4, A4, #1            ; [DPU_3_PIPE] |502| 
        STR       A4, [A2, #0]          ; [DPU_3_PIPE] |502| 
	.dwpsn	file "C:/wolfssl/ctaocrypt/src/asn.c",line 504,column 5,is_stmt,isa 1
        LDR       A1, [A3, #0]          ; [DPU_3_PIPE] |504| 
;* --------------------------------------------------------------------------*
||$C$L57||:    
$C$DW$338	.dwtag  DW_TAG_TI_branch
	.dwattr $C$DW$338, DW_AT_low_pc(0x00)
	.dwattr $C$DW$338, DW_AT_TI_return
        POP       {V1, PC}              ; [DPU_3_PIPE] 
	.dwcfi	cfa_offset, 0
        ; BRANCH OCCURS                  ; [] 
	.dwattr $C$DW$328, DW_AT_TI_end_file("C:/wolfssl/ctaocrypt/src/asn.c")
	.dwattr $C$DW$328, DW_AT_TI_end_line(0x1f9)
	.dwattr $C$DW$328, DW_AT_TI_end_column(0x01)
	.dwendentry
	.dwendtag $C$DW$328

	.sect	".text:ToTraditional"
	.clink
	.thumbfunc ToTraditional
	.thumb
	.global	ToTraditional

$C$DW$339	.dwtag  DW_TAG_subprogram, DW_AT_name("ToTraditional")
	.dwattr $C$DW$339, DW_AT_low_pc(ToTraditional)
	.dwattr $C$DW$339, DW_AT_high_pc(0x00)
	.dwattr $C$DW$339, DW_AT_TI_symbol_name("ToTraditional")
	.dwattr $C$DW$339, DW_AT_external
	.dwattr $C$DW$339, DW_AT_type(*$C$DW$T$10)
	.dwattr $C$DW$339, DW_AT_TI_begin_file("C:/wolfssl/ctaocrypt/src/asn.c")
	.dwattr $C$DW$339, DW_AT_TI_begin_line(0x2ee)
	.dwattr $C$DW$339, DW_AT_TI_begin_column(0x05)
	.dwattr $C$DW$339, DW_AT_decl_file("C:/wolfssl/ctaocrypt/src/asn.c")
	.dwattr $C$DW$339, DW_AT_decl_line(0x2ee)
	.dwattr $C$DW$339, DW_AT_decl_column(0x05)
	.dwattr $C$DW$339, DW_AT_TI_max_frame_size(0x20)
	.dwpsn	file "C:/wolfssl/ctaocrypt/src/asn.c",line 751,column 1,is_stmt,address ToTraditional,isa 1

	.dwfde $C$DW$CIE, ToTraditional
$C$DW$340	.dwtag  DW_TAG_formal_parameter, DW_AT_name("input")
	.dwattr $C$DW$340, DW_AT_TI_symbol_name("input")
	.dwattr $C$DW$340, DW_AT_type(*$C$DW$T$178)
	.dwattr $C$DW$340, DW_AT_location[DW_OP_reg0]
$C$DW$341	.dwtag  DW_TAG_formal_parameter, DW_AT_name("sz")
	.dwattr $C$DW$341, DW_AT_TI_symbol_name("sz")
	.dwattr $C$DW$341, DW_AT_type(*$C$DW$T$179)
	.dwattr $C$DW$341, DW_AT_location[DW_OP_reg1]

;*****************************************************************************
;* FUNCTION NAME: ToTraditional                                              *
;*                                                                           *
;*   Regs Modified     : A1,A2,A3,A4,V1,V2,V9,SP,LR,SR,D0,D0_hi,D1,D1_hi,D2, *
;*                           D2_hi,D3,D3_hi,D4,D4_hi,D5,D5_hi,D6,D6_hi,D7,   *
;*                           D7_hi,FPEXC,FPSCR                               *
;*   Regs Used         : A1,A2,A3,A4,V1,V2,V9,SP,LR,SR,D0,D0_hi,D1,D1_hi,D2, *
;*                           D2_hi,D3,D3_hi,D4,D4_hi,D5,D5_hi,D6,D6_hi,D7,   *
;*                           D7_hi,FPEXC,FPSCR                               *
;*   Local Frame Size  : 0 Args + 16 Auto + 12 Save = 28 byte                *
;*****************************************************************************
ToTraditional:
;* --------------------------------------------------------------------------*
;* A1    assigned to $O$y16
$C$DW$342	.dwtag  DW_TAG_variable, DW_AT_name("$O$y16")
	.dwattr $C$DW$342, DW_AT_TI_symbol_name("$O$y16")
	.dwattr $C$DW$342, DW_AT_type(*$C$DW$T$179)
	.dwattr $C$DW$342, DW_AT_location[DW_OP_reg0]
$C$DW$343	.dwtag  DW_TAG_variable, DW_AT_name("length")
	.dwattr $C$DW$343, DW_AT_TI_symbol_name("length")
	.dwattr $C$DW$343, DW_AT_type(*$C$DW$T$10)
	.dwattr $C$DW$343, DW_AT_location[DW_OP_breg13 0]
$C$DW$344	.dwtag  DW_TAG_variable, DW_AT_name("version")
	.dwattr $C$DW$344, DW_AT_TI_symbol_name("version")
	.dwattr $C$DW$344, DW_AT_type(*$C$DW$T$10)
	.dwattr $C$DW$344, DW_AT_location[DW_OP_breg13 4]
$C$DW$345	.dwtag  DW_TAG_variable, DW_AT_name("oid")
	.dwattr $C$DW$345, DW_AT_TI_symbol_name("oid")
	.dwattr $C$DW$345, DW_AT_type(*$C$DW$T$179)
	.dwattr $C$DW$345, DW_AT_location[DW_OP_breg13 8]
$C$DW$346	.dwtag  DW_TAG_variable, DW_AT_name("inOutIdx")
	.dwattr $C$DW$346, DW_AT_TI_symbol_name("inOutIdx")
	.dwattr $C$DW$346, DW_AT_type(*$C$DW$T$179)
	.dwattr $C$DW$346, DW_AT_location[DW_OP_breg13 12]
;* V2    assigned to sz
$C$DW$347	.dwtag  DW_TAG_variable, DW_AT_name("sz")
	.dwattr $C$DW$347, DW_AT_TI_symbol_name("sz")
	.dwattr $C$DW$347, DW_AT_type(*$C$DW$T$1469)
	.dwattr $C$DW$347, DW_AT_location[DW_OP_reg5]
;* V1    assigned to input
$C$DW$348	.dwtag  DW_TAG_variable, DW_AT_name("input")
	.dwattr $C$DW$348, DW_AT_TI_symbol_name("input")
	.dwattr $C$DW$348, DW_AT_type(*$C$DW$T$1007)
	.dwattr $C$DW$348, DW_AT_location[DW_OP_reg4]
	.dwcfi	cfa_offset, 0
;** 752	-----------------------    inOutIdx = 0u;
;** 755	-----------------------    if ( GetSequence(input, &inOutIdx, &length, sz) < 0 ) goto g9;
        PUSH      {V1, V2, LR}          ; [DPU_3_PIPE] 
	.dwcfi	cfa_offset, 12
	.dwcfi	save_reg_to_mem, 14, -4
	.dwcfi	save_reg_to_mem, 5, -8
	.dwcfi	save_reg_to_mem, 4, -12
        MOV       V2, A2                ; [DPU_3_PIPE] |751| 
	.dwpsn	file "C:/wolfssl/ctaocrypt/src/asn.c",line 752,column 21,is_stmt,isa 1
        MOVS      A3, #0                ; [DPU_3_PIPE] |752| 
        SUB       SP, SP, #20           ; [DPU_3_PIPE] 
	.dwcfi	cfa_offset, 32
	.dwpsn	file "C:/wolfssl/ctaocrypt/src/asn.c",line 751,column 1,is_stmt,isa 1
        MOV       V1, A1                ; [DPU_3_PIPE] |751| 
	.dwpsn	file "C:/wolfssl/ctaocrypt/src/asn.c",line 755,column 5,is_stmt,isa 1
        MOV       A4, V2                ; [DPU_3_PIPE] |755| 
        ADD       A2, SP, #12           ; [DPU_3_PIPE] |755| 
	.dwpsn	file "C:/wolfssl/ctaocrypt/src/asn.c",line 752,column 21,is_stmt,isa 1
        STR       A3, [SP, #12]         ; [DPU_3_PIPE] |752| 
	.dwpsn	file "C:/wolfssl/ctaocrypt/src/asn.c",line 755,column 5,is_stmt,isa 1
        MOV       A3, SP                ; [DPU_3_PIPE] |755| 
$C$DW$349	.dwtag  DW_TAG_TI_branch
	.dwattr $C$DW$349, DW_AT_low_pc(0x00)
	.dwattr $C$DW$349, DW_AT_name("GetSequence")
	.dwattr $C$DW$349, DW_AT_TI_call
        BL        GetSequence           ; [DPU_3_PIPE] |755| 
        ; CALL OCCURS {GetSequence }     ; [] |755| 
        CMP       A1, #0                ; [DPU_3_PIPE] |755| 
        BMI       ||$C$L59||            ; [DPU_3_PIPE] |755| 
        ; BRANCHCC OCCURS {||$C$L59||}   ; [] |755| 
;* --------------------------------------------------------------------------*
;** 758	-----------------------    if ( GetMyVersion(input, &inOutIdx, &version) < 0 ) goto g9;
	.dwpsn	file "C:/wolfssl/ctaocrypt/src/asn.c",line 758,column 5,is_stmt,isa 1
        MOV       A1, V1                ; [DPU_3_PIPE] |758| 
        ADD       A2, SP, #12           ; [DPU_3_PIPE] |758| 
        ADD       A3, SP, #4            ; [DPU_3_PIPE] |758| 
$C$DW$350	.dwtag  DW_TAG_TI_branch
	.dwattr $C$DW$350, DW_AT_low_pc(0x00)
	.dwattr $C$DW$350, DW_AT_name("GetMyVersion")
	.dwattr $C$DW$350, DW_AT_TI_call
        BL        GetMyVersion          ; [DPU_3_PIPE] |758| 
        ; CALL OCCURS {GetMyVersion }    ; [] |758| 
        CMP       A1, #0                ; [DPU_3_PIPE] |758| 
        BMI       ||$C$L59||            ; [DPU_3_PIPE] |758| 
        ; BRANCHCC OCCURS {||$C$L59||}   ; [] |758| 
;* --------------------------------------------------------------------------*
;** 761	-----------------------    if ( GetAlgoId(input, &inOutIdx, &oid, sz) < 0 ) goto g9;
	.dwpsn	file "C:/wolfssl/ctaocrypt/src/asn.c",line 761,column 5,is_stmt,isa 1
        MOV       A1, V1                ; [DPU_3_PIPE] |761| 
        ADD       A2, SP, #12           ; [DPU_3_PIPE] |761| 
        ADD       A3, SP, #8            ; [DPU_3_PIPE] |761| 
        MOV       A4, V2                ; [DPU_3_PIPE] |761| 
$C$DW$351	.dwtag  DW_TAG_TI_branch
	.dwattr $C$DW$351, DW_AT_low_pc(0x00)
	.dwattr $C$DW$351, DW_AT_name("GetAlgoId")
	.dwattr $C$DW$351, DW_AT_TI_call
        BL        GetAlgoId             ; [DPU_3_PIPE] |761| 
        ; CALL OCCURS {GetAlgoId }       ; [] |761| 
        CMP       A1, #0                ; [DPU_3_PIPE] |761| 
        BMI       ||$C$L59||            ; [DPU_3_PIPE] |761| 
        ; BRANCHCC OCCURS {||$C$L59||}   ; [] |761| 
;* --------------------------------------------------------------------------*
;** 764	-----------------------    if ( input[inOutIdx] != 6 ) goto g7;
	.dwpsn	file "C:/wolfssl/ctaocrypt/src/asn.c",line 764,column 5,is_stmt,isa 1
        LDR       A1, [SP, #12]         ; [DPU_3_PIPE] |764| 
        LDRB      A1, [V1, +A1]         ; [DPU_3_PIPE] |764| 
        CMP       A1, #6                ; [DPU_3_PIPE] |764| 
        BNE       ||$C$L58||            ; [DPU_3_PIPE] |764| 
        ; BRANCHCC OCCURS {||$C$L58||}   ; [] |764| 
;* --------------------------------------------------------------------------*
;** 766	-----------------------    inOutIdx = inOutIdx+1u;
;** 767	-----------------------    if ( GetLength(input, &inOutIdx, &length, sz) < 0 ) goto g9;
	.dwpsn	file "C:/wolfssl/ctaocrypt/src/asn.c",line 766,column 9,is_stmt,isa 1
        LDR       A1, [SP, #12]         ; [DPU_3_PIPE] |766| 
	.dwpsn	file "C:/wolfssl/ctaocrypt/src/asn.c",line 767,column 9,is_stmt,isa 1
        ADD       A2, SP, #12           ; [DPU_3_PIPE] |767| 
        MOV       A3, SP                ; [DPU_3_PIPE] |767| 
        MOV       A4, V2                ; [DPU_3_PIPE] |767| 
	.dwpsn	file "C:/wolfssl/ctaocrypt/src/asn.c",line 766,column 9,is_stmt,isa 1
        ADDS      A1, A1, #1            ; [DPU_3_PIPE] |766| 
        STR       A1, [SP, #12]         ; [DPU_3_PIPE] |766| 
	.dwpsn	file "C:/wolfssl/ctaocrypt/src/asn.c",line 767,column 9,is_stmt,isa 1
        MOV       A1, V1                ; [DPU_3_PIPE] |767| 
$C$DW$352	.dwtag  DW_TAG_TI_branch
	.dwattr $C$DW$352, DW_AT_low_pc(0x00)
	.dwattr $C$DW$352, DW_AT_name("GetLength")
	.dwattr $C$DW$352, DW_AT_TI_call
        BL        GetLength             ; [DPU_3_PIPE] |767| 
        ; CALL OCCURS {GetLength }       ; [] |767| 
        CMP       A1, #0                ; [DPU_3_PIPE] |767| 
        BMI       ||$C$L59||            ; [DPU_3_PIPE] |767| 
        ; BRANCHCC OCCURS {||$C$L59||}   ; [] |767| 
;* --------------------------------------------------------------------------*
;** 769	-----------------------    inOutIdx += length;
	.dwpsn	file "C:/wolfssl/ctaocrypt/src/asn.c",line 769,column 9,is_stmt,isa 1
        LDR       A2, [SP, #12]         ; [DPU_3_PIPE] |769| 
        LDR       A1, [SP, #0]          ; [DPU_3_PIPE] |769| 
        ADDS      A1, A1, A2            ; [DPU_3_PIPE] |769| 
        STR       A1, [SP, #12]         ; [DPU_3_PIPE] |769| 
;* --------------------------------------------------------------------------*
||$C$L58||:    
;**	-----------------------g7:
;** 772	-----------------------    y$16 = inOutIdx+1u;
;** 772	-----------------------    inOutIdx = y$16;
;** 772	-----------------------    if ( input[inOutIdx-1] != 4 ) goto g9;
	.dwpsn	file "C:/wolfssl/ctaocrypt/src/asn.c",line 772,column 5,is_stmt,isa 1
        LDR       A1, [SP, #12]         ; [DPU_3_PIPE] |772| 
        ADDS      A1, A1, #1            ; [DPU_3_PIPE] |772| 
        STR       A1, [SP, #12]         ; [DPU_3_PIPE] |772| 
        LDR       A1, [SP, #12]         ; [DPU_3_PIPE] |772| 
        ADDS      A1, V1, A1            ; [DPU_3_PIPE] |772| 
        LDRB      A1, [A1, #-1]         ; [DPU_3_PIPE] |772| 
        CMP       A1, #4                ; [DPU_3_PIPE] |772| 
        BNE       ||$C$L59||            ; [DPU_3_PIPE] |772| 
        ; BRANCHCC OCCURS {||$C$L59||}   ; [] |772| 
;* --------------------------------------------------------------------------*
;** 775	-----------------------    if ( GetLength(input, &inOutIdx, &length, sz) >= 0 ) goto g10;
	.dwpsn	file "C:/wolfssl/ctaocrypt/src/asn.c",line 775,column 5,is_stmt,isa 1
        MOV       A1, V1                ; [DPU_3_PIPE] |775| 
        ADD       A2, SP, #12           ; [DPU_3_PIPE] |775| 
        MOV       A3, SP                ; [DPU_3_PIPE] |775| 
        MOV       A4, V2                ; [DPU_3_PIPE] |775| 
$C$DW$353	.dwtag  DW_TAG_TI_branch
	.dwattr $C$DW$353, DW_AT_low_pc(0x00)
	.dwattr $C$DW$353, DW_AT_name("GetLength")
	.dwattr $C$DW$353, DW_AT_TI_call
        BL        GetLength             ; [DPU_3_PIPE] |775| 
        ; CALL OCCURS {GetLength }       ; [] |775| 
        CMP       A1, #0                ; [DPU_3_PIPE] |775| 
        BPL       ||$C$L60||            ; [DPU_3_PIPE] |775| 
        ; BRANCHCC OCCURS {||$C$L60||}   ; [] |775| 
;* --------------------------------------------------------------------------*
||$C$L59||:    
;**	-----------------------g9:
;** 776	-----------------------    return (-140);
	.dwpsn	file "C:/wolfssl/ctaocrypt/src/asn.c",line 776,column 9,is_stmt,isa 1
        MVN       A1, #139              ; [DPU_3_PIPE] |776| 
        B         ||$C$L61||            ; [DPU_3_PIPE] |776| 
        ; BRANCH OCCURS {||$C$L61||}     ; [] |776| 
;* --------------------------------------------------------------------------*
||$C$L60||:    
;**	-----------------------g10:
;** 778	-----------------------    memmove((void *)input, inOutIdx+input, (unsigned)length);
;** 780	-----------------------    return length;
	.dwpsn	file "C:/wolfssl/ctaocrypt/src/asn.c",line 778,column 5,is_stmt,isa 1
        LDR       A1, [SP, #12]         ; [DPU_3_PIPE] |778| 
        LDR       A3, [SP, #0]          ; [DPU_3_PIPE] |778| 
        ADDS      A2, V1, A1            ; [DPU_3_PIPE] |778| 
        MOV       A1, V1                ; [DPU_3_PIPE] |778| 
$C$DW$354	.dwtag  DW_TAG_TI_branch
	.dwattr $C$DW$354, DW_AT_low_pc(0x00)
	.dwattr $C$DW$354, DW_AT_name("memmove")
	.dwattr $C$DW$354, DW_AT_TI_call
        BL        memmove               ; [DPU_3_PIPE] |778| 
        ; CALL OCCURS {memmove }         ; [] |778| 
	.dwpsn	file "C:/wolfssl/ctaocrypt/src/asn.c",line 780,column 5,is_stmt,isa 1
        LDR       A1, [SP, #0]          ; [DPU_3_PIPE] |780| 
;* --------------------------------------------------------------------------*
||$C$L61||:    
        ADD       SP, SP, #20           ; [DPU_3_PIPE] 
	.dwcfi	cfa_offset, 12
$C$DW$355	.dwtag  DW_TAG_TI_branch
	.dwattr $C$DW$355, DW_AT_low_pc(0x00)
	.dwattr $C$DW$355, DW_AT_TI_return
        POP       {V1, V2, PC}          ; [DPU_3_PIPE] 
	.dwcfi	cfa_offset, 0
        ; BRANCH OCCURS                  ; [] 
	.dwattr $C$DW$339, DW_AT_TI_end_file("C:/wolfssl/ctaocrypt/src/asn.c")
	.dwattr $C$DW$339, DW_AT_TI_end_line(0x30d)
	.dwattr $C$DW$339, DW_AT_TI_end_column(0x01)
	.dwendentry
	.dwendtag $C$DW$339

	.sect	".text:ToTraditionalEnc"
	.clink
	.thumbfunc ToTraditionalEnc
	.thumb
	.global	ToTraditionalEnc

$C$DW$356	.dwtag  DW_TAG_subprogram, DW_AT_name("ToTraditionalEnc")
	.dwattr $C$DW$356, DW_AT_low_pc(ToTraditionalEnc)
	.dwattr $C$DW$356, DW_AT_high_pc(0x00)
	.dwattr $C$DW$356, DW_AT_TI_symbol_name("ToTraditionalEnc")
	.dwattr $C$DW$356, DW_AT_external
	.dwattr $C$DW$356, DW_AT_type(*$C$DW$T$10)
	.dwattr $C$DW$356, DW_AT_TI_begin_file("C:/wolfssl/ctaocrypt/src/asn.c")
	.dwattr $C$DW$356, DW_AT_TI_begin_line(0x3f9)
	.dwattr $C$DW$356, DW_AT_TI_begin_column(0x05)
	.dwattr $C$DW$356, DW_AT_decl_file("C:/wolfssl/ctaocrypt/src/asn.c")
	.dwattr $C$DW$356, DW_AT_decl_line(0x3f9)
	.dwattr $C$DW$356, DW_AT_decl_column(0x05)
	.dwattr $C$DW$356, DW_AT_TI_max_frame_size(0xc8)
	.dwpsn	file "C:/wolfssl/ctaocrypt/src/asn.c",line 1018,column 1,is_stmt,address ToTraditionalEnc,isa 1

	.dwfde $C$DW$CIE, ToTraditionalEnc
$C$DW$357	.dwtag  DW_TAG_formal_parameter, DW_AT_name("input")
	.dwattr $C$DW$357, DW_AT_TI_symbol_name("input")
	.dwattr $C$DW$357, DW_AT_type(*$C$DW$T$178)
	.dwattr $C$DW$357, DW_AT_location[DW_OP_reg0]
$C$DW$358	.dwtag  DW_TAG_formal_parameter, DW_AT_name("sz")
	.dwattr $C$DW$358, DW_AT_TI_symbol_name("sz")
	.dwattr $C$DW$358, DW_AT_type(*$C$DW$T$179)
	.dwattr $C$DW$358, DW_AT_location[DW_OP_reg1]
$C$DW$359	.dwtag  DW_TAG_formal_parameter, DW_AT_name("password")
	.dwattr $C$DW$359, DW_AT_TI_symbol_name("password")
	.dwattr $C$DW$359, DW_AT_type(*$C$DW$T$129)
	.dwattr $C$DW$359, DW_AT_location[DW_OP_reg2]
$C$DW$360	.dwtag  DW_TAG_formal_parameter, DW_AT_name("passwordSz")
	.dwattr $C$DW$360, DW_AT_TI_symbol_name("passwordSz")
	.dwattr $C$DW$360, DW_AT_type(*$C$DW$T$10)
	.dwattr $C$DW$360, DW_AT_location[DW_OP_reg3]

;*****************************************************************************
;* FUNCTION NAME: ToTraditionalEnc                                           *
;*                                                                           *
;*   Regs Modified     : A1,A2,A3,A4,V1,V2,V3,V4,V5,V6,V7,V9,SP,LR,SR,D0,    *
;*                           D0_hi,D1,D1_hi,D2,D2_hi,D3,D3_hi,D4,D4_hi,D5,   *
;*                           D5_hi,D6,D6_hi,D7,D7_hi,FPEXC,FPSCR             *
;*   Regs Used         : A1,A2,A3,A4,V1,V2,V3,V4,V5,V6,V7,V9,SP,LR,SR,D0,    *
;*                           D0_hi,D1,D1_hi,D2,D2_hi,D3,D3_hi,D4,D4_hi,D5,   *
;*                           D5_hi,D6,D6_hi,D7,D7_hi,FPEXC,FPSCR             *
;*   Local Frame Size  : 24 Args + 144 Auto + 32 Save = 200 byte             *
;*****************************************************************************
ToTraditionalEnc:
;* --------------------------------------------------------------------------*
;* A4    assigned to $O$C13
$C$DW$361	.dwtag  DW_TAG_variable, DW_AT_name("$O$C13")
	.dwattr $C$DW$361, DW_AT_TI_symbol_name("$O$C13")
	.dwattr $C$DW$361, DW_AT_type(*$C$DW$T$10)
	.dwattr $C$DW$361, DW_AT_location[DW_OP_reg3]
;* A3    assigned to $O$C14
$C$DW$362	.dwtag  DW_TAG_variable, DW_AT_name("$O$C14")
	.dwattr $C$DW$362, DW_AT_TI_symbol_name("$O$C14")
	.dwattr $C$DW$362, DW_AT_type(*$C$DW$T$6)
	.dwattr $C$DW$362, DW_AT_location[DW_OP_reg2]
;* LR    assigned to $O$C15
$C$DW$363	.dwtag  DW_TAG_variable, DW_AT_name("$O$C15")
	.dwattr $C$DW$363, DW_AT_TI_symbol_name("$O$C15")
	.dwattr $C$DW$363, DW_AT_type(*$C$DW$T$992)
	.dwattr $C$DW$363, DW_AT_location[DW_OP_reg14]
;* A2    assigned to $O$C16
$C$DW$364	.dwtag  DW_TAG_variable, DW_AT_name("$O$C16")
	.dwattr $C$DW$364, DW_AT_TI_symbol_name("$O$C16")
	.dwattr $C$DW$364, DW_AT_type(*$C$DW$T$6)
	.dwattr $C$DW$364, DW_AT_location[DW_OP_reg1]
;* A2    assigned to $O$C17
$C$DW$365	.dwtag  DW_TAG_variable, DW_AT_name("$O$C17")
	.dwattr $C$DW$365, DW_AT_TI_symbol_name("$O$C17")
	.dwattr $C$DW$365, DW_AT_type(*$C$DW$T$992)
	.dwattr $C$DW$365, DW_AT_location[DW_OP_reg1]
;* A1    assigned to $O$Y0
$C$DW$366	.dwtag  DW_TAG_variable, DW_AT_name("$O$Y0")
	.dwattr $C$DW$366, DW_AT_TI_symbol_name("$O$Y0")
	.dwattr $C$DW$366, DW_AT_type(*$C$DW$T$179)
	.dwattr $C$DW$366, DW_AT_location[DW_OP_reg0]
;* A1    assigned to $O$y115
$C$DW$367	.dwtag  DW_TAG_variable, DW_AT_name("$O$y115")
	.dwattr $C$DW$367, DW_AT_TI_symbol_name("$O$y115")
	.dwattr $C$DW$367, DW_AT_type(*$C$DW$T$179)
	.dwattr $C$DW$367, DW_AT_location[DW_OP_reg0]
;* A1    assigned to $O$y99
$C$DW$368	.dwtag  DW_TAG_variable, DW_AT_name("$O$y99")
	.dwattr $C$DW$368, DW_AT_TI_symbol_name("$O$y99")
	.dwattr $C$DW$368, DW_AT_type(*$C$DW$T$179)
	.dwattr $C$DW$368, DW_AT_location[DW_OP_reg0]
;* A1    assigned to $O$y54
$C$DW$369	.dwtag  DW_TAG_variable, DW_AT_name("$O$y54")
	.dwattr $C$DW$369, DW_AT_TI_symbol_name("$O$y54")
	.dwattr $C$DW$369, DW_AT_type(*$C$DW$T$179)
	.dwattr $C$DW$369, DW_AT_location[DW_OP_reg0]
;* A1    assigned to second
$C$DW$370	.dwtag  DW_TAG_variable, DW_AT_name("second")
	.dwattr $C$DW$370, DW_AT_TI_symbol_name("second")
	.dwattr $C$DW$370, DW_AT_type(*$C$DW$T$10)
	.dwattr $C$DW$370, DW_AT_location[DW_OP_reg0]
;* V9    assigned to idx
$C$DW$371	.dwtag  DW_TAG_variable, DW_AT_name("idx")
	.dwattr $C$DW$371, DW_AT_TI_symbol_name("idx")
	.dwattr $C$DW$371, DW_AT_type(*$C$DW$T$179)
	.dwattr $C$DW$371, DW_AT_location[DW_OP_reg12]
;* V1    assigned to iterations
$C$DW$372	.dwtag  DW_TAG_variable, DW_AT_name("iterations")
	.dwattr $C$DW$372, DW_AT_TI_symbol_name("iterations")
	.dwattr $C$DW$372, DW_AT_type(*$C$DW$T$10)
	.dwattr $C$DW$372, DW_AT_location[DW_OP_reg4]
;* V5    assigned to id
$C$DW$373	.dwtag  DW_TAG_variable, DW_AT_name("id")
	.dwattr $C$DW$373, DW_AT_TI_symbol_name("id")
	.dwattr $C$DW$373, DW_AT_type(*$C$DW$T$10)
	.dwattr $C$DW$373, DW_AT_location[DW_OP_reg8]
$C$DW$374	.dwtag  DW_TAG_variable, DW_AT_name("saltSz")
	.dwattr $C$DW$374, DW_AT_TI_symbol_name("saltSz")
	.dwattr $C$DW$374, DW_AT_type(*$C$DW$T$10)
	.dwattr $C$DW$374, DW_AT_location[DW_OP_breg13 24]
;* V6    assigned to version
$C$DW$375	.dwtag  DW_TAG_variable, DW_AT_name("version")
	.dwattr $C$DW$375, DW_AT_TI_symbol_name("version")
	.dwattr $C$DW$375, DW_AT_type(*$C$DW$T$10)
	.dwattr $C$DW$375, DW_AT_location[DW_OP_reg9]
$C$DW$376	.dwtag  DW_TAG_variable, DW_AT_name("length")
	.dwattr $C$DW$376, DW_AT_TI_symbol_name("length")
	.dwattr $C$DW$376, DW_AT_type(*$C$DW$T$10)
	.dwattr $C$DW$376, DW_AT_location[DW_OP_breg13 28]
$C$DW$377	.dwtag  DW_TAG_variable, DW_AT_name("oid")
	.dwattr $C$DW$377, DW_AT_TI_symbol_name("oid")
	.dwattr $C$DW$377, DW_AT_type(*$C$DW$T$179)
	.dwattr $C$DW$377, DW_AT_location[DW_OP_breg13 32]
$C$DW$378	.dwtag  DW_TAG_variable, DW_AT_name("inOutIdx")
	.dwattr $C$DW$378, DW_AT_TI_symbol_name("inOutIdx")
	.dwattr $C$DW$378, DW_AT_type(*$C$DW$T$179)
	.dwattr $C$DW$378, DW_AT_location[DW_OP_breg13 36]
;* V3    assigned to passwordSz
$C$DW$379	.dwtag  DW_TAG_variable, DW_AT_name("passwordSz")
	.dwattr $C$DW$379, DW_AT_TI_symbol_name("passwordSz")
	.dwattr $C$DW$379, DW_AT_type(*$C$DW$T$164)
	.dwattr $C$DW$379, DW_AT_location[DW_OP_reg6]
;* V2    assigned to password
$C$DW$380	.dwtag  DW_TAG_variable, DW_AT_name("password")
	.dwattr $C$DW$380, DW_AT_TI_symbol_name("password")
	.dwattr $C$DW$380, DW_AT_type(*$C$DW$T$977)
	.dwattr $C$DW$380, DW_AT_location[DW_OP_reg5]
;* V7    assigned to sz
$C$DW$381	.dwtag  DW_TAG_variable, DW_AT_name("sz")
	.dwattr $C$DW$381, DW_AT_TI_symbol_name("sz")
	.dwattr $C$DW$381, DW_AT_type(*$C$DW$T$1469)
	.dwattr $C$DW$381, DW_AT_location[DW_OP_reg10]
;* V4    assigned to input
$C$DW$382	.dwtag  DW_TAG_variable, DW_AT_name("input")
	.dwattr $C$DW$382, DW_AT_TI_symbol_name("input")
	.dwattr $C$DW$382, DW_AT_type(*$C$DW$T$1007)
	.dwattr $C$DW$382, DW_AT_location[DW_OP_reg7]
$C$DW$383	.dwtag  DW_TAG_variable, DW_AT_name("salt")
	.dwattr $C$DW$383, DW_AT_TI_symbol_name("salt")
	.dwattr $C$DW$383, DW_AT_type(*$C$DW$T$1008)
	.dwattr $C$DW$383, DW_AT_location[DW_OP_breg13 40]
$C$DW$384	.dwtag  DW_TAG_variable, DW_AT_name("cbcIv")
	.dwattr $C$DW$384, DW_AT_TI_symbol_name("cbcIv")
	.dwattr $C$DW$384, DW_AT_type(*$C$DW$T$1008)
	.dwattr $C$DW$384, DW_AT_location[DW_OP_breg13 104]
	.dwcfi	cfa_offset, 0
;* 1019	-----------------------    inOutIdx = 0u;
;* 1030	-----------------------    if ( GetSequence(input, &inOutIdx, &length, sz) < 0 ) goto g39;
        PUSH      {V1, V2, V3, V4, V5, V6, V7, LR} ; [DPU_3_PIPE] 
	.dwcfi	cfa_offset, 32
	.dwcfi	save_reg_to_mem, 14, -4
	.dwcfi	save_reg_to_mem, 10, -8
	.dwcfi	save_reg_to_mem, 9, -12
	.dwcfi	save_reg_to_mem, 8, -16
	.dwcfi	save_reg_to_mem, 7, -20
	.dwcfi	save_reg_to_mem, 6, -24
	.dwcfi	save_reg_to_mem, 5, -28
	.dwcfi	save_reg_to_mem, 4, -32
        MOV       V3, A4                ; [DPU_3_PIPE] |1018| 
        MOV       V7, A2                ; [DPU_3_PIPE] |1018| 
        MOV       V2, A3                ; [DPU_3_PIPE] |1018| 
	.dwpsn	file "C:/wolfssl/ctaocrypt/src/asn.c",line 1019,column 21,is_stmt,isa 1
        MOVS      V1, #0                ; [DPU_3_PIPE] |1019| 
        SUB       SP, SP, #168          ; [DPU_3_PIPE] 
	.dwcfi	cfa_offset, 200
	.dwpsn	file "C:/wolfssl/ctaocrypt/src/asn.c",line 1018,column 1,is_stmt,isa 1
        MOV       V4, A1                ; [DPU_3_PIPE] |1018| 
	.dwpsn	file "C:/wolfssl/ctaocrypt/src/asn.c",line 1030,column 5,is_stmt,isa 1
        MOV       A4, V7                ; [DPU_3_PIPE] |1030| 
        ADD       A2, SP, #36           ; [DPU_3_PIPE] |1030| 
        ADD       A3, SP, #28           ; [DPU_3_PIPE] |1030| 
	.dwpsn	file "C:/wolfssl/ctaocrypt/src/asn.c",line 1019,column 21,is_stmt,isa 1
        STR       V1, [SP, #36]         ; [DPU_3_PIPE] |1019| 
	.dwpsn	file "C:/wolfssl/ctaocrypt/src/asn.c",line 1030,column 5,is_stmt,isa 1
$C$DW$385	.dwtag  DW_TAG_TI_branch
	.dwattr $C$DW$385, DW_AT_low_pc(0x00)
	.dwattr $C$DW$385, DW_AT_name("GetSequence")
	.dwattr $C$DW$385, DW_AT_TI_call
        BL        GetSequence           ; [DPU_3_PIPE] |1030| 
        ; CALL OCCURS {GetSequence }     ; [] |1030| 
        CMP       A1, #0                ; [DPU_3_PIPE] |1030| 
        BMI       ||$C$L71||            ; [DPU_3_PIPE] |1030| 
        ; BRANCHCC OCCURS {||$C$L71||}   ; [] |1030| 
;* --------------------------------------------------------------------------*
;* 1033	-----------------------    if ( GetAlgoId(input, &inOutIdx, &oid, sz) < 0 ) goto g39;
	.dwpsn	file "C:/wolfssl/ctaocrypt/src/asn.c",line 1033,column 5,is_stmt,isa 1
        MOV       A1, V4                ; [DPU_3_PIPE] |1033| 
        ADD       A2, SP, #36           ; [DPU_3_PIPE] |1033| 
        ADD       A3, SP, #32           ; [DPU_3_PIPE] |1033| 
        MOV       A4, V7                ; [DPU_3_PIPE] |1033| 
$C$DW$386	.dwtag  DW_TAG_TI_branch
	.dwattr $C$DW$386, DW_AT_low_pc(0x00)
	.dwattr $C$DW$386, DW_AT_name("GetAlgoId")
	.dwattr $C$DW$386, DW_AT_TI_call
        BL        GetAlgoId             ; [DPU_3_PIPE] |1033| 
        ; CALL OCCURS {GetAlgoId }       ; [] |1033| 
        CMP       A1, #0                ; [DPU_3_PIPE] |1033| 
        BMI       ||$C$L71||            ; [DPU_3_PIPE] |1033| 
        ; BRANCHCC OCCURS {||$C$L71||}   ; [] |1033| 
;* --------------------------------------------------------------------------*
;* 1039	-----------------------    C$17 = &input[inOutIdx-1];
;* 1039	-----------------------    second = *C$17;
;** 794	-----------------------    if ( C$17[-1] == 1 ) goto g13;  // [53]
	.dwpsn	file "C:/wolfssl/ctaocrypt/src/asn.c",line 1039,column 5,is_stmt,isa 1
        LDR       A1, [SP, #36]         ; [DPU_3_PIPE] |1039| 
        ADDS      A2, V4, A1            ; [DPU_3_PIPE] |1039| 
        SUBS      A2, A2, #1            ; [DPU_3_PIPE] |1039| 
	.dwpsn	file "C:/wolfssl/ctaocrypt/src/asn.c",line 794,column 9,is_stmt,isa 1
        LDRB      A3, [A2, #-1]         ; [DPU_3_PIPE] |794| 
	.dwpsn	file "C:/wolfssl/ctaocrypt/src/asn.c",line 1039,column 5,is_stmt,isa 1
        LDRB      A1, [A2, #0]          ; [DPU_3_PIPE] |1039| 
	.dwpsn	file "C:/wolfssl/ctaocrypt/src/asn.c",line 794,column 9,is_stmt,isa 1
        CMP       A3, #1                ; [DPU_3_PIPE] |794| 
        BEQ       ||$C$L64||            ; [DPU_3_PIPE] |794| 
        ; BRANCHCC OCCURS {||$C$L64||}   ; [] |794| 
;* --------------------------------------------------------------------------*
;** 808	-----------------------    if ( C$17[-1] != 5 ) goto g41;  // [53]
	.dwpsn	file "C:/wolfssl/ctaocrypt/src/asn.c",line 808,column 5,is_stmt,isa 1
        LDRB      A2, [A2, #-1]         ; [DPU_3_PIPE] |808| 
        CMP       A2, #5                ; [DPU_3_PIPE] |808| 
        BNE       ||$C$L73||            ; [DPU_3_PIPE] |808| 
        ; BRANCHCC OCCURS {||$C$L73||}   ; [] |808| 
;* --------------------------------------------------------------------------*
;** 811	-----------------------    if ( (unsigned char)second == 13 ) goto g9;  // [53]
	.dwpsn	file "C:/wolfssl/ctaocrypt/src/asn.c",line 811,column 5,is_stmt,isa 1
        CMP       A1, #13               ; [DPU_3_PIPE] |811| 
        BEQ       ||$C$L63||            ; [DPU_3_PIPE] |811| 
        ; BRANCHCC OCCURS {||$C$L63||}   ; [] |811| 
;* --------------------------------------------------------------------------*
;** 791	-----------------------    version = 5;  // [53]
;** 816	-----------------------    switch ( (unsigned char)second ) {case 3: goto g8;, case 10: goto g7;, DEFAULT goto g41};  // [53]
	.dwpsn	file "C:/wolfssl/ctaocrypt/src/asn.c",line 816,column 5,is_stmt,isa 1
        SUBS      A1, A1, #3            ; [DPU_3_PIPE] |816| 
	.dwpsn	file "C:/wolfssl/ctaocrypt/src/asn.c",line 791,column 5,is_stmt,isa 1
        MOV       V6, #5                ; [DPU_3_PIPE] |791| 
	.dwpsn	file "C:/wolfssl/ctaocrypt/src/asn.c",line 816,column 5,is_stmt,isa 1
        BEQ       ||$C$L62||            ; [DPU_3_PIPE] |816| 
        ; BRANCHCC OCCURS {||$C$L62||}   ; [] |816| 
;* --------------------------------------------------------------------------*
        SUBS      A1, A1, #7            ; [DPU_3_PIPE] |816| 
        BNE       ||$C$L73||            ; [DPU_3_PIPE] |816| 
        ; BRANCHCC OCCURS {||$C$L73||}   ; [] |816| 
;* --------------------------------------------------------------------------*
;**	-----------------------g7:
;** 821	-----------------------    id = 1;  // [53]
;* 1042	-----------------------    goto g16;
	.dwpsn	file "C:/wolfssl/ctaocrypt/src/asn.c",line 821,column 9,is_stmt,isa 1
        MOV       V5, #1                ; [DPU_3_PIPE] |821| 
	.dwpsn	file "C:/wolfssl/ctaocrypt/src/asn.c",line 1042,column 5,is_stmt,isa 1
        B         ||$C$L66||            ; [DPU_3_PIPE] |1042| 
        ; BRANCH OCCURS {||$C$L66||}     ; [] |1042| 
;* --------------------------------------------------------------------------*
||$C$L62||:    
;**	-----------------------g8:
;** 818	-----------------------    id = 0;  // [53]
;* 1042	-----------------------    goto g16;
        MOV       V5, V1                ; [DPU_3_PIPE] 
        B         ||$C$L66||            ; [DPU_3_PIPE] |1042| 
        ; BRANCH OCCURS {||$C$L66||}     ; [] |1042| 
;* --------------------------------------------------------------------------*
||$C$L63||:    
;**	-----------------------g9:
;* 1044	-----------------------    if ( GetSequence(input, &inOutIdx, &length, sz) < 0 ) goto g39;
	.dwpsn	file "C:/wolfssl/ctaocrypt/src/asn.c",line 1044,column 9,is_stmt,isa 1
        MOV       A1, V4                ; [DPU_3_PIPE] |1044| 
        ADD       A2, SP, #36           ; [DPU_3_PIPE] |1044| 
        ADD       A3, SP, #28           ; [DPU_3_PIPE] |1044| 
        MOV       A4, V7                ; [DPU_3_PIPE] |1044| 
$C$DW$387	.dwtag  DW_TAG_TI_branch
	.dwattr $C$DW$387, DW_AT_low_pc(0x00)
	.dwattr $C$DW$387, DW_AT_name("GetSequence")
	.dwattr $C$DW$387, DW_AT_TI_call
        BL        GetSequence           ; [DPU_3_PIPE] |1044| 
        ; CALL OCCURS {GetSequence }     ; [] |1044| 
        CMP       A1, #0                ; [DPU_3_PIPE] |1044| 
        BMI       ||$C$L71||            ; [DPU_3_PIPE] |1044| 
        ; BRANCHCC OCCURS {||$C$L71||}   ; [] |1044| 
;* --------------------------------------------------------------------------*
;* 1047	-----------------------    if ( GetAlgoId(input, &inOutIdx, &oid, sz) < 0 ) goto g39;
	.dwpsn	file "C:/wolfssl/ctaocrypt/src/asn.c",line 1047,column 9,is_stmt,isa 1
        MOV       A1, V4                ; [DPU_3_PIPE] |1047| 
        ADD       A2, SP, #36           ; [DPU_3_PIPE] |1047| 
        ADD       A3, SP, #32           ; [DPU_3_PIPE] |1047| 
        MOV       A4, V7                ; [DPU_3_PIPE] |1047| 
$C$DW$388	.dwtag  DW_TAG_TI_branch
	.dwattr $C$DW$388, DW_AT_low_pc(0x00)
	.dwattr $C$DW$388, DW_AT_name("GetAlgoId")
	.dwattr $C$DW$388, DW_AT_TI_call
        BL        GetAlgoId             ; [DPU_3_PIPE] |1047| 
        ; CALL OCCURS {GetAlgoId }       ; [] |1047| 
        CMP       A1, #0                ; [DPU_3_PIPE] |1047| 
        BMI       ||$C$L71||            ; [DPU_3_PIPE] |1047| 
        ; BRANCHCC OCCURS {||$C$L71||}   ; [] |1047| 
;* --------------------------------------------------------------------------*
;* 1050	-----------------------    if ( oid != 660u ) goto g39;
	.dwpsn	file "C:/wolfssl/ctaocrypt/src/asn.c",line 1050,column 9,is_stmt,isa 1
        LDR       A1, [SP, #32]         ; [DPU_3_PIPE] |1050| 
        CMP       A1, #660              ; [DPU_3_PIPE] |1050| 
        BNE       ||$C$L71||            ; [DPU_3_PIPE] |1050| 
        ; BRANCHCC OCCURS {||$C$L71||}   ; [] |1050| 
;* --------------------------------------------------------------------------*
;** 790	-----------------------    id = (-133);  // [53]
;** 812	-----------------------    version = 6;  // [53]
;**  	-----------------------    goto g16;
	.dwpsn	file "C:/wolfssl/ctaocrypt/src/asn.c",line 790,column 5,is_stmt,isa 1
        MVN       V5, #132              ; [DPU_3_PIPE] |790| 
	.dwpsn	file "C:/wolfssl/ctaocrypt/src/asn.c",line 812,column 9,is_stmt,isa 1
        MOV       V6, #6                ; [DPU_3_PIPE] |812| 
        B         ||$C$L66||            ; [DPU_3_PIPE] 
        ; BRANCH OCCURS {||$C$L66||}     ; [] 
;* --------------------------------------------------------------------------*
||$C$L64||:    
;**	-----------------------g13:
;** 794	-----------------------    switch ( second ) {case 1: goto g15;, case 3: goto g14;, DEFAULT goto g41};  // [53]
	.dwpsn	file "C:/wolfssl/ctaocrypt/src/asn.c",line 794,column 9,is_stmt,isa 1
        SUBS      A1, A1, #1            ; [DPU_3_PIPE] |794| 
        BEQ       ||$C$L65||            ; [DPU_3_PIPE] |794| 
        ; BRANCHCC OCCURS {||$C$L65||}   ; [] |794| 
;* --------------------------------------------------------------------------*
        SUBS      A1, A1, #2            ; [DPU_3_PIPE] |794| 
        BNE       ||$C$L73||            ; [DPU_3_PIPE] |794| 
        ; BRANCHCC OCCURS {||$C$L73||}   ; [] |794| 
;* --------------------------------------------------------------------------*
;**	-----------------------g14:
;** 800	-----------------------    id = 2;  // [53]
;** 801	-----------------------    version = 12;  // [53]
;* 1042	-----------------------    goto g16;
	.dwpsn	file "C:/wolfssl/ctaocrypt/src/asn.c",line 800,column 13,is_stmt,isa 1
        MOV       V5, #2                ; [DPU_3_PIPE] |800| 
	.dwpsn	file "C:/wolfssl/ctaocrypt/src/asn.c",line 801,column 13,is_stmt,isa 1
        MOV       V6, #12               ; [DPU_3_PIPE] |801| 
	.dwpsn	file "C:/wolfssl/ctaocrypt/src/asn.c",line 1042,column 5,is_stmt,isa 1
        B         ||$C$L66||            ; [DPU_3_PIPE] |1042| 
        ; BRANCH OCCURS {||$C$L66||}     ; [] |1042| 
;* --------------------------------------------------------------------------*
||$C$L65||:    
;**	-----------------------g15:
;** 796	-----------------------    id = 3;  // [53]
;** 797	-----------------------    version = 12;  // [53]
	.dwpsn	file "C:/wolfssl/ctaocrypt/src/asn.c",line 796,column 13,is_stmt,isa 1
        MOV       V5, #3                ; [DPU_3_PIPE] |796| 
	.dwpsn	file "C:/wolfssl/ctaocrypt/src/asn.c",line 797,column 13,is_stmt,isa 1
        MOV       V6, #12               ; [DPU_3_PIPE] |797| 
;* --------------------------------------------------------------------------*
||$C$L66||:    
;**	-----------------------g16:
;* 1054	-----------------------    if ( GetSequence(input, &inOutIdx, &length, sz) < 0 ) goto g39;
	.dwpsn	file "C:/wolfssl/ctaocrypt/src/asn.c",line 1054,column 5,is_stmt,isa 1
        MOV       A1, V4                ; [DPU_3_PIPE] |1054| 
        ADD       A2, SP, #36           ; [DPU_3_PIPE] |1054| 
        ADD       A3, SP, #28           ; [DPU_3_PIPE] |1054| 
        MOV       A4, V7                ; [DPU_3_PIPE] |1054| 
$C$DW$389	.dwtag  DW_TAG_TI_branch
	.dwattr $C$DW$389, DW_AT_low_pc(0x00)
	.dwattr $C$DW$389, DW_AT_name("GetSequence")
	.dwattr $C$DW$389, DW_AT_TI_call
        BL        GetSequence           ; [DPU_3_PIPE] |1054| 
        ; CALL OCCURS {GetSequence }     ; [] |1054| 
        CMP       A1, #0                ; [DPU_3_PIPE] |1054| 
        BMI       ||$C$L71||            ; [DPU_3_PIPE] |1054| 
        ; BRANCHCC OCCURS {||$C$L71||}   ; [] |1054| 
;* --------------------------------------------------------------------------*
;* 1057	-----------------------    y$54 = inOutIdx+1u;
;* 1057	-----------------------    inOutIdx = y$54;
;* 1057	-----------------------    if ( input[inOutIdx-1] != 4 ) goto g39;
	.dwpsn	file "C:/wolfssl/ctaocrypt/src/asn.c",line 1057,column 5,is_stmt,isa 1
        LDR       A1, [SP, #36]         ; [DPU_3_PIPE] |1057| 
        ADDS      A1, A1, #1            ; [DPU_3_PIPE] |1057| 
        STR       A1, [SP, #36]         ; [DPU_3_PIPE] |1057| 
        LDR       A1, [SP, #36]         ; [DPU_3_PIPE] |1057| 
        ADDS      A1, V4, A1            ; [DPU_3_PIPE] |1057| 
        LDRB      A1, [A1, #-1]         ; [DPU_3_PIPE] |1057| 
        CMP       A1, #4                ; [DPU_3_PIPE] |1057| 
        BNE       ||$C$L71||            ; [DPU_3_PIPE] |1057| 
        ; BRANCHCC OCCURS {||$C$L71||}   ; [] |1057| 
;* --------------------------------------------------------------------------*
;* 1060	-----------------------    if ( GetLength(input, &inOutIdx, &saltSz, sz) < 0 ) goto g39;
	.dwpsn	file "C:/wolfssl/ctaocrypt/src/asn.c",line 1060,column 5,is_stmt,isa 1
        MOV       A1, V4                ; [DPU_3_PIPE] |1060| 
        ADD       A2, SP, #36           ; [DPU_3_PIPE] |1060| 
        ADD       A3, SP, #24           ; [DPU_3_PIPE] |1060| 
        MOV       A4, V7                ; [DPU_3_PIPE] |1060| 
$C$DW$390	.dwtag  DW_TAG_TI_branch
	.dwattr $C$DW$390, DW_AT_low_pc(0x00)
	.dwattr $C$DW$390, DW_AT_name("GetLength")
	.dwattr $C$DW$390, DW_AT_TI_call
        BL        GetLength             ; [DPU_3_PIPE] |1060| 
        ; CALL OCCURS {GetLength }       ; [] |1060| 
        CMP       A1, #0                ; [DPU_3_PIPE] |1060| 
        BMI       ||$C$L71||            ; [DPU_3_PIPE] |1060| 
        ; BRANCHCC OCCURS {||$C$L71||}   ; [] |1060| 
;* --------------------------------------------------------------------------*
;* 1063	-----------------------    if ( saltSz > 64 ) goto g39;
	.dwpsn	file "C:/wolfssl/ctaocrypt/src/asn.c",line 1063,column 5,is_stmt,isa 1
        LDR       A1, [SP, #24]         ; [DPU_3_PIPE] |1063| 
        CMP       A1, #64               ; [DPU_3_PIPE] |1063| 
        BGT       ||$C$L71||            ; [DPU_3_PIPE] |1063| 
        ; BRANCHCC OCCURS {||$C$L71||}   ; [] |1063| 
;* --------------------------------------------------------------------------*
;* 1072	-----------------------    memcpy(&salt, inOutIdx+input, (unsigned)saltSz);
;* 1073	-----------------------    inOutIdx += saltSz;
;* 1073	-----------------------    Y$0 = inOutIdx;
;** 517	-----------------------    if ( input[Y$0] != 2 ) goto g39;  // [46]
	.dwpsn	file "C:/wolfssl/ctaocrypt/src/asn.c",line 1072,column 5,is_stmt,isa 1
        LDR       A2, [SP, #36]         ; [DPU_3_PIPE] |1072| 
        LDR       A3, [SP, #24]         ; [DPU_3_PIPE] |1072| 
        ADD       A1, SP, #40           ; [DPU_3_PIPE] |1072| 
        ADDS      A2, V4, A2            ; [DPU_3_PIPE] |1072| 
$C$DW$391	.dwtag  DW_TAG_TI_branch
	.dwattr $C$DW$391, DW_AT_low_pc(0x00)
	.dwattr $C$DW$391, DW_AT_name("memcpy")
	.dwattr $C$DW$391, DW_AT_TI_call
        BL        memcpy                ; [DPU_3_PIPE] |1072| 
        ; CALL OCCURS {memcpy }          ; [] |1072| 
	.dwpsn	file "C:/wolfssl/ctaocrypt/src/asn.c",line 1073,column 5,is_stmt,isa 1
        LDR       A2, [SP, #36]         ; [DPU_3_PIPE] |1073| 
        LDR       A1, [SP, #24]         ; [DPU_3_PIPE] |1073| 
        ADDS      A1, A1, A2            ; [DPU_3_PIPE] |1073| 
	.dwpsn	file "C:/wolfssl/ctaocrypt/src/asn.c",line 517,column 5,is_stmt,isa 1
        LDRB      A2, [V4, +A1]         ; [DPU_3_PIPE] |517| 
	.dwpsn	file "C:/wolfssl/ctaocrypt/src/asn.c",line 1073,column 5,is_stmt,isa 1
        STR       A1, [SP, #36]         ; [DPU_3_PIPE] |1073| 
	.dwpsn	file "C:/wolfssl/ctaocrypt/src/asn.c",line 517,column 5,is_stmt,isa 1
        CMP       A2, #2                ; [DPU_3_PIPE] |517| 
        BNE       ||$C$L71||            ; [DPU_3_PIPE] |517| 
        ; BRANCHCC OCCURS {||$C$L71||}   ; [] |517| 
;* --------------------------------------------------------------------------*
;** 520	-----------------------    idx = Y$0+2u;  // [46]
;** 521	-----------------------    C$15 = &input[Y$0];  // [46]
;** 521	-----------------------    if ( (C$16 = C$15[1]) > 4u ) goto g39;  // [46]
	.dwpsn	file "C:/wolfssl/ctaocrypt/src/asn.c",line 521,column 5,is_stmt,isa 1
        ADD       LR, A1, V4            ; [DPU_3_PIPE] |521| 
        LDRB      A2, [LR, #1]          ; [DPU_3_PIPE] |521| 
	.dwpsn	file "C:/wolfssl/ctaocrypt/src/asn.c",line 520,column 5,is_stmt,isa 1
        ADD       V9, A1, #2            ; [DPU_3_PIPE] |520| 
	.dwpsn	file "C:/wolfssl/ctaocrypt/src/asn.c",line 521,column 5,is_stmt,isa 1
        CMP       A2, #4                ; [DPU_3_PIPE] |521| 
        BHI       ||$C$L71||            ; [DPU_3_PIPE] |521| 
        ; BRANCHCC OCCURS {||$C$L71||}   ; [] |521| 
;* --------------------------------------------------------------------------*
;** 524	-----------------------    if ( !C$16 ) goto g27;  // [46]
        CBZ       A2, ||$C$L67||        ; [] 
	.dwpsn	file "C:/wolfssl/ctaocrypt/src/asn.c",line 524,column 5,is_stmt,isa 1
        ; BRANCHCC OCCURS {||$C$L67||}   ; [] |524| 
;* --------------------------------------------------------------------------*
;** 525	-----------------------    iterations = C$15[2];  // [46]
;** 525	-----------------------    idx = Y$0+3u;  // [46]
;** 524	-----------------------    if ( C$16 == 1u ) goto g28;  // [46]
	.dwpsn	file "C:/wolfssl/ctaocrypt/src/asn.c",line 525,column 9,is_stmt,isa 1
        LDRB      V1, [LR, #2]          ; [DPU_3_PIPE] |525| 
	.dwpsn	file "C:/wolfssl/ctaocrypt/src/asn.c",line 524,column 5,is_stmt,isa 1
        SUBS      A3, A2, #1            ; [DPU_3_PIPE] |524| 
	.dwpsn	file "C:/wolfssl/ctaocrypt/src/asn.c",line 525,column 9,is_stmt,isa 1
        ADD       V9, A1, #3            ; [DPU_3_PIPE] |525| 
	.dwpsn	file "C:/wolfssl/ctaocrypt/src/asn.c",line 524,column 5,is_stmt,isa 1
        BEQ       ||$C$L67||            ; [DPU_3_PIPE] |524| 
        ; BRANCHCC OCCURS {||$C$L67||}   ; [] |524| 
;* --------------------------------------------------------------------------*
;** 525	-----------------------    iterations = C$13 = (int)(unsigned char)iterations<<8|C$15[3];  // [46]
;** 525	-----------------------    idx = Y$0+4u;  // [46]
;** 524	-----------------------    if ( C$16 == 2u ) goto g28;  // [46]
	.dwpsn	file "C:/wolfssl/ctaocrypt/src/asn.c",line 525,column 9,is_stmt,isa 1
        LDRB      A4, [LR, #3]          ; [DPU_3_PIPE] |525| 
	.dwpsn	file "C:/wolfssl/ctaocrypt/src/asn.c",line 524,column 5,is_stmt,isa 1
        SUBS      A3, A2, #2            ; [DPU_3_PIPE] |524| 
	.dwpsn	file "C:/wolfssl/ctaocrypt/src/asn.c",line 525,column 9,is_stmt,isa 1
        ADD       V9, A1, #4            ; [DPU_3_PIPE] |525| 
        ORR       A4, A4, V1, LSL #8    ; [DPU_3_PIPE] |525| 
        MOV       V1, A4                ; [DPU_3_PIPE] |525| 
	.dwpsn	file "C:/wolfssl/ctaocrypt/src/asn.c",line 524,column 5,is_stmt,isa 1
        BEQ       ||$C$L67||            ; [DPU_3_PIPE] |524| 
        ; BRANCHCC OCCURS {||$C$L67||}   ; [] |524| 
;* --------------------------------------------------------------------------*
;** 525	-----------------------    C$14 = C$15[4];  // [46]
;** 525	-----------------------    iterations = iterations<<8|C$14;  // [46]
;** 525	-----------------------    idx = Y$0+5u;  // [46]
;** 524	-----------------------    if ( C$16 == 3u ) goto g28;  // [46]
	.dwpsn	file "C:/wolfssl/ctaocrypt/src/asn.c",line 525,column 9,is_stmt,isa 1
        LDRB      A3, [LR, #4]          ; [DPU_3_PIPE] |525| 
	.dwpsn	file "C:/wolfssl/ctaocrypt/src/asn.c",line 524,column 5,is_stmt,isa 1
        SUBS      A2, A2, #3            ; [DPU_3_PIPE] |524| 
	.dwpsn	file "C:/wolfssl/ctaocrypt/src/asn.c",line 525,column 9,is_stmt,isa 1
        ADD       V9, A1, #5            ; [DPU_3_PIPE] |525| 
        ORR       V1, A3, V1, LSL #8    ; [DPU_3_PIPE] |525| 
	.dwpsn	file "C:/wolfssl/ctaocrypt/src/asn.c",line 524,column 5,is_stmt,isa 1
        BEQ       ||$C$L67||            ; [DPU_3_PIPE] |524| 
        ; BRANCHCC OCCURS {||$C$L67||}   ; [] |524| 
;* --------------------------------------------------------------------------*
;** 525	-----------------------    iterations = (C$13<<8|C$14)<<8|C$15[5];  // [46]
;** 525	-----------------------    idx = Y$0+6u;  // [46]
;** 524	-----------------------    goto g28;  // [46]
;**	-----------------------g27:
;** 515	-----------------------    iterations = 0;  // [46]
	.dwpsn	file "C:/wolfssl/ctaocrypt/src/asn.c",line 525,column 9,is_stmt,isa 1
        LDRB      V1, [LR, #5]          ; [DPU_3_PIPE] |525| 
        ORR       A3, A3, A4, LSL #8    ; [DPU_3_PIPE] |525| 
        ADD       V9, A1, #6            ; [DPU_3_PIPE] |525| 
        ORR       V1, V1, A3, LSL #8    ; [DPU_3_PIPE] |525| 
;* --------------------------------------------------------------------------*
||$C$L67||:    
;**	-----------------------g28:
;** 528	-----------------------    inOutIdx = idx;  // [46]
;* 1075	-----------------------    if ( iterations < 0 ) goto g39;
	.dwpsn	file "C:/wolfssl/ctaocrypt/src/asn.c",line 1075,column 5,is_stmt,isa 1
        CMP       V1, #0                ; [DPU_3_PIPE] |1075| 
	.dwpsn	file "C:/wolfssl/ctaocrypt/src/asn.c",line 528,column 5,is_stmt,isa 1
        STR       V9, [SP, #36]         ; [DPU_3_PIPE] |528| 
	.dwpsn	file "C:/wolfssl/ctaocrypt/src/asn.c",line 1075,column 5,is_stmt,isa 1
        BMI       ||$C$L71||            ; [DPU_3_PIPE] |1075| 
        ; BRANCHCC OCCURS {||$C$L71||}   ; [] |1075| 
;* --------------------------------------------------------------------------*
;* 1090	-----------------------    if ( version != 6 ) goto g37;
	.dwpsn	file "C:/wolfssl/ctaocrypt/src/asn.c",line 1090,column 5,is_stmt,isa 1
        CMP       V6, #6                ; [DPU_3_PIPE] |1090| 
        BNE       ||$C$L70||            ; [DPU_3_PIPE] |1090| 
        ; BRANCHCC OCCURS {||$C$L70||}   ; [] |1090| 
;* --------------------------------------------------------------------------*
;* 1092	-----------------------    if ( GetAlgoId(input, &inOutIdx, &oid, sz) < 0 ) goto g39;
	.dwpsn	file "C:/wolfssl/ctaocrypt/src/asn.c",line 1092,column 9,is_stmt,isa 1
        MOV       A1, V4                ; [DPU_3_PIPE] |1092| 
        ADD       A2, SP, #36           ; [DPU_3_PIPE] |1092| 
        ADD       A3, SP, #32           ; [DPU_3_PIPE] |1092| 
        MOV       A4, V7                ; [DPU_3_PIPE] |1092| 
$C$DW$392	.dwtag  DW_TAG_TI_branch
	.dwattr $C$DW$392, DW_AT_low_pc(0x00)
	.dwattr $C$DW$392, DW_AT_name("GetAlgoId")
	.dwattr $C$DW$392, DW_AT_TI_call
        BL        GetAlgoId             ; [DPU_3_PIPE] |1092| 
        ; CALL OCCURS {GetAlgoId }       ; [] |1092| 
        CMP       A1, #0                ; [DPU_3_PIPE] |1092| 
        BMI       ||$C$L71||            ; [DPU_3_PIPE] |1092| 
        ; BRANCHCC OCCURS {||$C$L71||}   ; [] |1092| 
;* --------------------------------------------------------------------------*
;** 834	-----------------------    switch ( (int)oid ) {case 69: goto g33;, case 652: goto g32;, DEFAULT goto g39};  // [54]
	.dwpsn	file "C:/wolfssl/ctaocrypt/src/asn.c",line 834,column 5,is_stmt,isa 1
        LDR       A1, [SP, #32]         ; [DPU_3_PIPE] |834| 
        SUBS      A1, A1, #69           ; [DPU_3_PIPE] |834| 
        BEQ       ||$C$L68||            ; [DPU_3_PIPE] |834| 
        ; BRANCHCC OCCURS {||$C$L68||}   ; [] |834| 
;* --------------------------------------------------------------------------*
        SUB       A1, A1, #583          ; [DPU_3_PIPE] |834| 
        CMP       A1, #0                ; [DPU_3_PIPE] |834| 
        BNE       ||$C$L71||            ; [DPU_3_PIPE] |834| 
        ; BRANCHCC OCCURS {||$C$L71||}   ; [] |834| 
;* --------------------------------------------------------------------------*
;**	-----------------------g32:
;** 839	-----------------------    id = 2;  // [54]
;** 840	-----------------------    goto g34;  // [54]
	.dwpsn	file "C:/wolfssl/ctaocrypt/src/asn.c",line 839,column 9,is_stmt,isa 1
        MOV       V5, #2                ; [DPU_3_PIPE] |839| 
	.dwpsn	file "C:/wolfssl/ctaocrypt/src/asn.c",line 840,column 9,is_stmt,isa 1
        B         ||$C$L69||            ; [DPU_3_PIPE] |840| 
        ; BRANCH OCCURS {||$C$L69||}     ; [] |840| 
;* --------------------------------------------------------------------------*
||$C$L68||:    
;**	-----------------------g33:
;** 836	-----------------------    id = 1;  // [54]
	.dwpsn	file "C:/wolfssl/ctaocrypt/src/asn.c",line 836,column 9,is_stmt,isa 1
        MOV       V5, #1                ; [DPU_3_PIPE] |836| 
;* --------------------------------------------------------------------------*
||$C$L69||:    
;**	-----------------------g34:
;* 1108	-----------------------    y$99 = inOutIdx+1u;
;* 1108	-----------------------    inOutIdx = y$99;
;* 1108	-----------------------    if ( input[inOutIdx-1] != 4 ) goto g39;
	.dwpsn	file "C:/wolfssl/ctaocrypt/src/asn.c",line 1108,column 9,is_stmt,isa 1
        LDR       A1, [SP, #36]         ; [DPU_3_PIPE] |1108| 
        ADDS      A1, A1, #1            ; [DPU_3_PIPE] |1108| 
        STR       A1, [SP, #36]         ; [DPU_3_PIPE] |1108| 
        LDR       A1, [SP, #36]         ; [DPU_3_PIPE] |1108| 
        ADDS      A1, V4, A1            ; [DPU_3_PIPE] |1108| 
        LDRB      A1, [A1, #-1]         ; [DPU_3_PIPE] |1108| 
        CMP       A1, #4                ; [DPU_3_PIPE] |1108| 
        BNE       ||$C$L71||            ; [DPU_3_PIPE] |1108| 
        ; BRANCHCC OCCURS {||$C$L71||}   ; [] |1108| 
;* --------------------------------------------------------------------------*
;* 1116	-----------------------    if ( GetLength(input, &inOutIdx, &length, sz) < 0 ) goto g39;
	.dwpsn	file "C:/wolfssl/ctaocrypt/src/asn.c",line 1116,column 9,is_stmt,isa 1
        MOV       A1, V4                ; [DPU_3_PIPE] |1116| 
        ADD       A2, SP, #36           ; [DPU_3_PIPE] |1116| 
        ADD       A3, SP, #28           ; [DPU_3_PIPE] |1116| 
        MOV       A4, V7                ; [DPU_3_PIPE] |1116| 
$C$DW$393	.dwtag  DW_TAG_TI_branch
	.dwattr $C$DW$393, DW_AT_low_pc(0x00)
	.dwattr $C$DW$393, DW_AT_name("GetLength")
	.dwattr $C$DW$393, DW_AT_TI_call
        BL        GetLength             ; [DPU_3_PIPE] |1116| 
        ; CALL OCCURS {GetLength }       ; [] |1116| 
        CMP       A1, #0                ; [DPU_3_PIPE] |1116| 
        BMI       ||$C$L71||            ; [DPU_3_PIPE] |1116| 
        ; BRANCHCC OCCURS {||$C$L71||}   ; [] |1116| 
;* --------------------------------------------------------------------------*
;* 1124	-----------------------    memcpy(&cbcIv, inOutIdx+input, (unsigned)length);
;* 1125	-----------------------    inOutIdx += length;
	.dwpsn	file "C:/wolfssl/ctaocrypt/src/asn.c",line 1124,column 9,is_stmt,isa 1
        LDR       A2, [SP, #36]         ; [DPU_3_PIPE] |1124| 
        LDR       A3, [SP, #28]         ; [DPU_3_PIPE] |1124| 
        ADD       A1, SP, #104          ; [DPU_3_PIPE] |1124| 
        ADDS      A2, V4, A2            ; [DPU_3_PIPE] |1124| 
$C$DW$394	.dwtag  DW_TAG_TI_branch
	.dwattr $C$DW$394, DW_AT_low_pc(0x00)
	.dwattr $C$DW$394, DW_AT_name("memcpy")
	.dwattr $C$DW$394, DW_AT_TI_call
        BL        memcpy                ; [DPU_3_PIPE] |1124| 
        ; CALL OCCURS {memcpy }          ; [] |1124| 
	.dwpsn	file "C:/wolfssl/ctaocrypt/src/asn.c",line 1125,column 9,is_stmt,isa 1
        LDR       A2, [SP, #36]         ; [DPU_3_PIPE] |1125| 
