;******************************************************************************
;* TI ARM C/C++ Codegen                                             PC v5.1.6 *
;* Date/Time created: Thu Aug 14 09:06:07 2014                                *
;******************************************************************************
	.compiler_opts --abi=eabi --arm_vmrs_si_workaround=on --code_state=16 --diag_wrap=off --disable_dual_state --embedded_constants=on --endian=little --float_support=FPv4SPD16 --hll_source=on --object_format=elf --silicon_version=7M4 --symdebug:dwarf --symdebug:dwarf_version=3 --unaligned_access=on 
	.thumb

$C$DW$CU	.dwtag  DW_TAG_compile_unit
	.dwattr $C$DW$CU, DW_AT_name("C:/wolfssl/ctaocrypt/src/tfm.c")
	.dwattr $C$DW$CU, DW_AT_producer("TI TI ARM C/C++ Codegen PC v5.1.6 Copyright (c) 1996-2014 Texas Instruments Incorporated")
	.dwattr $C$DW$CU, DW_AT_TI_version(0x01)
	.dwattr $C$DW$CU, DW_AT_comp_dir("C:\Users\khimes\Documents\GitHub\wolfssl-examples\tirtos_ccs_examples\wolfssl_tirtos_benchmark\Debug")

;*****************************************************************************
;* FUNCTION SYNONYMS                                                         *
;*****************************************************************************
	.symalias mp_mulmod, fp_mulmod
	.symalias mp_mod, fp_mod
	.symalias mp_invmod, fp_invmod
	.symalias mp_exptmod, fp_exptmod
	.symalias mp_cmp, fp_cmp
	.symalias mp_cmp_d, fp_cmp_d
	.symalias mp_unsigned_bin_size, fp_unsigned_bin_size
	.symalias mp_count_bits, fp_count_bits
	.symalias mp_leading_bit, fp_leading_bit
	.symalias mp_rshb, fp_rshb
	.symalias mp_sqrmod, fp_sqrmod
	.symalias mp_montgomery_setup, fp_montgomery_setup

$C$DW$1	.dwtag  DW_TAG_subprogram, DW_AT_name("memcpy")
	.dwattr $C$DW$1, DW_AT_TI_symbol_name("memcpy")
	.dwattr $C$DW$1, DW_AT_type(*$C$DW$T$3)
	.dwattr $C$DW$1, DW_AT_declaration
	.dwattr $C$DW$1, DW_AT_external
	.dwattr $C$DW$1, DW_AT_decl_file("c:/ti/ccsv6/tools/compiler/arm_5.1.6/include/string.h")
	.dwattr $C$DW$1, DW_AT_decl_line(0x5e)
	.dwattr $C$DW$1, DW_AT_decl_column(0x16)
$C$DW$2	.dwtag  DW_TAG_formal_parameter
	.dwattr $C$DW$2, DW_AT_type(*$C$DW$T$3)
$C$DW$3	.dwtag  DW_TAG_formal_parameter
	.dwattr $C$DW$3, DW_AT_type(*$C$DW$T$157)
$C$DW$4	.dwtag  DW_TAG_formal_parameter
	.dwattr $C$DW$4, DW_AT_type(*$C$DW$T$155)
	.dwendtag $C$DW$1


$C$DW$5	.dwtag  DW_TAG_subprogram, DW_AT_name("memset")
	.dwattr $C$DW$5, DW_AT_TI_symbol_name("memset")
	.dwattr $C$DW$5, DW_AT_type(*$C$DW$T$3)
	.dwattr $C$DW$5, DW_AT_declaration
	.dwattr $C$DW$5, DW_AT_external
	.dwattr $C$DW$5, DW_AT_decl_file("c:/ti/ccsv6/tools/compiler/arm_5.1.6/include/string.h")
	.dwattr $C$DW$5, DW_AT_decl_line(0x63)
	.dwattr $C$DW$5, DW_AT_decl_column(0x16)
$C$DW$6	.dwtag  DW_TAG_formal_parameter
	.dwattr $C$DW$6, DW_AT_type(*$C$DW$T$3)
$C$DW$7	.dwtag  DW_TAG_formal_parameter
	.dwattr $C$DW$7, DW_AT_type(*$C$DW$T$10)
$C$DW$8	.dwtag  DW_TAG_formal_parameter
	.dwattr $C$DW$8, DW_AT_type(*$C$DW$T$155)
	.dwendtag $C$DW$5

	.sect	".const"
	.align	4
	.elfsym	fp_s_rmap,SYM_SIZE(4)
fp_s_rmap:
	.bits	$C$SL1,32		; fp_s_rmap @ 0

$C$DW$9	.dwtag  DW_TAG_variable, DW_AT_name("fp_s_rmap")
	.dwattr $C$DW$9, DW_AT_TI_symbol_name("fp_s_rmap")
	.dwattr $C$DW$9, DW_AT_type(*$C$DW$T$1229)
	.dwattr $C$DW$9, DW_AT_location[DW_OP_addr fp_s_rmap]
	.dwattr $C$DW$9, DW_AT_decl_file("C:/wolfssl/ctaocrypt/src/tfm.c")
	.dwattr $C$DW$9, DW_AT_decl_line(0x965)
	.dwattr $C$DW$9, DW_AT_decl_column(0x14)
;	c:\ti\ccsv6\tools\compiler\arm_5.1.6\bin\armopt.exe --call_assumptions=3 --gen_opt_info=2 C:\\Users\\khimes\\AppData\\Local\\Temp\\024562 C:\\Users\\khimes\\AppData\\Local\\Temp\\024564 --opt_info_filename=wolfssl/ctaocrypt/src/tfm.nfo 
	.sect	".text:s_fp_sub"
	.clink
	.thumbfunc s_fp_sub
	.thumb
	.global	s_fp_sub

$C$DW$10	.dwtag  DW_TAG_subprogram, DW_AT_name("s_fp_sub")
	.dwattr $C$DW$10, DW_AT_low_pc(s_fp_sub)
	.dwattr $C$DW$10, DW_AT_high_pc(0x00)
	.dwattr $C$DW$10, DW_AT_TI_symbol_name("s_fp_sub")
	.dwattr $C$DW$10, DW_AT_external
	.dwattr $C$DW$10, DW_AT_TI_begin_file("C:/wolfssl/ctaocrypt/src/tfm.c")
	.dwattr $C$DW$10, DW_AT_TI_begin_line(0x9b)
	.dwattr $C$DW$10, DW_AT_TI_begin_column(0x06)
	.dwattr $C$DW$10, DW_AT_decl_file("C:/wolfssl/ctaocrypt/src/tfm.c")
	.dwattr $C$DW$10, DW_AT_decl_line(0x9b)
	.dwattr $C$DW$10, DW_AT_decl_column(0x06)
	.dwattr $C$DW$10, DW_AT_TI_max_frame_size(0x48)
	.dwpsn	file "C:/wolfssl/ctaocrypt/src/tfm.c",line 156,column 1,is_stmt,address s_fp_sub,isa 1

	.dwfde $C$DW$CIE, s_fp_sub
$C$DW$11	.dwtag  DW_TAG_formal_parameter, DW_AT_name("a")
	.dwattr $C$DW$11, DW_AT_TI_symbol_name("a")
	.dwattr $C$DW$11, DW_AT_type(*$C$DW$T$492)
	.dwattr $C$DW$11, DW_AT_location[DW_OP_reg0]
$C$DW$12	.dwtag  DW_TAG_formal_parameter, DW_AT_name("b")
	.dwattr $C$DW$12, DW_AT_TI_symbol_name("b")
	.dwattr $C$DW$12, DW_AT_type(*$C$DW$T$492)
	.dwattr $C$DW$12, DW_AT_location[DW_OP_reg1]
$C$DW$13	.dwtag  DW_TAG_formal_parameter, DW_AT_name("c")
	.dwattr $C$DW$13, DW_AT_TI_symbol_name("c")
	.dwattr $C$DW$13, DW_AT_type(*$C$DW$T$492)
	.dwattr $C$DW$13, DW_AT_location[DW_OP_reg2]

;*****************************************************************************
;* FUNCTION NAME: s_fp_sub                                                   *
;*                                                                           *
;*   Regs Modified     : A1,A2,A4,V1,V2,V3,V4,V5,V6,V7,V8,V9,SP,LR,SR        *
;*   Regs Used         : A1,A2,A3,A4,V1,V2,V3,V4,V5,V6,V7,V8,V9,SP,LR,SR     *
;*   Local Frame Size  : 0 Args + 36 Auto + 36 Save = 72 byte                *
;*****************************************************************************
s_fp_sub:
;* --------------------------------------------------------------------------*
;* A1    assigned to $O$C1
$C$DW$14	.dwtag  DW_TAG_variable, DW_AT_name("$O$C1")
	.dwattr $C$DW$14, DW_AT_TI_symbol_name("$O$C1")
	.dwattr $C$DW$14, DW_AT_type(*$C$DW$T$10)
	.dwattr $C$DW$14, DW_AT_location[DW_OP_reg0]
;* A1    assigned to $O$C2
$C$DW$15	.dwtag  DW_TAG_variable, DW_AT_name("$O$C2")
	.dwattr $C$DW$15, DW_AT_TI_symbol_name("$O$C2")
	.dwattr $C$DW$15, DW_AT_type(*$C$DW$T$10)
	.dwattr $C$DW$15, DW_AT_location[DW_OP_reg0]
;* A1    assigned to $O$C3
$C$DW$16	.dwtag  DW_TAG_variable, DW_AT_name("$O$C3")
	.dwattr $C$DW$16, DW_AT_TI_symbol_name("$O$C3")
	.dwattr $C$DW$16, DW_AT_type(*$C$DW$T$10)
	.dwattr $C$DW$16, DW_AT_location[DW_OP_reg0]
;* A1    assigned to $O$C4
$C$DW$17	.dwtag  DW_TAG_variable, DW_AT_name("$O$C4")
	.dwattr $C$DW$17, DW_AT_TI_symbol_name("$O$C4")
	.dwattr $C$DW$17, DW_AT_type(*$C$DW$T$10)
	.dwattr $C$DW$17, DW_AT_location[DW_OP_reg0]
;* A1    assigned to $O$U28
$C$DW$18	.dwtag  DW_TAG_variable, DW_AT_name("$O$U28")
	.dwattr $C$DW$18, DW_AT_TI_symbol_name("$O$U28")
	.dwattr $C$DW$18, DW_AT_type(*$C$DW$T$1013)
	.dwattr $C$DW$18, DW_AT_location[DW_OP_reg0]
;* A1    assigned to $O$K60
$C$DW$19	.dwtag  DW_TAG_variable, DW_AT_name("$O$K60")
	.dwattr $C$DW$19, DW_AT_TI_symbol_name("$O$K60")
	.dwattr $C$DW$19, DW_AT_type(*$C$DW$T$11)
	.dwattr $C$DW$19, DW_AT_location[DW_OP_reg0]
;* A2    assigned to $O$U78
$C$DW$20	.dwtag  DW_TAG_variable, DW_AT_name("$O$U78")
	.dwattr $C$DW$20, DW_AT_TI_symbol_name("$O$U78")
	.dwattr $C$DW$20, DW_AT_type(*$C$DW$T$1013)
	.dwattr $C$DW$20, DW_AT_location[DW_OP_reg1]
$C$DW$21	.dwtag  DW_TAG_variable, DW_AT_name("a")
	.dwattr $C$DW$21, DW_AT_TI_symbol_name("a")
	.dwattr $C$DW$21, DW_AT_type(*$C$DW$T$493)
	.dwattr $C$DW$21, DW_AT_location[DW_OP_breg13 0]
$C$DW$22	.dwtag  DW_TAG_variable, DW_AT_name("b")
	.dwattr $C$DW$22, DW_AT_TI_symbol_name("b")
	.dwattr $C$DW$22, DW_AT_type(*$C$DW$T$493)
	.dwattr $C$DW$22, DW_AT_location[DW_OP_breg13 4]
;* A3    assigned to c
$C$DW$23	.dwtag  DW_TAG_variable, DW_AT_name("c")
	.dwattr $C$DW$23, DW_AT_TI_symbol_name("c")
	.dwattr $C$DW$23, DW_AT_type(*$C$DW$T$493)
	.dwattr $C$DW$23, DW_AT_location[DW_OP_reg2]
;* V9    assigned to x
$C$DW$24	.dwtag  DW_TAG_variable, DW_AT_name("x")
	.dwattr $C$DW$24, DW_AT_TI_symbol_name("x")
	.dwattr $C$DW$24, DW_AT_type(*$C$DW$T$10)
	.dwattr $C$DW$24, DW_AT_location[DW_OP_reg12]
$C$DW$25	.dwtag  DW_TAG_variable, DW_AT_name("oldbused")
	.dwattr $C$DW$25, DW_AT_TI_symbol_name("oldbused")
	.dwattr $C$DW$25, DW_AT_type(*$C$DW$T$10)
	.dwattr $C$DW$25, DW_AT_location[DW_OP_breg13 8]
$C$DW$26	.dwtag  DW_TAG_variable, DW_AT_name("oldused")
	.dwattr $C$DW$26, DW_AT_TI_symbol_name("oldused")
	.dwattr $C$DW$26, DW_AT_type(*$C$DW$T$10)
	.dwattr $C$DW$26, DW_AT_location[DW_OP_breg13 12]
;* V5    assigned to t
$C$DW$27	.dwtag  DW_TAG_variable, DW_AT_name("t")
	.dwattr $C$DW$27, DW_AT_TI_symbol_name("t")
	.dwattr $C$DW$27, DW_AT_type(*$C$DW$T$1212)
	.dwattr $C$DW$27, DW_AT_location[DW_OP_reg8]
;* A1    assigned to $O$V0
$C$DW$28	.dwtag  DW_TAG_variable, DW_AT_name("$O$V0")
	.dwattr $C$DW$28, DW_AT_TI_symbol_name("$O$V0")
	.dwattr $C$DW$28, DW_AT_type(*$C$DW$T$10)
	.dwattr $C$DW$28, DW_AT_location[DW_OP_reg0]
$C$DW$29	.dwtag  DW_TAG_variable, DW_AT_name("$O$d2")
	.dwattr $C$DW$29, DW_AT_TI_symbol_name("$O$d2")
	.dwattr $C$DW$29, DW_AT_type(*$C$DW$T$10)
	.dwattr $C$DW$29, DW_AT_location[DW_OP_breg13 16]
;* A4    assigned to $O$d4
$C$DW$30	.dwtag  DW_TAG_variable, DW_AT_name("$O$d4")
	.dwattr $C$DW$30, DW_AT_TI_symbol_name("$O$d4")
	.dwattr $C$DW$30, DW_AT_type(*$C$DW$T$10)
	.dwattr $C$DW$30, DW_AT_location[DW_OP_reg3]
;* A2    assigned to $O$d3
$C$DW$31	.dwtag  DW_TAG_variable, DW_AT_name("$O$d3")
	.dwattr $C$DW$31, DW_AT_TI_symbol_name("$O$d3")
	.dwattr $C$DW$31, DW_AT_type(*$C$DW$T$10)
	.dwattr $C$DW$31, DW_AT_location[DW_OP_reg1]
;* A4    assigned to $O$d6
$C$DW$32	.dwtag  DW_TAG_variable, DW_AT_name("$O$d6")
	.dwattr $C$DW$32, DW_AT_TI_symbol_name("$O$d6")
	.dwattr $C$DW$32, DW_AT_type(*$C$DW$T$10)
	.dwattr $C$DW$32, DW_AT_location[DW_OP_reg3]
;* V2    assigned to $O$d5
$C$DW$33	.dwtag  DW_TAG_variable, DW_AT_name("$O$d5")
	.dwattr $C$DW$33, DW_AT_TI_symbol_name("$O$d5")
	.dwattr $C$DW$33, DW_AT_type(*$C$DW$T$10)
	.dwattr $C$DW$33, DW_AT_location[DW_OP_reg5]
;* LR    assigned to $O$U25
$C$DW$34	.dwtag  DW_TAG_variable, DW_AT_name("$O$U25")
	.dwattr $C$DW$34, DW_AT_TI_symbol_name("$O$U25")
	.dwattr $C$DW$34, DW_AT_type(*$C$DW$T$1013)
	.dwattr $C$DW$34, DW_AT_location[DW_OP_reg14]
;* V4    assigned to $O$U25
$C$DW$35	.dwtag  DW_TAG_variable, DW_AT_name("$O$U25")
	.dwattr $C$DW$35, DW_AT_TI_symbol_name("$O$U25")
	.dwattr $C$DW$35, DW_AT_type(*$C$DW$T$1013)
	.dwattr $C$DW$35, DW_AT_location[DW_OP_reg7]
;* A2    assigned to $O$U34
$C$DW$36	.dwtag  DW_TAG_variable, DW_AT_name("$O$U34")
	.dwattr $C$DW$36, DW_AT_TI_symbol_name("$O$U34")
	.dwattr $C$DW$36, DW_AT_type(*$C$DW$T$1013)
	.dwattr $C$DW$36, DW_AT_location[DW_OP_reg1]
;* A2    assigned to $O$U34
$C$DW$37	.dwtag  DW_TAG_variable, DW_AT_name("$O$U34")
	.dwattr $C$DW$37, DW_AT_TI_symbol_name("$O$U34")
	.dwattr $C$DW$37, DW_AT_type(*$C$DW$T$1013)
	.dwattr $C$DW$37, DW_AT_location[DW_OP_reg1]
;* V1    assigned to $O$U34
$C$DW$38	.dwtag  DW_TAG_variable, DW_AT_name("$O$U34")
	.dwattr $C$DW$38, DW_AT_TI_symbol_name("$O$U34")
	.dwattr $C$DW$38, DW_AT_type(*$C$DW$T$1013)
	.dwattr $C$DW$38, DW_AT_location[DW_OP_reg4]
	.dwcfi	cfa_offset, 0
;** 160	-----------------------    oldused = (*c).used;
;** 161	-----------------------    oldbused = (*b).used;
;** 162	-----------------------    (*c).used = (*a).used;
;** 163	-----------------------    t = 0uLL;
;** 164	-----------------------    x = 0;
;** 164	-----------------------    if ( oldbused <= 0 ) goto g7;
        PUSH      {V1, V2, V3, V4, V5, V6, V7, V8, LR} ; [DPU_3_PIPE] 
	.dwcfi	cfa_offset, 36
	.dwcfi	save_reg_to_mem, 14, -4
	.dwcfi	save_reg_to_mem, 11, -8
	.dwcfi	save_reg_to_mem, 10, -12
	.dwcfi	save_reg_to_mem, 9, -16
	.dwcfi	save_reg_to_mem, 8, -20
	.dwcfi	save_reg_to_mem, 7, -24
	.dwcfi	save_reg_to_mem, 6, -28
	.dwcfi	save_reg_to_mem, 5, -32
	.dwcfi	save_reg_to_mem, 4, -36
	.dwpsn	file "C:/wolfssl/ctaocrypt/src/tfm.c",line 161,column 3,is_stmt,isa 1
        LDR       A4, [A2, #544]        ; [DPU_3_PIPE] |161| 
	.dwpsn	file "C:/wolfssl/ctaocrypt/src/tfm.c",line 160,column 3,is_stmt,isa 1
        LDR       V1, [A3, #544]        ; [DPU_3_PIPE] |160| 
	.dwpsn	file "C:/wolfssl/ctaocrypt/src/tfm.c",line 162,column 3,is_stmt,isa 1
        LDR       V2, [A1, #544]        ; [DPU_3_PIPE] |162| 
        SUB       SP, SP, #36           ; [DPU_3_PIPE] 
	.dwcfi	cfa_offset, 72
	.dwpsn	file "C:/wolfssl/ctaocrypt/src/tfm.c",line 156,column 1,is_stmt,isa 1
        STR       A1, [SP, #0]          ; [DPU_3_PIPE] |156| 
	.dwpsn	file "C:/wolfssl/ctaocrypt/src/tfm.c",line 163,column 3,is_stmt,isa 1
        MOV       V5, #0                ; [DPU_3_PIPE] |163| 
	.dwpsn	file "C:/wolfssl/ctaocrypt/src/tfm.c",line 156,column 1,is_stmt,isa 1
        STR       A2, [SP, #4]          ; [DPU_3_PIPE] |156| 
	.dwpsn	file "C:/wolfssl/ctaocrypt/src/tfm.c",line 163,column 3,is_stmt,isa 1
        MOV       V6, #0                ; [DPU_3_PIPE] |163| 
	.dwpsn	file "C:/wolfssl/ctaocrypt/src/tfm.c",line 161,column 3,is_stmt,isa 1
        STR       A4, [SP, #8]          ; [DPU_3_PIPE] |161| 
	.dwpsn	file "C:/wolfssl/ctaocrypt/src/tfm.c",line 163,column 3,is_stmt,isa 1
        MOV       V9, V5                ; [DPU_3_PIPE] |163| 
	.dwpsn	file "C:/wolfssl/ctaocrypt/src/tfm.c",line 160,column 3,is_stmt,isa 1
        STR       V1, [SP, #12]         ; [DPU_3_PIPE] |160| 
	.dwpsn	file "C:/wolfssl/ctaocrypt/src/tfm.c",line 164,column 15,is_stmt,isa 1
        CMP       A4, #0                ; [DPU_3_PIPE] |164| 
	.dwpsn	file "C:/wolfssl/ctaocrypt/src/tfm.c",line 162,column 3,is_stmt,isa 1
        STR       V2, [A3, #544]        ; [DPU_3_PIPE] |162| 
	.dwpsn	file "C:/wolfssl/ctaocrypt/src/tfm.c",line 164,column 15,is_stmt,isa 1
        BLE       ||$C$L3||             ; [DPU_3_PIPE] |164| 
        ; BRANCHCC OCCURS {||$C$L3||}    ; [] |164| 
;* --------------------------------------------------------------------------*
;** 165	-----------------------    d$2 = oldbused>>1;
;** 165	-----------------------    if ( oldbused < 2 ) goto g5;
	.dwpsn	file "C:/wolfssl/ctaocrypt/src/tfm.c",line 165,column 6,is_stmt,isa 1
        LDR       LR, [SP, #8]          ; [DPU_3_PIPE] |165| 
        ASRS      A4, A4, #1            ; [DPU_3_PIPE] |165| 
        STR       A4, [SP, #16]         ; [DPU_3_PIPE] |165| 
        CMP       LR, #2                ; [DPU_3_PIPE] |165| 
        BLT       ||$C$L2||             ; [DPU_3_PIPE] |165| 
        ; BRANCHCC OCCURS {||$C$L2||}    ; [] |165| 
;* --------------------------------------------------------------------------*
;**  	-----------------------    U$25 = (unsigned *)a;
;**  	-----------------------    U$28 = (unsigned *)b;
;**  	-----------------------    U$34 = (unsigned *)c;
;**  	-----------------------    #pragma MUST_ITERATE(1, 68, 1)
;**  	-----------------------    // LOOP BELOW UNROLLED BY FACTOR(2)
;**  	-----------------------    #pragma LOOP_FLAGS(4102u)
        MOV       LR, A1                ; [DPU_3_PIPE] 
        MOV       V8, V6                ; [DPU_3_PIPE] 
        MOV       A4, V6                ; [DPU_3_PIPE] 
        MOV       A1, A2                ; [DPU_3_PIPE] 
	.dwpsn	file "C:/wolfssl/ctaocrypt/src/tfm.c",line 167,column 6,is_stmt,isa 1
        MOV       V7, V8                ; [DPU_3_PIPE] |167| 
        STR       A4, [SP, #24]         ; [DPU_3_PIPE] 
        MOV       V3, V8                ; [DPU_3_PIPE] |167| 
        STR       A4, [SP, #32]         ; [DPU_3_PIPE] |167| 
        MOV       V4, V8                ; [DPU_3_PIPE] 
        STR       V7, [SP, #20]         ; [DPU_3_PIPE] |167| 
        MOV       A2, A3                ; [DPU_3_PIPE] 
        STR       V3, [SP, #28]         ; [DPU_3_PIPE] |167| 
;* --------------------------------------------------------------------------*
;*   BEGIN LOOP ||$C$L1||
;*
;*   Loop source line                : 164
;*   Loop closing brace source line  : 168
;*   Loop Unroll Multiple            : 2x
;*   Known Minimum Trip Count        : 1
;*   Known Maximum Trip Count        : 68
;*   Known Max Trip Count Factor     : 1
;* --------------------------------------------------------------------------*
||$C$L1||:    
;**	-----------------------g4:
;** 165	-----------------------    t = (unsigned long long)*U$25++-(unsigned long long)*U$28++-t;
;** 166	-----------------------    *U$34++ = t;
;** 167	-----------------------    t = t>>32&1uLL;
;** 165	-----------------------    t = (unsigned long long)*U$25++-(unsigned long long)*U$28++-t;
;** 166	-----------------------    *U$34++ = t;
;** 167	-----------------------    t = t>>32&1uLL;
;** 164	-----------------------    x += 2;
;** 164	-----------------------    if ( --d$2 ) goto g4;
	.dwpsn	file "C:/wolfssl/ctaocrypt/src/tfm.c",line 165,column 6,is_stmt,isa 1
        LDR       V7, [A1], #4          ; [DPU_3_PIPE] |165| 
        LDR       V1, [LR], #4          ; [DPU_3_PIPE] |165| 
        MOV       V2, V8                ; [DPU_3_PIPE] |165| 
        SUBS      V1, V1, V7            ; [DPU_3_PIPE] |165| 
        SBCS      V2, V2, V8            ; [DPU_3_PIPE] |165| 
        SUBS      V1, V1, V5            ; [DPU_3_PIPE] |165| 
	.dwpsn	file "C:/wolfssl/ctaocrypt/src/tfm.c",line 166,column 6,is_stmt,isa 1
        STR       V1, [A2], #4          ; [DPU_3_PIPE] |166| 
	.dwpsn	file "C:/wolfssl/ctaocrypt/src/tfm.c",line 165,column 6,is_stmt,isa 1
        LDR       A4, [LR], #4          ; [DPU_3_PIPE] |165| 
        LDR       V3, [A1], #4          ; [DPU_3_PIPE] |165| 
        MOV       V7, V8                ; [DPU_3_PIPE] |165| 
        SBCS      V2, V2, V6            ; [DPU_3_PIPE] |165| 
	.dwpsn	file "C:/wolfssl/ctaocrypt/src/tfm.c",line 167,column 6,is_stmt,isa 1
        MOVS      V1, V2                ; [DPU_3_PIPE] |167| 
	.dwpsn	file "C:/wolfssl/ctaocrypt/src/tfm.c",line 165,column 6,is_stmt,isa 1
        SUBS      A4, A4, V3            ; [DPU_3_PIPE] |165| 
	.dwpsn	file "C:/wolfssl/ctaocrypt/src/tfm.c",line 167,column 6,is_stmt,isa 1
        MOV       V3, #1                ; [DPU_3_PIPE] |167| 
        AND       V2, V3, V1            ; [DPU_3_PIPE] |167| 
	.dwpsn	file "C:/wolfssl/ctaocrypt/src/tfm.c",line 165,column 6,is_stmt,isa 1
        SBCS      V1, V7, V4            ; [DPU_3_PIPE] |165| 
        LDR       V7, [SP, #16]         ; [DPU_3_PIPE] |165| 
        SUBS      A4, A4, V2            ; [DPU_3_PIPE] |165| 
	.dwpsn	file "C:/wolfssl/ctaocrypt/src/tfm.c",line 164,column 15,is_stmt,isa 1
        SUB       V2, V7, #1            ; [DPU_3_PIPE] |164| 
        STR       V2, [SP, #16]         ; [DPU_3_PIPE] |164| 
	.dwpsn	file "C:/wolfssl/ctaocrypt/src/tfm.c",line 166,column 6,is_stmt,isa 1
        STR       A4, [A2], #4          ; [DPU_3_PIPE] |166| 
        LDR       A4, [SP, #16]         ; [DPU_3_PIPE] |166| 
	.dwpsn	file "C:/wolfssl/ctaocrypt/src/tfm.c",line 164,column 29,is_stmt,isa 1
        ADD       V9, V9, #2            ; [DPU_3_PIPE] |164| 
	.dwpsn	file "C:/wolfssl/ctaocrypt/src/tfm.c",line 165,column 6,is_stmt,isa 1
        MOV       V5, V8                ; [DPU_3_PIPE] |165| 
        MOV       V6, V8                ; [DPU_3_PIPE] |165| 
	.dwpsn	file "C:/wolfssl/ctaocrypt/src/tfm.c",line 167,column 6,is_stmt,isa 1
        MOV       V3, V8                ; [DPU_3_PIPE] |167| 
        AND       V3, V3, V5            ; [DPU_3_PIPE] |167| 
	.dwpsn	file "C:/wolfssl/ctaocrypt/src/tfm.c",line 165,column 6,is_stmt,isa 1
        SBCS      V1, V1, V3            ; [DPU_3_PIPE] |165| 
	.dwpsn	file "C:/wolfssl/ctaocrypt/src/tfm.c",line 167,column 6,is_stmt,isa 1
        MOV       V7, #1                ; [DPU_3_PIPE] |167| 
	.dwpsn	file "C:/wolfssl/ctaocrypt/src/tfm.c",line 164,column 15,is_stmt,isa 1
        MOV       V2, V8                ; [DPU_3_PIPE] |164| 
	.dwpsn	file "C:/wolfssl/ctaocrypt/src/tfm.c",line 167,column 6,is_stmt,isa 1
        MOVS      V1, V1                ; [DPU_3_PIPE] |167| 
        AND       V6, V6, V2            ; [DPU_3_PIPE] |167| 
        AND       V5, V7, V1            ; [DPU_3_PIPE] |167| 
	.dwpsn	file "C:/wolfssl/ctaocrypt/src/tfm.c",line 164,column 15,is_stmt,isa 1
        CMP       A4, #0                ; [DPU_3_PIPE] |164| 
        BNE       ||$C$L1||             ; [DPU_3_PIPE] |164| 
        ; BRANCHCC OCCURS {||$C$L1||}    ; [] |164| 
;* --------------------------------------------------------------------------*
||$C$L2||:    
;**	-----------------------g5:
;**  	-----------------------    if ( !(oldbused&1) ) goto g7;
        LDR       A4, [SP, #8]          ; [DPU_3_PIPE] 
        LSRS      A4, A4, #1            ; [DPU_3_PIPE] 
        BCC       ||$C$L3||             ; [DPU_3_PIPE] 
        ; BRANCHCC OCCURS {||$C$L3||}    ; [] 
;* --------------------------------------------------------------------------*
; Peeled loop iterations for unrolled loop:
;** 165	-----------------------    C$4 = x*4;
;** 165	-----------------------    t = (unsigned long long)*(C$4+(unsigned *)a)-(unsigned long long)*(C$4+(unsigned *)b)-t;
;** 166	-----------------------    *(C$4+(unsigned *)c) = t;
;** 167	-----------------------    t = t>>32&1uLL;
;** 164	-----------------------    ++x;
	.dwpsn	file "C:/wolfssl/ctaocrypt/src/tfm.c",line 165,column 6,is_stmt,isa 1
        LDR       A2, [SP, #4]          ; [DPU_3_PIPE] |165| 
        LDR       A1, [SP, #0]          ; [DPU_3_PIPE] |165| 
        LSL       V4, V9, #2            ; [DPU_3_PIPE] |165| 
        LDR       V2, [A2, +V4]         ; [DPU_3_PIPE] |165| 
        LDR       A4, [A1, +V4]         ; [DPU_3_PIPE] |165| 
        MOVS      V3, #0                ; [DPU_3_PIPE] |165| 
        MOV       V1, V3                ; [DPU_3_PIPE] |165| 
	.dwpsn	file "C:/wolfssl/ctaocrypt/src/tfm.c",line 167,column 6,is_stmt,isa 1
        MOV       LR, #1                ; [DPU_3_PIPE] |167| 
	.dwpsn	file "C:/wolfssl/ctaocrypt/src/tfm.c",line 164,column 29,is_stmt,isa 1
        ADD       V9, V9, #1            ; [DPU_3_PIPE] |164| 
	.dwpsn	file "C:/wolfssl/ctaocrypt/src/tfm.c",line 165,column 6,is_stmt,isa 1
        SUBS      A4, A4, V2            ; [DPU_3_PIPE] |165| 
        SBCS      V1, V1, V3            ; [DPU_3_PIPE] |165| 
        SUBS      A4, A4, V5            ; [DPU_3_PIPE] |165| 
        SBCS      V1, V1, V6            ; [DPU_3_PIPE] |165| 
	.dwpsn	file "C:/wolfssl/ctaocrypt/src/tfm.c",line 166,column 6,is_stmt,isa 1
        STR       A4, [A3, +V4]         ; [DPU_3_PIPE] |166| 
	.dwpsn	file "C:/wolfssl/ctaocrypt/src/tfm.c",line 167,column 6,is_stmt,isa 1
        AND       V6, V3, V3            ; [DPU_3_PIPE] |167| 
        MOVS      A2, V1                ; [DPU_3_PIPE] |167| 
        AND       V5, LR, A2            ; [DPU_3_PIPE] |167| 
;* --------------------------------------------------------------------------*
||$C$L3||:    
;**	-----------------------g7:
;** 169	-----------------------    if ( x >= (*a).used ) goto g10;
        LDR       A1, [SP, #0]          ; [DPU_3_PIPE] 
	.dwpsn	file "C:/wolfssl/ctaocrypt/src/tfm.c",line 169,column 10,is_stmt,isa 1
        LDR       A2, [A1, #544]        ; [DPU_3_PIPE] |169| 
        CMP       A2, V9                ; [DPU_3_PIPE] |169| 
        BLE       ||$C$L5||             ; [DPU_3_PIPE] |169| 
        ; BRANCHCC OCCURS {||$C$L5||}    ; [] |169| 
;* --------------------------------------------------------------------------*
;**  	-----------------------    C$3 = x*4;
;**  	-----------------------    U$25 = (unsigned *)a+C$3;
;**  	-----------------------    U$34 = (unsigned *)c+C$3;
;**  	-----------------------    #pragma LOOP_FLAGS(4096u)
        LSL       A2, V9, #2            ; [DPU_3_PIPE] 
	.dwpsn	file "C:/wolfssl/ctaocrypt/src/tfm.c",line 172,column 6,is_stmt,isa 1
        MOVS      V2, #0                ; [DPU_3_PIPE] |172| 
        MOVS      V3, #1                ; [DPU_3_PIPE] |172| 
        ADDS      V4, A2, A1            ; [DPU_3_PIPE] 
        ADDS      A2, A2, A3            ; [DPU_3_PIPE] 
;* --------------------------------------------------------------------------*
;*   BEGIN LOOP ||$C$L4||
;*
;*   Loop source line                : 169
;*   Loop closing brace source line  : 173
;*   Known Minimum Trip Count        : 1
;*   Known Maximum Trip Count        : 4294967295
;*   Known Max Trip Count Factor     : 1
;* --------------------------------------------------------------------------*
||$C$L4||:    
;**	-----------------------g9:
;** 170	-----------------------    t = (unsigned long long)*U$25++-t;
;** 171	-----------------------    *U$34++ = t;
;** 172	-----------------------    t = t>>32&1uLL;
;** 169	-----------------------    if ( (*a).used > (++x) ) goto g9;
	.dwpsn	file "C:/wolfssl/ctaocrypt/src/tfm.c",line 170,column 6,is_stmt,isa 1
        LDR       A4, [V4], #4          ; [DPU_3_PIPE] |170| 
        SUBS      A4, A4, V5            ; [DPU_3_PIPE] |170| 
	.dwpsn	file "C:/wolfssl/ctaocrypt/src/tfm.c",line 171,column 6,is_stmt,isa 1
        STR       A4, [A2], #4          ; [DPU_3_PIPE] |171| 
	.dwpsn	file "C:/wolfssl/ctaocrypt/src/tfm.c",line 169,column 10,is_stmt,isa 1
        LDR       A4, [A1, #544]        ; [DPU_3_PIPE] |169| 
	.dwpsn	file "C:/wolfssl/ctaocrypt/src/tfm.c",line 170,column 6,is_stmt,isa 1
        MOV       V1, V2                ; [DPU_3_PIPE] |170| 
	.dwpsn	file "C:/wolfssl/ctaocrypt/src/tfm.c",line 169,column 10,is_stmt,isa 1
        ADD       V9, V9, #1            ; [DPU_3_PIPE] |169| 
	.dwpsn	file "C:/wolfssl/ctaocrypt/src/tfm.c",line 170,column 6,is_stmt,isa 1
        SBCS      V1, V1, V6            ; [DPU_3_PIPE] |170| 
	.dwpsn	file "C:/wolfssl/ctaocrypt/src/tfm.c",line 172,column 6,is_stmt,isa 1
        MOVS      V1, V1                ; [DPU_3_PIPE] |172| 
        AND       V6, V2, V2            ; [DPU_3_PIPE] |172| 
        AND       V5, V3, V1            ; [DPU_3_PIPE] |172| 
	.dwpsn	file "C:/wolfssl/ctaocrypt/src/tfm.c",line 169,column 10,is_stmt,isa 1
        CMP       V9, A4                ; [DPU_3_PIPE] |169| 
        BLT       ||$C$L4||             ; [DPU_3_PIPE] |169| 
        ; BRANCHCC OCCURS {||$C$L4||}    ; [] |169| 
;* --------------------------------------------------------------------------*
||$C$L5||:    
;**	-----------------------g10:
;** 174	-----------------------    if ( x >= oldused ) goto g16;
        LDR       A1, [SP, #12]         ; [DPU_3_PIPE] 
	.dwpsn	file "C:/wolfssl/ctaocrypt/src/tfm.c",line 174,column 10,is_stmt,isa 1
        CMP       A1, V9                ; [DPU_3_PIPE] |174| 
        BLE       ||$C$L8||             ; [DPU_3_PIPE] |174| 
        ; BRANCHCC OCCURS {||$C$L8||}    ; [] |174| 
;* --------------------------------------------------------------------------*
;** 175	-----------------------    C$2 = oldused-x;
;** 175	-----------------------    d$4 = C$2>>1;
;** 175	-----------------------    d$3 = (oldused^x)&1;
;** 175	-----------------------    if ( C$2 < 2 ) goto g14;
	.dwpsn	file "C:/wolfssl/ctaocrypt/src/tfm.c",line 175,column 6,is_stmt,isa 1
        SUB       V1, A1, V9            ; [DPU_3_PIPE] |175| 
        EOR       A2, V9, A1            ; [DPU_3_PIPE] |175| 
        CMP       V1, #2                ; [DPU_3_PIPE] |175| 
        ASR       A4, V1, #1            ; [DPU_3_PIPE] |175| 
        AND       A2, A2, #1            ; [DPU_3_PIPE] |175| 
        BLT       ||$C$L7||             ; [DPU_3_PIPE] |175| 
        ; BRANCHCC OCCURS {||$C$L7||}    ; [] |175| 
;* --------------------------------------------------------------------------*
;**  	-----------------------    U$34 = x*4+(unsigned *)c;
;**  	-----------------------    K$60 = 0u;
;**  	-----------------------    #pragma MUST_ITERATE(1, 68, 1)
;**  	-----------------------    // LOOP BELOW UNROLLED BY FACTOR(2)
;**  	-----------------------    #pragma LOOP_FLAGS(4102u)
        ADD       V1, A3, V9, LSL #2    ; [DPU_3_PIPE] 
	.dwpsn	file "C:/wolfssl/ctaocrypt/src/tfm.c",line 163,column 3,is_stmt,isa 1
        MOVS      A1, #0                ; [DPU_3_PIPE] |163| 
;* --------------------------------------------------------------------------*
;*   BEGIN LOOP ||$C$L6||
;*
;*   Loop source line                : 174
;*   Loop closing brace source line  : 176
;*   Loop Unroll Multiple            : 2x
;*   Known Minimum Trip Count        : 1
;*   Known Maximum Trip Count        : 68
;*   Known Max Trip Count Factor     : 1
;* --------------------------------------------------------------------------*
||$C$L6||:    
;**	-----------------------g13:
;** 175	-----------------------    *U$34++ = K$60;
;** 175	-----------------------    *U$34++ = K$60;
;** 175	-----------------------    x += 2;
;** 174	-----------------------    if ( --d$4 ) goto g13;
	.dwpsn	file "C:/wolfssl/ctaocrypt/src/tfm.c",line 175,column 6,is_stmt,isa 1
        STR       A1, [V1], #4          ; [DPU_3_PIPE] |175| 
	.dwpsn	file "C:/wolfssl/ctaocrypt/src/tfm.c",line 174,column 10,is_stmt,isa 1
        SUBS      A4, A4, #1            ; [DPU_3_PIPE] |174| 
	.dwpsn	file "C:/wolfssl/ctaocrypt/src/tfm.c",line 175,column 6,is_stmt,isa 1
        ADD       V9, V9, #2            ; [DPU_3_PIPE] |175| 
        STR       A1, [V1], #4          ; [DPU_3_PIPE] |175| 
	.dwpsn	file "C:/wolfssl/ctaocrypt/src/tfm.c",line 174,column 10,is_stmt,isa 1
        BNE       ||$C$L6||             ; [DPU_3_PIPE] |174| 
        ; BRANCHCC OCCURS {||$C$L6||}    ; [] |174| 
;* --------------------------------------------------------------------------*
||$C$L7||:    
;**	-----------------------g14:
;**  	-----------------------    if ( d$3 <= 0 ) goto g16;
; Peeled loop iterations for unrolled loop:
;** 175	-----------------------    *(x*4+(unsigned *)c) = 0u;
        CMP       A2, #0                ; [DPU_3_PIPE] 
        ITT       GT                    ; [DPU_3_PIPE] 
	.dwpsn	file "C:/wolfssl/ctaocrypt/src/tfm.c",line 163,column 3,is_stmt,isa 1
        MOVGT     A1, #0                ; [DPU_3_PIPE] |163| 
	.dwpsn	file "C:/wolfssl/ctaocrypt/src/tfm.c",line 175,column 6,is_stmt,isa 1
        STRGT     A1, [A3, +V9, LSL #2] ; [DPU_3_PIPE] |175| 
;* --------------------------------------------------------------------------*
||$C$L8||:    
;**	-----------------------g16:
;** 177	-----------------------    if ( !(C$1 = (*c).used) ) goto g26;
	.dwpsn	file "C:/wolfssl/ctaocrypt/src/tfm.c",line 177,column 3,is_stmt,isa 1
        LDR       A1, [A3, #544]        ; [DPU_3_PIPE] |177| 
        CBZ       A1, ||$C$L12||        ; [] 
        ; BRANCHCC OCCURS {||$C$L12||}   ; [] |177| 
;* --------------------------------------------------------------------------*
;**  	-----------------------    V$0 = C$1;
;** 177	-----------------------    d$6 = V$0>>1;
;** 177	-----------------------    d$5 = V$0&1;
;** 177	-----------------------    if ( V$0 < 2 ) goto g22;
        CMP       A1, #2                ; [DPU_3_PIPE] |177| 
        ASR       A4, A1, #1            ; [DPU_3_PIPE] |177| 
        AND       V2, A1, #1            ; [DPU_3_PIPE] |177| 
        BLT       ||$C$L10||            ; [DPU_3_PIPE] |177| 
        ; BRANCHCC OCCURS {||$C$L10||}   ; [] |177| 
;* --------------------------------------------------------------------------*
;**  	-----------------------    U$78 = V$0*4+(unsigned *)c;
;**  	-----------------------    #pragma MUST_ITERATE(1, 1073741823, 1)
;**  	-----------------------    // LOOP BELOW UNROLLED BY FACTOR(2)
;**  	-----------------------    #pragma LOOP_FLAGS(4358u)
        ADD       A2, A3, A1, LSL #2    ; [DPU_3_PIPE] 
;* --------------------------------------------------------------------------*
;*   BEGIN LOOP ||$C$L9||
;*
;*   Loop source line                : 177
;*   Loop closing brace source line  : 177
;*   Loop Unroll Multiple            : 2x
;*   Known Minimum Trip Count        : 1
;*   Known Maximum Trip Count        : 1073741823
;*   Known Max Trip Count Factor     : 1
;* --------------------------------------------------------------------------*
||$C$L9||:    
;**	-----------------------g19:
;** 177	-----------------------    if ( *(--U$78) ) goto g25;
        LDR       V1, [A2, #-4]!        ; [DPU_3_PIPE] |177| 
        CBNZ      V1, ||$C$L11||        ; [] 
        ; BRANCHCC OCCURS {||$C$L11||}   ; [] |177| 
;* --------------------------------------------------------------------------*
;** 177	-----------------------    (*c).used = --V$0;
;** 177	-----------------------    if ( *(--U$78) ) goto g25;
        SUBS      A1, A1, #1            ; [DPU_3_PIPE] |177| 
        STR       A1, [A3, #544]        ; [DPU_3_PIPE] |177| 
        LDR       V1, [A2, #-4]!        ; [DPU_3_PIPE] |177| 
        CBNZ      V1, ||$C$L11||        ; [] 
        ; BRANCHCC OCCURS {||$C$L11||}   ; [] |177| 
;* --------------------------------------------------------------------------*
;** 177	-----------------------    (*c).used = --V$0;
;** 177	-----------------------    if ( --d$6 ) goto g19;
        SUBS      A1, A1, #1            ; [DPU_3_PIPE] |177| 
        SUBS      A4, A4, #1            ; [DPU_3_PIPE] |177| 
        STR       A1, [A3, #544]        ; [DPU_3_PIPE] |177| 
        BNE       ||$C$L9||             ; [DPU_3_PIPE] |177| 
        ; BRANCHCC OCCURS {||$C$L9||}    ; [] |177| 
;* --------------------------------------------------------------------------*
||$C$L10||:    
;**	-----------------------g22:
;**  	-----------------------    if ( d$5 <= 0 ) goto g26;
        CMP       V2, #0                ; [DPU_3_PIPE] 
        BLE       ||$C$L12||            ; [DPU_3_PIPE] 
        ; BRANCHCC OCCURS {||$C$L12||}   ; [] 
;* --------------------------------------------------------------------------*
; Peeled loop iterations for unrolled loop:
;** 177	-----------------------    if ( *(V$0*4+(unsigned *)c-4) ) goto g25;
;** 177	-----------------------    (*c).used = --V$0;
;**  	-----------------------    goto g26;
        ADD       A2, A3, A1, LSL #2    ; [DPU_3_PIPE] |177| 
        LDR       A2, [A2, #-4]         ; [DPU_3_PIPE] |177| 
        CMP       A2, #0                ; [DPU_3_PIPE] |177| 
        ITT       EQ                    ; [DPU_3_PIPE] 
        SUBEQ     A1, A1, #1            ; [DPU_3_PIPE] |177| 
        STREQ     A1, [A3, #544]        ; [DPU_3_PIPE] |177| 
        BEQ       ||$C$L12||            ; [DPU_3_PIPE] 
        ; BRANCHCC OCCURS {||$C$L12||}   ; [] 
;* --------------------------------------------------------------------------*
||$C$L11||:    
;**	-----------------------g25:
;** 177	-----------------------    if ( (*c).used ) goto g27;
        LDR       A1, [A3, #544]        ; [DPU_3_PIPE] |177| 
        CBNZ      A1, ||$C$L13||        ; [] 
        ; BRANCHCC OCCURS {||$C$L13||}   ; [] |177| 
;* --------------------------------------------------------------------------*
||$C$L12||:    
;**	-----------------------g26:
;** 177	-----------------------    (*c).sign = 0;
;**	-----------------------g27:
;**  	-----------------------    return;
	.dwpsn	file "C:/wolfssl/ctaocrypt/src/tfm.c",line 163,column 3,is_stmt,isa 1
        MOVS      A1, #0                ; [DPU_3_PIPE] |163| 
	.dwpsn	file "C:/wolfssl/ctaocrypt/src/tfm.c",line 177,column 3,is_stmt,isa 1
        STR       A1, [A3, #548]        ; [DPU_3_PIPE] |177| 
;* --------------------------------------------------------------------------*
||$C$L13||:    
        ADD       SP, SP, #36           ; [DPU_3_PIPE] 
	.dwcfi	cfa_offset, 36
$C$DW$39	.dwtag  DW_TAG_TI_branch
	.dwattr $C$DW$39, DW_AT_low_pc(0x00)
	.dwattr $C$DW$39, DW_AT_TI_return
        POP       {V1, V2, V3, V4, V5, V6, V7, V8, PC} ; [DPU_3_PIPE] 
	.dwcfi	cfa_offset, 0
        ; BRANCH OCCURS                  ; [] 
	.dwattr $C$DW$10, DW_AT_TI_end_file("C:/wolfssl/ctaocrypt/src/tfm.c")
	.dwattr $C$DW$10, DW_AT_TI_end_line(0xb2)
	.dwattr $C$DW$10, DW_AT_TI_end_column(0x01)
	.dwendentry
	.dwendtag $C$DW$10

	.sect	".text:s_fp_add"
	.clink
	.thumbfunc s_fp_add
	.thumb
	.global	s_fp_add

$C$DW$40	.dwtag  DW_TAG_subprogram, DW_AT_name("s_fp_add")
	.dwattr $C$DW$40, DW_AT_low_pc(s_fp_add)
	.dwattr $C$DW$40, DW_AT_high_pc(0x00)
	.dwattr $C$DW$40, DW_AT_TI_symbol_name("s_fp_add")
	.dwattr $C$DW$40, DW_AT_external
	.dwattr $C$DW$40, DW_AT_TI_begin_file("C:/wolfssl/ctaocrypt/src/tfm.c")
	.dwattr $C$DW$40, DW_AT_TI_begin_line(0x5c)
	.dwattr $C$DW$40, DW_AT_TI_begin_column(0x06)
	.dwattr $C$DW$40, DW_AT_decl_file("C:/wolfssl/ctaocrypt/src/tfm.c")
	.dwattr $C$DW$40, DW_AT_decl_line(0x5c)
	.dwattr $C$DW$40, DW_AT_decl_column(0x06)
	.dwattr $C$DW$40, DW_AT_TI_max_frame_size(0x30)
	.dwpsn	file "C:/wolfssl/ctaocrypt/src/tfm.c",line 93,column 1,is_stmt,address s_fp_add,isa 1

	.dwfde $C$DW$CIE, s_fp_add
$C$DW$41	.dwtag  DW_TAG_formal_parameter, DW_AT_name("a")
	.dwattr $C$DW$41, DW_AT_TI_symbol_name("a")
	.dwattr $C$DW$41, DW_AT_type(*$C$DW$T$492)
	.dwattr $C$DW$41, DW_AT_location[DW_OP_reg0]
$C$DW$42	.dwtag  DW_TAG_formal_parameter, DW_AT_name("b")
	.dwattr $C$DW$42, DW_AT_TI_symbol_name("b")
	.dwattr $C$DW$42, DW_AT_type(*$C$DW$T$492)
	.dwattr $C$DW$42, DW_AT_location[DW_OP_reg1]
$C$DW$43	.dwtag  DW_TAG_formal_parameter, DW_AT_name("c")
	.dwattr $C$DW$43, DW_AT_TI_symbol_name("c")
	.dwattr $C$DW$43, DW_AT_type(*$C$DW$T$492)
	.dwattr $C$DW$43, DW_AT_location[DW_OP_reg2]

;*****************************************************************************
;* FUNCTION NAME: s_fp_add                                                   *
;*                                                                           *
;*   Regs Modified     : A1,A2,A4,V1,V2,V3,V4,V5,V6,V7,V8,V9,SP,LR,SR        *
;*   Regs Used         : A1,A2,A3,A4,V1,V2,V3,V4,V5,V6,V7,V8,V9,SP,LR,SR     *
;*   Local Frame Size  : 0 Args + 8 Auto + 36 Save = 44 byte                 *
;*****************************************************************************
s_fp_add:
;* --------------------------------------------------------------------------*
;* A1    assigned to $O$C2
$C$DW$44	.dwtag  DW_TAG_variable, DW_AT_name("$O$C2")
	.dwattr $C$DW$44, DW_AT_TI_symbol_name("$O$C2")
	.dwattr $C$DW$44, DW_AT_type(*$C$DW$T$10)
	.dwattr $C$DW$44, DW_AT_location[DW_OP_reg0]
;* A1    assigned to $O$C3
$C$DW$45	.dwtag  DW_TAG_variable, DW_AT_name("$O$C3")
	.dwattr $C$DW$45, DW_AT_TI_symbol_name("$O$C3")
	.dwattr $C$DW$45, DW_AT_type(*$C$DW$T$10)
	.dwattr $C$DW$45, DW_AT_location[DW_OP_reg0]
;* A1    assigned to $O$C4
$C$DW$46	.dwtag  DW_TAG_variable, DW_AT_name("$O$C4")
	.dwattr $C$DW$46, DW_AT_TI_symbol_name("$O$C4")
	.dwattr $C$DW$46, DW_AT_type(*$C$DW$T$10)
	.dwattr $C$DW$46, DW_AT_location[DW_OP_reg0]
;* A1    assigned to $O$C5
$C$DW$47	.dwtag  DW_TAG_variable, DW_AT_name("$O$C5")
	.dwattr $C$DW$47, DW_AT_TI_symbol_name("$O$C5")
	.dwattr $C$DW$47, DW_AT_type(*$C$DW$T$10)
	.dwattr $C$DW$47, DW_AT_location[DW_OP_reg0]
;* A4    assigned to $O$C6
$C$DW$48	.dwtag  DW_TAG_variable, DW_AT_name("$O$C6")
	.dwattr $C$DW$48, DW_AT_TI_symbol_name("$O$C6")
	.dwattr $C$DW$48, DW_AT_type(*$C$DW$T$10)
	.dwattr $C$DW$48, DW_AT_location[DW_OP_reg3]
;* V7    assigned to $O$U5
$C$DW$49	.dwtag  DW_TAG_variable, DW_AT_name("$O$U5")
	.dwattr $C$DW$49, DW_AT_TI_symbol_name("$O$U5")
	.dwattr $C$DW$49, DW_AT_type(*$C$DW$T$10)
	.dwattr $C$DW$49, DW_AT_location[DW_OP_reg10]
;* LR    assigned to $O$U33
$C$DW$50	.dwtag  DW_TAG_variable, DW_AT_name("$O$U33")
	.dwattr $C$DW$50, DW_AT_TI_symbol_name("$O$U33")
	.dwattr $C$DW$50, DW_AT_type(*$C$DW$T$1013)
	.dwattr $C$DW$50, DW_AT_location[DW_OP_reg14]
;* V9    assigned to $O$U30
$C$DW$51	.dwtag  DW_TAG_variable, DW_AT_name("$O$U30")
	.dwattr $C$DW$51, DW_AT_TI_symbol_name("$O$U30")
	.dwattr $C$DW$51, DW_AT_type(*$C$DW$T$1013)
	.dwattr $C$DW$51, DW_AT_location[DW_OP_reg12]
;* V1    assigned to $O$K69
$C$DW$52	.dwtag  DW_TAG_variable, DW_AT_name("$O$K69")
	.dwattr $C$DW$52, DW_AT_TI_symbol_name("$O$K69")
	.dwattr $C$DW$52, DW_AT_type(*$C$DW$T$11)
	.dwattr $C$DW$52, DW_AT_location[DW_OP_reg4]
;* A2    assigned to $O$U87
$C$DW$53	.dwtag  DW_TAG_variable, DW_AT_name("$O$U87")
	.dwattr $C$DW$53, DW_AT_TI_symbol_name("$O$U87")
	.dwattr $C$DW$53, DW_AT_type(*$C$DW$T$1013)
	.dwattr $C$DW$53, DW_AT_location[DW_OP_reg1]
;* A1    assigned to $O$T1
$C$DW$54	.dwtag  DW_TAG_variable, DW_AT_name("$O$T1")
	.dwattr $C$DW$54, DW_AT_TI_symbol_name("$O$T1")
	.dwattr $C$DW$54, DW_AT_type(*$C$DW$T$10)
	.dwattr $C$DW$54, DW_AT_location[DW_OP_reg0]
$C$DW$55	.dwtag  DW_TAG_variable, DW_AT_name("a")
	.dwattr $C$DW$55, DW_AT_TI_symbol_name("a")
	.dwattr $C$DW$55, DW_AT_type(*$C$DW$T$493)
	.dwattr $C$DW$55, DW_AT_location[DW_OP_breg13 0]
$C$DW$56	.dwtag  DW_TAG_variable, DW_AT_name("b")
	.dwattr $C$DW$56, DW_AT_TI_symbol_name("b")
	.dwattr $C$DW$56, DW_AT_type(*$C$DW$T$493)
	.dwattr $C$DW$56, DW_AT_location[DW_OP_breg13 4]
;* A3    assigned to c
$C$DW$57	.dwtag  DW_TAG_variable, DW_AT_name("c")
	.dwattr $C$DW$57, DW_AT_TI_symbol_name("c")
	.dwattr $C$DW$57, DW_AT_type(*$C$DW$T$493)
	.dwattr $C$DW$57, DW_AT_location[DW_OP_reg2]
;* V4    assigned to x
$C$DW$58	.dwtag  DW_TAG_variable, DW_AT_name("x")
	.dwattr $C$DW$58, DW_AT_TI_symbol_name("x")
	.dwattr $C$DW$58, DW_AT_type(*$C$DW$T$10)
	.dwattr $C$DW$58, DW_AT_location[DW_OP_reg7]
;* V7    assigned to y
$C$DW$59	.dwtag  DW_TAG_variable, DW_AT_name("y")
	.dwattr $C$DW$59, DW_AT_TI_symbol_name("y")
	.dwattr $C$DW$59, DW_AT_type(*$C$DW$T$10)
	.dwattr $C$DW$59, DW_AT_location[DW_OP_reg10]
;* V5    assigned to oldused
$C$DW$60	.dwtag  DW_TAG_variable, DW_AT_name("oldused")
	.dwattr $C$DW$60, DW_AT_TI_symbol_name("oldused")
	.dwattr $C$DW$60, DW_AT_type(*$C$DW$T$10)
	.dwattr $C$DW$60, DW_AT_location[DW_OP_reg8]
;* A1    assigned to t
$C$DW$61	.dwtag  DW_TAG_variable, DW_AT_name("t")
	.dwattr $C$DW$61, DW_AT_TI_symbol_name("t")
	.dwattr $C$DW$61, DW_AT_type(*$C$DW$T$1212)
	.dwattr $C$DW$61, DW_AT_location[DW_OP_reg0]
;* A1    assigned to $O$V0
$C$DW$62	.dwtag  DW_TAG_variable, DW_AT_name("$O$V0")
	.dwattr $C$DW$62, DW_AT_TI_symbol_name("$O$V0")
	.dwattr $C$DW$62, DW_AT_type(*$C$DW$T$10)
	.dwattr $C$DW$62, DW_AT_location[DW_OP_reg0]
;* V8    assigned to $O$d2
$C$DW$63	.dwtag  DW_TAG_variable, DW_AT_name("$O$d2")
	.dwattr $C$DW$63, DW_AT_TI_symbol_name("$O$d2")
	.dwattr $C$DW$63, DW_AT_type(*$C$DW$T$10)
	.dwattr $C$DW$63, DW_AT_location[DW_OP_reg11]
;* A2    assigned to $O$d4
$C$DW$64	.dwtag  DW_TAG_variable, DW_AT_name("$O$d4")
	.dwattr $C$DW$64, DW_AT_TI_symbol_name("$O$d4")
	.dwattr $C$DW$64, DW_AT_type(*$C$DW$T$10)
	.dwattr $C$DW$64, DW_AT_location[DW_OP_reg1]
;* A1    assigned to $O$d3
$C$DW$65	.dwtag  DW_TAG_variable, DW_AT_name("$O$d3")
	.dwattr $C$DW$65, DW_AT_TI_symbol_name("$O$d3")
	.dwattr $C$DW$65, DW_AT_type(*$C$DW$T$10)
	.dwattr $C$DW$65, DW_AT_location[DW_OP_reg0]
;* A4    assigned to $O$d6
$C$DW$66	.dwtag  DW_TAG_variable, DW_AT_name("$O$d6")
	.dwattr $C$DW$66, DW_AT_TI_symbol_name("$O$d6")
	.dwattr $C$DW$66, DW_AT_type(*$C$DW$T$10)
	.dwattr $C$DW$66, DW_AT_location[DW_OP_reg3]
;* V2    assigned to $O$d5
$C$DW$67	.dwtag  DW_TAG_variable, DW_AT_name("$O$d5")
	.dwattr $C$DW$67, DW_AT_TI_symbol_name("$O$d5")
	.dwattr $C$DW$67, DW_AT_type(*$C$DW$T$10)
	.dwattr $C$DW$67, DW_AT_location[DW_OP_reg5]
;* V5    assigned to $O$U12
$C$DW$68	.dwtag  DW_TAG_variable, DW_AT_name("$O$U12")
	.dwattr $C$DW$68, DW_AT_TI_symbol_name("$O$U12")
	.dwattr $C$DW$68, DW_AT_type(*$C$DW$T$10)
	.dwattr $C$DW$68, DW_AT_location[DW_OP_reg8]
;* V6    assigned to $O$U38
$C$DW$69	.dwtag  DW_TAG_variable, DW_AT_name("$O$U38")
	.dwattr $C$DW$69, DW_AT_TI_symbol_name("$O$U38")
	.dwattr $C$DW$69, DW_AT_type(*$C$DW$T$1013)
	.dwattr $C$DW$69, DW_AT_location[DW_OP_reg9]
;* A4    assigned to $O$U38
$C$DW$70	.dwtag  DW_TAG_variable, DW_AT_name("$O$U38")
	.dwattr $C$DW$70, DW_AT_TI_symbol_name("$O$U38")
	.dwattr $C$DW$70, DW_AT_type(*$C$DW$T$1013)
	.dwattr $C$DW$70, DW_AT_location[DW_OP_reg3]
	.dwcfi	cfa_offset, 0
;** 97	-----------------------    U$5 = (*a).used;
;** 97	-----------------------    C$6 = (*b).used;
;** 97	-----------------------    (U$5 > C$6) ? (y = U$5) : (y = C$6);
;** 98	-----------------------    if ( (U$12 = (*c).used) > 136 ) goto g3;
;** 98	-----------------------    oldused = 136;
;** 98	-----------------------    goto g4;
;**	-----------------------g3:
;** 98	-----------------------    oldused = U$12;
;**	-----------------------g4:
;** 99	-----------------------    (*c).used = y;
;** 102	-----------------------    x = 0;
;** 102	-----------------------    if ( y <= 0 ) goto g17;
        PUSH      {V1, V2, V3, V4, V5, V6, V7, V8, LR} ; [DPU_3_PIPE] 
	.dwcfi	cfa_offset, 36
	.dwcfi	save_reg_to_mem, 14, -4
	.dwcfi	save_reg_to_mem, 11, -8
	.dwcfi	save_reg_to_mem, 10, -12
	.dwcfi	save_reg_to_mem, 9, -16
	.dwcfi	save_reg_to_mem, 8, -20
	.dwcfi	save_reg_to_mem, 7, -24
	.dwcfi	save_reg_to_mem, 6, -28
	.dwcfi	save_reg_to_mem, 5, -32
	.dwcfi	save_reg_to_mem, 4, -36
	.dwpsn	file "C:/wolfssl/ctaocrypt/src/tfm.c",line 97,column 3,is_stmt,isa 1
        LDR       A4, [A2, #544]        ; [DPU_3_PIPE] |97| 
        LDR       V7, [A1, #544]        ; [DPU_3_PIPE] |97| 
        SUB       SP, SP, #12           ; [DPU_3_PIPE] 
	.dwcfi	cfa_offset, 48
	.dwpsn	file "C:/wolfssl/ctaocrypt/src/tfm.c",line 93,column 1,is_stmt,isa 1
        STR       A1, [SP, #0]          ; [DPU_3_PIPE] |93| 
        STR       A2, [SP, #4]          ; [DPU_3_PIPE] |93| 
	.dwpsn	file "C:/wolfssl/ctaocrypt/src/tfm.c",line 97,column 3,is_stmt,isa 1
        CMP       A4, V7                ; [DPU_3_PIPE] |97| 
        IT        GE                    ; [DPU_3_PIPE] 
        MOVGE     V7, A4                ; [DPU_3_PIPE] |97| 
	.dwpsn	file "C:/wolfssl/ctaocrypt/src/tfm.c",line 98,column 3,is_stmt,isa 1
        LDR       V5, [A3, #544]        ; [DPU_3_PIPE] |98| 
        CMP       V5, #136              ; [DPU_3_PIPE] |98| 
        IT        LE                    ; [DPU_3_PIPE] 
        MOVLE     V5, #136              ; [DPU_3_PIPE] |98| 
	.dwpsn	file "C:/wolfssl/ctaocrypt/src/tfm.c",line 102,column 8,is_stmt,isa 1
        MOVS      V4, #0                ; [DPU_3_PIPE] |102| 
	.dwpsn	file "C:/wolfssl/ctaocrypt/src/tfm.c",line 102,column 15,is_stmt,isa 1
        CMP       V7, #0                ; [DPU_3_PIPE] |102| 
	.dwpsn	file "C:/wolfssl/ctaocrypt/src/tfm.c",line 99,column 3,is_stmt,isa 1
        STR       V7, [A3, #544]        ; [DPU_3_PIPE] |99| 
	.dwpsn	file "C:/wolfssl/ctaocrypt/src/tfm.c",line 102,column 15,is_stmt,isa 1
        BLE       ||$C$L19||            ; [DPU_3_PIPE] |102| 
        ; BRANCHCC OCCURS {||$C$L19||}   ; [] |102| 
;* --------------------------------------------------------------------------*
;** 103	-----------------------    d$2 = y>>1;
;** 101	-----------------------    t = 0uLL;
;** 103	-----------------------    if ( y >= 2 ) goto g9;
	.dwpsn	file "C:/wolfssl/ctaocrypt/src/tfm.c",line 103,column 7,is_stmt,isa 1
        CMP       V7, #2                ; [DPU_3_PIPE] |103| 
        MOV       A1, V4                ; [DPU_3_PIPE] 
        ASR       V8, V7, #1            ; [DPU_3_PIPE] |103| 
	.dwpsn	file "C:/wolfssl/ctaocrypt/src/tfm.c",line 101,column 3,is_stmt,isa 1
        MOV       A2, #0                ; [DPU_3_PIPE] |101| 
	.dwpsn	file "C:/wolfssl/ctaocrypt/src/tfm.c",line 103,column 7,is_stmt,isa 1
        BGE       ||$C$L14||            ; [DPU_3_PIPE] |103| 
        ; BRANCHCC OCCURS {||$C$L14||}   ; [] |103| 
;* --------------------------------------------------------------------------*
;**  	-----------------------    if ( y&1 ) goto g12;
        LSRS      A4, V7, #1            ; [DPU_3_PIPE] 
        BCS       ||$C$L16||            ; [DPU_3_PIPE] 
        ; BRANCHCC OCCURS {||$C$L16||}   ; [] 
;* --------------------------------------------------------------------------*
;** 112	-----------------------    (*c).used = 0;
;** 113	-----------------------    if ( oldused <= 0 ) goto g23;
	.dwpsn	file "C:/wolfssl/ctaocrypt/src/tfm.c",line 113,column 10,is_stmt,isa 1
        CMP       V5, #0                ; [DPU_3_PIPE] |113| 
	.dwpsn	file "C:/wolfssl/ctaocrypt/src/tfm.c",line 112,column 3,is_stmt,isa 1
        STR       A1, [A3, #544]        ; [DPU_3_PIPE] |112| 
	.dwpsn	file "C:/wolfssl/ctaocrypt/src/tfm.c",line 113,column 10,is_stmt,isa 1
        BLE       ||$C$L23||            ; [DPU_3_PIPE] |113| 
        ; BRANCHCC OCCURS {||$C$L23||}   ; [] |113| 
;* --------------------------------------------------------------------------*
;** 114	-----------------------    d$4 = oldused>>1;
;** 114	-----------------------    d$3 = oldused&1;
;** 114	-----------------------    if ( oldused >= 2 ) goto g19;
	.dwpsn	file "C:/wolfssl/ctaocrypt/src/tfm.c",line 114,column 6,is_stmt,isa 1
        CMP       V5, #2                ; [DPU_3_PIPE] |114| 
        ASR       A2, V5, #1            ; [DPU_3_PIPE] |114| 
        AND       A1, V5, #1            ; [DPU_3_PIPE] |114| 
        BGE       ||$C$L20||            ; [DPU_3_PIPE] |114| 
        ; BRANCHCC OCCURS {||$C$L20||}   ; [] |114| 
;* --------------------------------------------------------------------------*
;** 114	-----------------------    goto g21;
        B         ||$C$L22||            ; [DPU_3_PIPE] |114| 
        ; BRANCH OCCURS {||$C$L22||}     ; [] |114| 
;* --------------------------------------------------------------------------*
||$C$L14||:    
;**	-----------------------g9:
;**  	-----------------------    U$30 = (unsigned *)b;
;**  	-----------------------    U$33 = (unsigned *)a;
;**  	-----------------------    U$38 = (unsigned *)c;
;**  	-----------------------    #pragma MUST_ITERATE(1, 68, 1)
;**  	-----------------------    // LOOP BELOW UNROLLED BY FACTOR(2)
;**  	-----------------------    #pragma LOOP_FLAGS(4102u)
        LDR       V9, [SP, #4]          ; [DPU_3_PIPE] 
        LDR       LR, [SP, #0]          ; [DPU_3_PIPE] 
        MOV       V6, A3                ; [DPU_3_PIPE] 
;* --------------------------------------------------------------------------*
;*   BEGIN LOOP ||$C$L15||
;*
;*   Loop source line                : 102
;*   Loop closing brace source line  : 106
;*   Loop Unroll Multiple            : 2x
;*   Known Minimum Trip Count        : 1
;*   Known Maximum Trip Count        : 68
;*   Known Max Trip Count Factor     : 1
;* --------------------------------------------------------------------------*
||$C$L15||:    
;**	-----------------------g10:
;** 103	-----------------------    t += (unsigned long long)*U$30+++(unsigned long long)*U$33++;
;** 104	-----------------------    *U$38++ = t;
;** 105	-----------------------    t >>= 32;
;** 103	-----------------------    t += (unsigned long long)*U$30+++(unsigned long long)*U$33++;
;** 104	-----------------------    *U$38++ = t;
;** 105	-----------------------    t >>= 32;
;** 102	-----------------------    x += 2;
;** 102	-----------------------    if ( --d$2 ) goto g10;
	.dwpsn	file "C:/wolfssl/ctaocrypt/src/tfm.c",line 103,column 7,is_stmt,isa 1
        LDR       A4, [V9], #4          ; [DPU_3_PIPE] |103| 
        LDR       V2, [LR], #4          ; [DPU_3_PIPE] |103| 
        MOV       V1, A2                ; [DPU_3_PIPE] |103| 
        ADDS      A4, A4, A1            ; [DPU_3_PIPE] |103| 
        ADC       V1, V1, A2            ; [DPU_3_PIPE] |103| 
        ADDS      V2, V2, A4            ; [DPU_3_PIPE] |103| 
	.dwpsn	file "C:/wolfssl/ctaocrypt/src/tfm.c",line 104,column 7,is_stmt,isa 1
        STR       V2, [V6], #4          ; [DPU_3_PIPE] |104| 
	.dwpsn	file "C:/wolfssl/ctaocrypt/src/tfm.c",line 103,column 7,is_stmt,isa 1
        LDR       A4, [V9], #4          ; [DPU_3_PIPE] |103| 
        LDR       V2, [LR], #4          ; [DPU_3_PIPE] |103| 
        MOV       V3, A2                ; [DPU_3_PIPE] |103| 
	.dwpsn	file "C:/wolfssl/ctaocrypt/src/tfm.c",line 102,column 15,is_stmt,isa 1
        SUB       V8, V8, #1            ; [DPU_3_PIPE] |102| 
	.dwpsn	file "C:/wolfssl/ctaocrypt/src/tfm.c",line 102,column 22,is_stmt,isa 1
        ADD       V4, V4, #2            ; [DPU_3_PIPE] |102| 
	.dwpsn	file "C:/wolfssl/ctaocrypt/src/tfm.c",line 103,column 7,is_stmt,isa 1
        ADC       V3, V3, V1            ; [DPU_3_PIPE] |103| 
	.dwpsn	file "C:/wolfssl/ctaocrypt/src/tfm.c",line 105,column 7,is_stmt,isa 1
        MOVS      A1, V3                ; [DPU_3_PIPE] |105| 
	.dwpsn	file "C:/wolfssl/ctaocrypt/src/tfm.c",line 103,column 7,is_stmt,isa 1
        MOV       V1, A2                ; [DPU_3_PIPE] |103| 
        MOV       V3, V1                ; [DPU_3_PIPE] |103| 
        ADDS      A4, A4, A1            ; [DPU_3_PIPE] |103| 
        ADC       V1, V1, A2            ; [DPU_3_PIPE] |103| 
        ADDS      V2, V2, A4            ; [DPU_3_PIPE] |103| 
        ADC       V3, V3, V1            ; [DPU_3_PIPE] |103| 
	.dwpsn	file "C:/wolfssl/ctaocrypt/src/tfm.c",line 104,column 7,is_stmt,isa 1
        STR       V2, [V6], #4          ; [DPU_3_PIPE] |104| 
	.dwpsn	file "C:/wolfssl/ctaocrypt/src/tfm.c",line 102,column 15,is_stmt,isa 1
        CMP       V8, #0                ; [DPU_3_PIPE] |102| 
	.dwpsn	file "C:/wolfssl/ctaocrypt/src/tfm.c",line 105,column 7,is_stmt,isa 1
        MOV       A1, V3                ; [DPU_3_PIPE] |105| 
	.dwpsn	file "C:/wolfssl/ctaocrypt/src/tfm.c",line 102,column 15,is_stmt,isa 1
        BNE       ||$C$L15||            ; [DPU_3_PIPE] |102| 
        ; BRANCHCC OCCURS {||$C$L15||}   ; [] |102| 
;* --------------------------------------------------------------------------*
;**  	-----------------------    if ( !(y&1) ) goto g13;
;* --------------------------------------------------------------------------*
        LSRS      A4, V7, #1            ; [DPU_3_PIPE] 
        BCC       ||$C$L17||            ; [DPU_3_PIPE] 
        ; BRANCHCC OCCURS {||$C$L17||}   ; [] 
;* --------------------------------------------------------------------------*
||$C$L16||:    
;**	-----------------------g12:
; Peeled loop iterations for unrolled loop:
;** 103	-----------------------    C$5 = x*4;
;** 103	-----------------------    t += (unsigned long long)*(C$5+(unsigned *)b)+(unsigned long long)*(C$5+(unsigned *)a);
;** 104	-----------------------    *(C$5+(unsigned *)c) = t;
;** 105	-----------------------    t >>= 32;
;** 102	-----------------------    ++x;
	.dwpsn	file "C:/wolfssl/ctaocrypt/src/tfm.c",line 103,column 7,is_stmt,isa 1
        LDR       V1, [SP, #0]          ; [DPU_3_PIPE] |103| 
        LDR       A4, [SP, #4]          ; [DPU_3_PIPE] |103| 
        LSL       V9, V4, #2            ; [DPU_3_PIPE] |103| 
        LDR       V2, [V1, +V9]         ; [DPU_3_PIPE] |103| 
        LDR       A4, [A4, +V9]         ; [DPU_3_PIPE] |103| 
        MOV       V3, A2                ; [DPU_3_PIPE] |103| 
	.dwpsn	file "C:/wolfssl/ctaocrypt/src/tfm.c",line 102,column 22,is_stmt,isa 1
        MOV       LR, V3                ; [DPU_3_PIPE] |102| 
        ADDS      V4, V4, #1            ; [DPU_3_PIPE] |102| 
	.dwpsn	file "C:/wolfssl/ctaocrypt/src/tfm.c",line 103,column 7,is_stmt,isa 1
        ADDS      A4, A4, A1            ; [DPU_3_PIPE] |103| 
        ADC       V1, LR, A2            ; [DPU_3_PIPE] |103| 
        ADDS      V2, V2, A4            ; [DPU_3_PIPE] |103| 
	.dwpsn	file "C:/wolfssl/ctaocrypt/src/tfm.c",line 104,column 7,is_stmt,isa 1
        STR       V2, [A3, +V9]         ; [DPU_3_PIPE] |104| 
	.dwpsn	file "C:/wolfssl/ctaocrypt/src/tfm.c",line 103,column 7,is_stmt,isa 1
        ADC       V3, V3, V1            ; [DPU_3_PIPE] |103| 
	.dwpsn	file "C:/wolfssl/ctaocrypt/src/tfm.c",line 105,column 7,is_stmt,isa 1
        MOVS      A1, V3                ; [DPU_3_PIPE] |105| 
;* --------------------------------------------------------------------------*
||$C$L17||:    
;**	-----------------------g13:
;** 107	-----------------------    if ( t == 0uLL || x >= 136 ) goto g15;
	.dwpsn	file "C:/wolfssl/ctaocrypt/src/tfm.c",line 107,column 3,is_stmt,isa 1
        CMP       A2, #0                ; [DPU_3_PIPE] |107| 
        IT        EQ                    ; [DPU_3_PIPE] 
        CMPEQ     A1, #0                ; [DPU_3_PIPE] |107| 
        BEQ       ||$C$L18||            ; [DPU_3_PIPE] |107| 
        ; BRANCHCC OCCURS {||$C$L18||}   ; [] |107| 
;* --------------------------------------------------------------------------*
        CMP       V4, #136              ; [DPU_3_PIPE] |107| 
        BGE       ||$C$L18||            ; [DPU_3_PIPE] |107| 
        ; BRANCHCC OCCURS {||$C$L18||}   ; [] |107| 
;* --------------------------------------------------------------------------*
;** 108	-----------------------    T$1 = (*c).used;
;** 108	-----------------------    (*c).used = T$1+1;
;** 108	-----------------------    *(T$1*4+(unsigned *)c) = 1u;
;** 109	-----------------------    ++x;
	.dwpsn	file "C:/wolfssl/ctaocrypt/src/tfm.c",line 108,column 6,is_stmt,isa 1
        LDR       A1, [A3, #544]        ; [DPU_3_PIPE] |108| 
        MOV       LR, #1                ; [DPU_3_PIPE] |108| 
        ADDS      A2, A1, #1            ; [DPU_3_PIPE] |108| 
        STR       A2, [A3, #544]        ; [DPU_3_PIPE] |108| 
	.dwpsn	file "C:/wolfssl/ctaocrypt/src/tfm.c",line 109,column 6,is_stmt,isa 1
        ADDS      V4, V4, #1            ; [DPU_3_PIPE] |109| 
	.dwpsn	file "C:/wolfssl/ctaocrypt/src/tfm.c",line 108,column 6,is_stmt,isa 1
        STR       LR, [A3, +A1, LSL #2] ; [DPU_3_PIPE] |108| 
;* --------------------------------------------------------------------------*
||$C$L18||:    
;**	-----------------------g15:
;** 112	-----------------------    (*c).used = x;
;** 113	-----------------------    if ( x >= oldused ) goto g23;
	.dwpsn	file "C:/wolfssl/ctaocrypt/src/tfm.c",line 113,column 10,is_stmt,isa 1
        CMP       V5, V4                ; [DPU_3_PIPE] |113| 
	.dwpsn	file "C:/wolfssl/ctaocrypt/src/tfm.c",line 112,column 3,is_stmt,isa 1
        STR       V4, [A3, #544]        ; [DPU_3_PIPE] |112| 
	.dwpsn	file "C:/wolfssl/ctaocrypt/src/tfm.c",line 113,column 10,is_stmt,isa 1
        BLE       ||$C$L23||            ; [DPU_3_PIPE] |113| 
        ; BRANCHCC OCCURS {||$C$L23||}   ; [] |113| 
;* --------------------------------------------------------------------------*
;** 114	-----------------------    C$4 = oldused-x;
;** 114	-----------------------    d$4 = C$4>>1;
;** 114	-----------------------    d$3 = (oldused^x)&1;
;** 114	-----------------------    if ( C$4 >= 2 ) goto g19;
	.dwpsn	file "C:/wolfssl/ctaocrypt/src/tfm.c",line 114,column 6,is_stmt,isa 1
        SUB       A4, V5, V4            ; [DPU_3_PIPE] |114| 
        EOR       A1, V4, V5            ; [DPU_3_PIPE] |114| 
        CMP       A4, #2                ; [DPU_3_PIPE] |114| 
        ASR       A2, A4, #1            ; [DPU_3_PIPE] |114| 
        AND       A1, A1, #1            ; [DPU_3_PIPE] |114| 
        BGE       ||$C$L20||            ; [DPU_3_PIPE] |114| 
        ; BRANCHCC OCCURS {||$C$L20||}   ; [] |114| 
;* --------------------------------------------------------------------------*
;** 114	-----------------------    goto g21;
        B         ||$C$L22||            ; [DPU_3_PIPE] |114| 
        ; BRANCH OCCURS {||$C$L22||}     ; [] |114| 
;* --------------------------------------------------------------------------*
||$C$L19||:    
;**	-----------------------g17:
;** 112	-----------------------    (*c).used = x;
;** 113	-----------------------    if ( x >= oldused ) goto g23;
	.dwpsn	file "C:/wolfssl/ctaocrypt/src/tfm.c",line 113,column 10,is_stmt,isa 1
        CMP       V5, V4                ; [DPU_3_PIPE] |113| 
	.dwpsn	file "C:/wolfssl/ctaocrypt/src/tfm.c",line 112,column 3,is_stmt,isa 1
        STR       V4, [A3, #544]        ; [DPU_3_PIPE] |112| 
	.dwpsn	file "C:/wolfssl/ctaocrypt/src/tfm.c",line 113,column 10,is_stmt,isa 1
        BLE       ||$C$L23||            ; [DPU_3_PIPE] |113| 
        ; BRANCHCC OCCURS {||$C$L23||}   ; [] |113| 
;* --------------------------------------------------------------------------*
;** 114	-----------------------    C$3 = oldused-x;
;** 114	-----------------------    d$4 = C$3>>1;
;** 114	-----------------------    d$3 = (oldused^x)&1;
;** 114	-----------------------    if ( C$3 < 2 ) goto g21;
	.dwpsn	file "C:/wolfssl/ctaocrypt/src/tfm.c",line 114,column 6,is_stmt,isa 1
        SUB       A4, V5, V4            ; [DPU_3_PIPE] |114| 
        EOR       A1, V4, V5            ; [DPU_3_PIPE] |114| 
        CMP       A4, #2                ; [DPU_3_PIPE] |114| 
        ASR       A2, A4, #1            ; [DPU_3_PIPE] |114| 
        AND       A1, A1, #1            ; [DPU_3_PIPE] |114| 
        BLT       ||$C$L22||            ; [DPU_3_PIPE] |114| 
        ; BRANCHCC OCCURS {||$C$L22||}   ; [] |114| 
;* --------------------------------------------------------------------------*
||$C$L20||:    
;**	-----------------------g19:
;**  	-----------------------    U$38 = x*4+(unsigned *)c;
;**  	-----------------------    K$69 = 0u;
;**  	-----------------------    #pragma MUST_ITERATE(1, 68, 1)
;**  	-----------------------    // LOOP BELOW UNROLLED BY FACTOR(2)
;**  	-----------------------    #pragma LOOP_FLAGS(4102u)
        ADD       A4, A3, V4, LSL #2    ; [DPU_3_PIPE] 
        MOVS      V1, #0                ; [DPU_3_PIPE] 
;* --------------------------------------------------------------------------*
;*   BEGIN LOOP ||$C$L21||
;*
;*   Loop source line                : 113
;*   Loop closing brace source line  : 115
;*   Loop Unroll Multiple            : 2x
;*   Known Minimum Trip Count        : 1
;*   Known Maximum Trip Count        : 68
;*   Known Max Trip Count Factor     : 1
;* --------------------------------------------------------------------------*
||$C$L21||:    
;**	-----------------------g20:
;** 114	-----------------------    *U$38++ = K$69;
;** 114	-----------------------    *U$38++ = K$69;
;** 114	-----------------------    x += 2;
;** 113	-----------------------    if ( --d$4 ) goto g20;
        STR       V1, [A4], #4          ; [DPU_3_PIPE] |114| 
	.dwpsn	file "C:/wolfssl/ctaocrypt/src/tfm.c",line 113,column 10,is_stmt,isa 1
        SUBS      A2, A2, #1            ; [DPU_3_PIPE] |113| 
	.dwpsn	file "C:/wolfssl/ctaocrypt/src/tfm.c",line 114,column 6,is_stmt,isa 1
        ADD       V4, V4, #2            ; [DPU_3_PIPE] |114| 
        STR       V1, [A4], #4          ; [DPU_3_PIPE] |114| 
	.dwpsn	file "C:/wolfssl/ctaocrypt/src/tfm.c",line 113,column 10,is_stmt,isa 1
        BNE       ||$C$L21||            ; [DPU_3_PIPE] |113| 
        ; BRANCHCC OCCURS {||$C$L21||}   ; [] |113| 
;* --------------------------------------------------------------------------*
||$C$L22||:    
;**	-----------------------g21:
;**  	-----------------------    if ( d$3 <= 0 ) goto g23;
; Peeled loop iterations for unrolled loop:
;** 114	-----------------------    *(x*4+(unsigned *)c) = 0u;
        CMP       A1, #0                ; [DPU_3_PIPE] 
        ITT       GT                    ; [DPU_3_PIPE] 
	.dwpsn	file "C:/wolfssl/ctaocrypt/src/tfm.c",line 114,column 6,is_stmt,isa 1
        MOVGT     A1, #0                ; [DPU_3_PIPE] |114| 
        STRGT     A1, [A3, +V4, LSL #2] ; [DPU_3_PIPE] |114| 
;* --------------------------------------------------------------------------*
||$C$L23||:    
;**	-----------------------g23:
;** 116	-----------------------    if ( !(C$2 = (*c).used) ) goto g33;
	.dwpsn	file "C:/wolfssl/ctaocrypt/src/tfm.c",line 116,column 3,is_stmt,isa 1
        LDR       A1, [A3, #544]        ; [DPU_3_PIPE] |116| 
        CBZ       A1, ||$C$L27||        ; [] 
        ; BRANCHCC OCCURS {||$C$L27||}   ; [] |116| 
;* --------------------------------------------------------------------------*
;**  	-----------------------    V$0 = C$2;
;** 116	-----------------------    d$6 = V$0>>1;
;** 116	-----------------------    d$5 = V$0&1;
;** 116	-----------------------    if ( V$0 < 2 ) goto g29;
        CMP       A1, #2                ; [DPU_3_PIPE] |116| 
        ASR       A4, A1, #1            ; [DPU_3_PIPE] |116| 
        AND       V2, A1, #1            ; [DPU_3_PIPE] |116| 
        BLT       ||$C$L25||            ; [DPU_3_PIPE] |116| 
        ; BRANCHCC OCCURS {||$C$L25||}   ; [] |116| 
;* --------------------------------------------------------------------------*
;**  	-----------------------    U$87 = V$0*4+(unsigned *)c;
;**  	-----------------------    #pragma MUST_ITERATE(1, 1073741823, 1)
;**  	-----------------------    // LOOP BELOW UNROLLED BY FACTOR(2)
;**  	-----------------------    #pragma LOOP_FLAGS(4358u)
        ADD       A2, A3, A1, LSL #2    ; [DPU_3_PIPE] 
;* --------------------------------------------------------------------------*
;*   BEGIN LOOP ||$C$L24||
;*
;*   Loop source line                : 116
;*   Loop closing brace source line  : 116
;*   Loop Unroll Multiple            : 2x
;*   Known Minimum Trip Count        : 1
;*   Known Maximum Trip Count        : 1073741823
;*   Known Max Trip Count Factor     : 1
;* --------------------------------------------------------------------------*
||$C$L24||:    
;**	-----------------------g26:
;** 116	-----------------------    if ( *(--U$87) ) goto g32;
        LDR       V1, [A2, #-4]!        ; [DPU_3_PIPE] |116| 
        CBNZ      V1, ||$C$L26||        ; [] 
        ; BRANCHCC OCCURS {||$C$L26||}   ; [] |116| 
;* --------------------------------------------------------------------------*
;** 116	-----------------------    (*c).used = --V$0;
;** 116	-----------------------    if ( *(--U$87) ) goto g32;
        SUBS      A1, A1, #1            ; [DPU_3_PIPE] |116| 
        STR       A1, [A3, #544]        ; [DPU_3_PIPE] |116| 
        LDR       V1, [A2, #-4]!        ; [DPU_3_PIPE] |116| 
        CBNZ      V1, ||$C$L26||        ; [] 
        ; BRANCHCC OCCURS {||$C$L26||}   ; [] |116| 
;* --------------------------------------------------------------------------*
;** 116	-----------------------    (*c).used = --V$0;
;** 116	-----------------------    if ( --d$6 ) goto g26;
        SUBS      A1, A1, #1            ; [DPU_3_PIPE] |116| 
        SUBS      A4, A4, #1            ; [DPU_3_PIPE] |116| 
        STR       A1, [A3, #544]        ; [DPU_3_PIPE] |116| 
        BNE       ||$C$L24||            ; [DPU_3_PIPE] |116| 
        ; BRANCHCC OCCURS {||$C$L24||}   ; [] |116| 
;* --------------------------------------------------------------------------*
||$C$L25||:    
;**	-----------------------g29:
;**  	-----------------------    if ( d$5 <= 0 ) goto g33;
        CMP       V2, #0                ; [DPU_3_PIPE] 
        BLE       ||$C$L27||            ; [DPU_3_PIPE] 
        ; BRANCHCC OCCURS {||$C$L27||}   ; [] 
;* --------------------------------------------------------------------------*
; Peeled loop iterations for unrolled loop:
;** 116	-----------------------    if ( *(V$0*4+(unsigned *)c-4) ) goto g32;
;** 116	-----------------------    (*c).used = --V$0;
;**  	-----------------------    goto g33;
        ADD       A2, A3, A1, LSL #2    ; [DPU_3_PIPE] |116| 
        LDR       A2, [A2, #-4]         ; [DPU_3_PIPE] |116| 
        CMP       A2, #0                ; [DPU_3_PIPE] |116| 
        ITT       EQ                    ; [DPU_3_PIPE] 
        SUBEQ     A1, A1, #1            ; [DPU_3_PIPE] |116| 
        STREQ     A1, [A3, #544]        ; [DPU_3_PIPE] |116| 
        BEQ       ||$C$L27||            ; [DPU_3_PIPE] 
        ; BRANCHCC OCCURS {||$C$L27||}   ; [] 
;* --------------------------------------------------------------------------*
||$C$L26||:    
;**	-----------------------g32:
;** 116	-----------------------    if ( (*c).used ) goto g34;
        LDR       A1, [A3, #544]        ; [DPU_3_PIPE] |116| 
        CBNZ      A1, ||$C$L28||        ; [] 
        ; BRANCHCC OCCURS {||$C$L28||}   ; [] |116| 
;* --------------------------------------------------------------------------*
||$C$L27||:    
;**	-----------------------g33:
;** 116	-----------------------    (*c).sign = 0;
;**	-----------------------g34:
;**  	-----------------------    return;
        MOVS      A1, #0                ; [DPU_3_PIPE] |116| 
        STR       A1, [A3, #548]        ; [DPU_3_PIPE] |116| 
;* --------------------------------------------------------------------------*
||$C$L28||:    
        ADD       SP, SP, #12           ; [DPU_3_PIPE] 
	.dwcfi	cfa_offset, 36
$C$DW$71	.dwtag  DW_TAG_TI_branch
	.dwattr $C$DW$71, DW_AT_low_pc(0x00)
	.dwattr $C$DW$71, DW_AT_TI_return
        POP       {V1, V2, V3, V4, V5, V6, V7, V8, PC} ; [DPU_3_PIPE] 
	.dwcfi	cfa_offset, 0
        ; BRANCH OCCURS                  ; [] 
	.dwattr $C$DW$40, DW_AT_TI_end_file("C:/wolfssl/ctaocrypt/src/tfm.c")
	.dwattr $C$DW$40, DW_AT_TI_end_line(0x75)
	.dwattr $C$DW$40, DW_AT_TI_end_column(0x01)
	.dwendentry
	.dwendtag $C$DW$40

	.sect	".text:fp_count_bits"
	.clink
	.thumbfunc fp_count_bits
	.thumb
	.global	fp_count_bits

$C$DW$72	.dwtag  DW_TAG_subprogram, DW_AT_name("fp_count_bits")
	.dwattr $C$DW$72, DW_AT_low_pc(fp_count_bits)
	.dwattr $C$DW$72, DW_AT_high_pc(0x00)
	.dwattr $C$DW$72, DW_AT_TI_symbol_name("fp_count_bits")
	.dwattr $C$DW$72, DW_AT_external
	.dwattr $C$DW$72, DW_AT_type(*$C$DW$T$10)
	.dwattr $C$DW$72, DW_AT_TI_begin_file("C:/wolfssl/ctaocrypt/src/tfm.c")
	.dwattr $C$DW$72, DW_AT_TI_begin_line(0x697)
	.dwattr $C$DW$72, DW_AT_TI_begin_column(0x05)
	.dwattr $C$DW$72, DW_AT_decl_file("C:/wolfssl/ctaocrypt/src/tfm.c")
	.dwattr $C$DW$72, DW_AT_decl_line(0x697)
	.dwattr $C$DW$72, DW_AT_decl_column(0x05)
	.dwattr $C$DW$72, DW_AT_TI_max_frame_size(0x00)
	.dwpsn	file "C:/wolfssl/ctaocrypt/src/tfm.c",line 1688,column 1,is_stmt,address fp_count_bits,isa 1

	.dwfde $C$DW$CIE, fp_count_bits
$C$DW$73	.dwtag  DW_TAG_formal_parameter, DW_AT_name("a")
	.dwattr $C$DW$73, DW_AT_TI_symbol_name("a")
	.dwattr $C$DW$73, DW_AT_type(*$C$DW$T$492)
	.dwattr $C$DW$73, DW_AT_location[DW_OP_reg0]

;*****************************************************************************
;* FUNCTION NAME: fp_count_bits                                              *
;*                                                                           *
;*   Regs Modified     : A1,A2,A3,V9,SR                                      *
;*   Regs Used         : A1,A2,A3,V9,LR,SR                                   *
;*   Local Frame Size  : 0 Args + 0 Auto + 0 Save = 0 byte                   *
;*****************************************************************************
fp_count_bits:
;* --------------------------------------------------------------------------*
;* A3    assigned to $O$C1
$C$DW$74	.dwtag  DW_TAG_variable, DW_AT_name("$O$C1")
	.dwattr $C$DW$74, DW_AT_TI_symbol_name("$O$C1")
	.dwattr $C$DW$74, DW_AT_type(*$C$DW$T$10)
	.dwattr $C$DW$74, DW_AT_location[DW_OP_reg2]
;* A2    assigned to q
$C$DW$75	.dwtag  DW_TAG_variable, DW_AT_name("q")
	.dwattr $C$DW$75, DW_AT_TI_symbol_name("q")
	.dwattr $C$DW$75, DW_AT_type(*$C$DW$T$122)
	.dwattr $C$DW$75, DW_AT_location[DW_OP_reg1]
;* A1    assigned to r
$C$DW$76	.dwtag  DW_TAG_variable, DW_AT_name("r")
	.dwattr $C$DW$76, DW_AT_TI_symbol_name("r")
	.dwattr $C$DW$76, DW_AT_type(*$C$DW$T$10)
	.dwattr $C$DW$76, DW_AT_location[DW_OP_reg0]
;* A1    assigned to a
$C$DW$77	.dwtag  DW_TAG_variable, DW_AT_name("a")
	.dwattr $C$DW$77, DW_AT_TI_symbol_name("a")
	.dwattr $C$DW$77, DW_AT_type(*$C$DW$T$493)
	.dwattr $C$DW$77, DW_AT_location[DW_OP_reg0]
	.dwcfi	cfa_offset, 0
;* 1693	-----------------------    if ( C$1 = (*a).used ) goto g3;
;* 1694	-----------------------    return 0;
	.dwpsn	file "C:/wolfssl/ctaocrypt/src/tfm.c",line 1693,column 3,is_stmt,isa 1
        LDR       A3, [A1, #544]        ; [DPU_3_PIPE] |1693| 
        CMP       A3, #0                ; [DPU_3_PIPE] |1693| 
        IT        EQ                    ; [DPU_3_PIPE] 
	.dwpsn	file "C:/wolfssl/ctaocrypt/src/tfm.c",line 1694,column 5,is_stmt,isa 1
        MOVEQ     A1, #0                ; [DPU_3_PIPE] |1694| 
        BEQ       ||$C$L30||            ; [DPU_3_PIPE] |1694| 
        ; BRANCHCC OCCURS {||$C$L30||}   ; [] |1694| 
;* --------------------------------------------------------------------------*
;**	-----------------------g3:
;* 1698	-----------------------    r = (C$1<<5)-32;
;* 1701	-----------------------    if ( !(q = *(C$1*4+(unsigned *)a-4)) ) goto g6;
	.dwpsn	file "C:/wolfssl/ctaocrypt/src/tfm.c",line 1701,column 3,is_stmt,isa 1
        ADD       A1, A1, A3, LSL #2    ; [DPU_3_PIPE] |1701| 
        LDR       A2, [A1, #-4]         ; [DPU_3_PIPE] |1701| 
	.dwpsn	file "C:/wolfssl/ctaocrypt/src/tfm.c",line 1698,column 3,is_stmt,isa 1
        LSL       V9, A3, #5            ; [DPU_3_PIPE] |1698| 
        SUB       A1, V9, #32           ; [DPU_3_PIPE] |1698| 
        CBZ       A2, ||$C$L30||        ; [] 
	.dwpsn	file "C:/wolfssl/ctaocrypt/src/tfm.c",line 1701,column 3,is_stmt,isa 1
        ; BRANCHCC OCCURS {||$C$L30||}   ; [] |1701| 
;* --------------------------------------------------------------------------*
;**  	-----------------------    #pragma LOOP_FLAGS(4096u)
;* --------------------------------------------------------------------------*
;*   BEGIN LOOP ||$C$L29||
;*
;*   Loop source line                : 1702
;*   Loop closing brace source line  : 1705
;*   Known Minimum Trip Count        : 1
;*   Known Maximum Trip Count        : 4294967295
;*   Known Max Trip Count Factor     : 1
;* --------------------------------------------------------------------------*
||$C$L29||:    
;**	-----------------------g5:
;* 1703	-----------------------    ++r;
;* 1704	-----------------------    if ( q >>= 1u ) goto g5;
	.dwpsn	file "C:/wolfssl/ctaocrypt/src/tfm.c",line 1704,column 5,is_stmt,isa 1
        LSRS      A2, A2, #1            ; [DPU_3_PIPE] |1704| 
	.dwpsn	file "C:/wolfssl/ctaocrypt/src/tfm.c",line 1703,column 5,is_stmt,isa 1
        ADD       A1, A1, #1            ; [DPU_3_PIPE] |1703| 
	.dwpsn	file "C:/wolfssl/ctaocrypt/src/tfm.c",line 1704,column 5,is_stmt,isa 1
        BNE       ||$C$L29||            ; [DPU_3_PIPE] |1704| 
        ; BRANCHCC OCCURS {||$C$L29||}   ; [] |1704| 
;* --------------------------------------------------------------------------*
;**	-----------------------g6:
;* 1706	-----------------------    return r;
;* --------------------------------------------------------------------------*
||$C$L30||:    
$C$DW$78	.dwtag  DW_TAG_TI_branch
	.dwattr $C$DW$78, DW_AT_low_pc(0x00)
	.dwattr $C$DW$78, DW_AT_TI_return
        BX        LR                    ; [DPU_3_PIPE] 
        ; BRANCH OCCURS                  ; [] 
	.dwattr $C$DW$72, DW_AT_TI_end_file("C:/wolfssl/ctaocrypt/src/tfm.c")
	.dwattr $C$DW$72, DW_AT_TI_end_line(0x6ab)
	.dwattr $C$DW$72, DW_AT_TI_end_column(0x01)
	.dwendentry
	.dwendtag $C$DW$72

	.sect	".text:fp_unsigned_bin_size"
	.clink
	.thumbfunc fp_unsigned_bin_size
	.thumb
	.global	fp_unsigned_bin_size

$C$DW$79	.dwtag  DW_TAG_subprogram, DW_AT_name("fp_unsigned_bin_size")
	.dwattr $C$DW$79, DW_AT_low_pc(fp_unsigned_bin_size)
	.dwattr $C$DW$79, DW_AT_high_pc(0x00)
	.dwattr $C$DW$79, DW_AT_TI_symbol_name("fp_unsigned_bin_size")
	.dwattr $C$DW$79, DW_AT_external
	.dwattr $C$DW$79, DW_AT_type(*$C$DW$T$10)
	.dwattr $C$DW$79, DW_AT_TI_begin_file("C:/wolfssl/ctaocrypt/src/tfm.c")
	.dwattr $C$DW$79, DW_AT_TI_begin_line(0x68a)
	.dwattr $C$DW$79, DW_AT_TI_begin_column(0x05)
	.dwattr $C$DW$79, DW_AT_decl_file("C:/wolfssl/ctaocrypt/src/tfm.c")
	.dwattr $C$DW$79, DW_AT_decl_line(0x68a)
	.dwattr $C$DW$79, DW_AT_decl_column(0x05)
	.dwattr $C$DW$79, DW_AT_TI_max_frame_size(0x08)
	.dwpsn	file "C:/wolfssl/ctaocrypt/src/tfm.c",line 1675,column 1,is_stmt,address fp_unsigned_bin_size,isa 1

	.dwfde $C$DW$CIE, fp_unsigned_bin_size
$C$DW$80	.dwtag  DW_TAG_formal_parameter, DW_AT_name("a")
	.dwattr $C$DW$80, DW_AT_TI_symbol_name("a")
	.dwattr $C$DW$80, DW_AT_type(*$C$DW$T$492)
	.dwattr $C$DW$80, DW_AT_location[DW_OP_reg0]

;*****************************************************************************
;* FUNCTION NAME: fp_unsigned_bin_size                                       *
;*                                                                           *
;*   Regs Modified     : A1,A2,A3,A4,V9,SP,LR,SR,FPEXC,FPSCR                 *
;*   Regs Used         : A1,A2,A3,A4,V9,SP,LR,SR,FPEXC,FPSCR                 *
;*   Local Frame Size  : 0 Args + 0 Auto + 4 Save = 4 byte                   *
;*****************************************************************************
fp_unsigned_bin_size:
;* --------------------------------------------------------------------------*
;* A1    assigned to a
$C$DW$81	.dwtag  DW_TAG_variable, DW_AT_name("a")
	.dwattr $C$DW$81, DW_AT_TI_symbol_name("a")
	.dwattr $C$DW$81, DW_AT_type(*$C$DW$T$493)
	.dwattr $C$DW$81, DW_AT_location[DW_OP_reg0]
;* A1    assigned to size
$C$DW$82	.dwtag  DW_TAG_variable, DW_AT_name("size")
	.dwattr $C$DW$82, DW_AT_TI_symbol_name("size")
	.dwattr $C$DW$82, DW_AT_type(*$C$DW$T$10)
	.dwattr $C$DW$82, DW_AT_location[DW_OP_reg0]
	.dwcfi	cfa_offset, 0
;* 1676	-----------------------    size = fp_count_bits(a);
;* 1677	-----------------------    return ((size>>2>>29)+size>>3)+((size&7) != 0);
        PUSH      {A4, LR}              ; [DPU_3_PIPE] 
	.dwcfi	cfa_offset, 8
	.dwcfi	save_reg_to_mem, 14, -4
	.dwcfi	save_reg_to_mem, 3, -8
	.dwpsn	file "C:/wolfssl/ctaocrypt/src/tfm.c",line 1676,column 16,is_stmt,isa 1
$C$DW$83	.dwtag  DW_TAG_TI_branch
	.dwattr $C$DW$83, DW_AT_low_pc(0x00)
	.dwattr $C$DW$83, DW_AT_name("fp_count_bits")
	.dwattr $C$DW$83, DW_AT_TI_call
        BL        fp_count_bits         ; [DPU_3_PIPE] |1676| 
        ; CALL OCCURS {fp_count_bits }   ; [] |1676| 
        MOV       A2, A1                ; [DPU_3_PIPE] |1676| 
	.dwpsn	file "C:/wolfssl/ctaocrypt/src/tfm.c",line 1677,column 3,is_stmt,isa 1
        ASRS      A3, A2, #2            ; [DPU_3_PIPE] |1677| 
        MOVS      A1, #0                ; [DPU_3_PIPE] |1677| 
        TST       A2, #7                ; [DPU_3_PIPE] |1677| 
        ADD       A3, A2, A3, LSR #29   ; [DPU_3_PIPE] |1677| 
        IT        NE                    ; [DPU_3_PIPE] 
        MOVNE     A1, #1                ; [DPU_3_PIPE] |1677| 
        ADD       A1, A1, A3, ASR #3    ; [DPU_3_PIPE] |1677| 
$C$DW$84	.dwtag  DW_TAG_TI_branch
	.dwattr $C$DW$84, DW_AT_low_pc(0x00)
	.dwattr $C$DW$84, DW_AT_TI_return
        POP       {A4, PC}              ; [DPU_3_PIPE] 
	.dwcfi	cfa_offset, 0
        ; BRANCH OCCURS                  ; [] 
	.dwattr $C$DW$79, DW_AT_TI_end_file("C:/wolfssl/ctaocrypt/src/tfm.c")
	.dwattr $C$DW$79, DW_AT_TI_end_line(0x68e)
	.dwattr $C$DW$79, DW_AT_TI_end_column(0x01)
	.dwendentry
	.dwendtag $C$DW$79

	.sect	".text:mp_unsigned_bin_size"
	.clink
	.thumbfunc mp_unsigned_bin_size
	.thumb
	.global	mp_unsigned_bin_size

$C$DW$85	.dwtag  DW_TAG_subprogram, DW_AT_name("mp_unsigned_bin_size")
	.dwattr $C$DW$85, DW_AT_low_pc(mp_unsigned_bin_size)
	.dwattr $C$DW$85, DW_AT_high_pc(0x00)
	.dwattr $C$DW$85, DW_AT_TI_symbol_name("mp_unsigned_bin_size")
	.dwattr $C$DW$85, DW_AT_external
	.dwattr $C$DW$85, DW_AT_type(*$C$DW$T$10)
	.dwattr $C$DW$85, DW_AT_TI_begin_file("C:/wolfssl/ctaocrypt/src/tfm.c")
	.dwattr $C$DW$85, DW_AT_TI_begin_line(0x78e)
	.dwattr $C$DW$85, DW_AT_TI_begin_column(0x05)
	.dwattr $C$DW$85, DW_AT_decl_file("C:/wolfssl/ctaocrypt/src/tfm.c")
	.dwattr $C$DW$85, DW_AT_decl_line(0x78e)
	.dwattr $C$DW$85, DW_AT_decl_column(0x05)
	.dwattr $C$DW$85, DW_AT_TI_max_frame_size(0x00)
	.dwpsn	file "C:/wolfssl/ctaocrypt/src/tfm.c",line 1935,column 1,is_stmt,address mp_unsigned_bin_size,isa 1

	.dwfde $C$DW$CIE, mp_unsigned_bin_size
$C$DW$86	.dwtag  DW_TAG_formal_parameter, DW_AT_name("a")
	.dwattr $C$DW$86, DW_AT_TI_symbol_name("a")
	.dwattr $C$DW$86, DW_AT_type(*$C$DW$T$496)
	.dwattr $C$DW$86, DW_AT_location[DW_OP_reg0]

;*****************************************************************************
;* FUNCTION NAME: mp_unsigned_bin_size                                       *
;*                                                                           *
;*   Regs Modified     : A1,A2,A3,A4,V9,LR,SR,FPEXC,FPSCR                    *
;*   Regs Used         : A1,A2,A3,A4,V9,SP,LR,SR,FPEXC,FPSCR                 *
;*   Local Frame Size  : 0 Args + 0 Auto + 0 Save = 0 byte                   *
;*****************************************************************************
mp_unsigned_bin_size:
;* --------------------------------------------------------------------------*
;* A1    assigned to a
$C$DW$87	.dwtag  DW_TAG_variable, DW_AT_name("a")
	.dwattr $C$DW$87, DW_AT_TI_symbol_name("a")
	.dwattr $C$DW$87, DW_AT_type(*$C$DW$T$497)
	.dwattr $C$DW$87, DW_AT_location[DW_OP_reg0]
	.dwcfi	cfa_offset, 0
;* 1936	-----------------------    return fp_unsigned_bin_size(a);
	.dwpsn	file "C:/wolfssl/ctaocrypt/src/tfm.c",line 1936,column 3,is_stmt,isa 1
$C$DW$88	.dwtag  DW_TAG_TI_branch
	.dwattr $C$DW$88, DW_AT_low_pc(0x00)
	.dwattr $C$DW$88, DW_AT_name("fp_unsigned_bin_size")
	.dwattr $C$DW$88, DW_AT_TI_call
	.dwattr $C$DW$88, DW_AT_TI_return
        CRET      fp_unsigned_bin_size  ; [DPU_3_PIPE] |1936| 
        ; CALL OCCURS {fp_unsigned_bin_size }  ; [] |1936| 
	.dwattr $C$DW$85, DW_AT_TI_end_file("C:/wolfssl/ctaocrypt/src/tfm.c")
	.dwattr $C$DW$85, DW_AT_TI_end_line(0x791)
	.dwattr $C$DW$85, DW_AT_TI_end_column(0x01)
	.dwendentry
	.dwendtag $C$DW$85

	.sect	".text:fp_mod_2d"
	.clink
	.thumbfunc fp_mod_2d
	.thumb
	.global	fp_mod_2d

$C$DW$89	.dwtag  DW_TAG_subprogram, DW_AT_name("fp_mod_2d")
	.dwattr $C$DW$89, DW_AT_low_pc(fp_mod_2d)
	.dwattr $C$DW$89, DW_AT_high_pc(0x00)
	.dwattr $C$DW$89, DW_AT_TI_symbol_name("fp_mod_2d")
	.dwattr $C$DW$89, DW_AT_external
	.dwattr $C$DW$89, DW_AT_TI_begin_file("C:/wolfssl/ctaocrypt/src/tfm.c")
	.dwattr $C$DW$89, DW_AT_TI_begin_line(0x2bd)
	.dwattr $C$DW$89, DW_AT_TI_begin_column(0x06)
	.dwattr $C$DW$89, DW_AT_decl_file("C:/wolfssl/ctaocrypt/src/tfm.c")
	.dwattr $C$DW$89, DW_AT_decl_line(0x2bd)
	.dwattr $C$DW$89, DW_AT_decl_column(0x06)
	.dwattr $C$DW$89, DW_AT_TI_max_frame_size(0x10)
	.dwpsn	file "C:/wolfssl/ctaocrypt/src/tfm.c",line 702,column 1,is_stmt,address fp_mod_2d,isa 1

	.dwfde $C$DW$CIE, fp_mod_2d
$C$DW$90	.dwtag  DW_TAG_formal_parameter, DW_AT_name("a")
	.dwattr $C$DW$90, DW_AT_TI_symbol_name("a")
	.dwattr $C$DW$90, DW_AT_type(*$C$DW$T$492)
	.dwattr $C$DW$90, DW_AT_location[DW_OP_reg0]
$C$DW$91	.dwtag  DW_TAG_formal_parameter, DW_AT_name("b")
	.dwattr $C$DW$91, DW_AT_TI_symbol_name("b")
	.dwattr $C$DW$91, DW_AT_type(*$C$DW$T$10)
	.dwattr $C$DW$91, DW_AT_location[DW_OP_reg1]
$C$DW$92	.dwtag  DW_TAG_formal_parameter, DW_AT_name("c")
	.dwattr $C$DW$92, DW_AT_TI_symbol_name("c")
	.dwattr $C$DW$92, DW_AT_type(*$C$DW$T$492)
	.dwattr $C$DW$92, DW_AT_location[DW_OP_reg2]

;*****************************************************************************
;* FUNCTION NAME: fp_mod_2d                                                  *
;*                                                                           *
;*   Regs Modified     : A1,A2,A3,A4,V1,V2,V3,V9,SP,LR,SR,D0,D0_hi,D1,D1_hi, *
;*                           D2,D2_hi,D3,D3_hi,D4,D4_hi,D5,D5_hi,D6,D6_hi,D7,*
;*                           D7_hi,FPEXC,FPSCR                               *
;*   Regs Used         : A1,A2,A3,A4,V1,V2,V3,V9,SP,LR,SR,D0,D0_hi,D1,D1_hi, *
;*                           D2,D2_hi,D3,D3_hi,D4,D4_hi,D5,D5_hi,D6,D6_hi,D7,*
;*                           D7_hi,FPEXC,FPSCR                               *
;*   Local Frame Size  : 0 Args + 0 Auto + 16 Save = 16 byte                 *
;*****************************************************************************
fp_mod_2d:
;* --------------------------------------------------------------------------*
;* A1    assigned to $O$C2
$C$DW$93	.dwtag  DW_TAG_variable, DW_AT_name("$O$C2")
	.dwattr $C$DW$93, DW_AT_TI_symbol_name("$O$C2")
	.dwattr $C$DW$93, DW_AT_type(*$C$DW$T$10)
	.dwattr $C$DW$93, DW_AT_location[DW_OP_reg0]
;* V1    assigned to $O$d1
$C$DW$94	.dwtag  DW_TAG_variable, DW_AT_name("$O$d1")
	.dwattr $C$DW$94, DW_AT_TI_symbol_name("$O$d1")
	.dwattr $C$DW$94, DW_AT_type(*$C$DW$T$10)
	.dwattr $C$DW$94, DW_AT_location[DW_OP_reg4]
;* A3    assigned to $O$d2
$C$DW$95	.dwtag  DW_TAG_variable, DW_AT_name("$O$d2")
	.dwattr $C$DW$95, DW_AT_TI_symbol_name("$O$d2")
	.dwattr $C$DW$95, DW_AT_type(*$C$DW$T$10)
	.dwattr $C$DW$95, DW_AT_location[DW_OP_reg2]
;* A1    assigned to $O$V0
$C$DW$96	.dwtag  DW_TAG_variable, DW_AT_name("$O$V0")
	.dwattr $C$DW$96, DW_AT_TI_symbol_name("$O$V0")
	.dwattr $C$DW$96, DW_AT_type(*$C$DW$T$10)
	.dwattr $C$DW$96, DW_AT_location[DW_OP_reg0]
;* A1    assigned to x
$C$DW$97	.dwtag  DW_TAG_variable, DW_AT_name("x")
	.dwattr $C$DW$97, DW_AT_TI_symbol_name("x")
	.dwattr $C$DW$97, DW_AT_type(*$C$DW$T$10)
	.dwattr $C$DW$97, DW_AT_location[DW_OP_reg0]
;* V2    assigned to c
$C$DW$98	.dwtag  DW_TAG_variable, DW_AT_name("c")
	.dwattr $C$DW$98, DW_AT_TI_symbol_name("c")
	.dwattr $C$DW$98, DW_AT_type(*$C$DW$T$493)
	.dwattr $C$DW$98, DW_AT_location[DW_OP_reg5]
;* V1    assigned to b
$C$DW$99	.dwtag  DW_TAG_variable, DW_AT_name("b")
	.dwattr $C$DW$99, DW_AT_TI_symbol_name("b")
	.dwattr $C$DW$99, DW_AT_type(*$C$DW$T$977)
	.dwattr $C$DW$99, DW_AT_location[DW_OP_reg4]
;* V3    assigned to a
$C$DW$100	.dwtag  DW_TAG_variable, DW_AT_name("a")
	.dwattr $C$DW$100, DW_AT_TI_symbol_name("a")
	.dwattr $C$DW$100, DW_AT_type(*$C$DW$T$493)
	.dwattr $C$DW$100, DW_AT_location[DW_OP_reg6]
;* A2    assigned to $O$U59
$C$DW$101	.dwtag  DW_TAG_variable, DW_AT_name("$O$U59")
	.dwattr $C$DW$101, DW_AT_TI_symbol_name("$O$U59")
	.dwattr $C$DW$101, DW_AT_type(*$C$DW$T$1013)
	.dwattr $C$DW$101, DW_AT_location[DW_OP_reg1]
;* A2    assigned to $O$U31
$C$DW$102	.dwtag  DW_TAG_variable, DW_AT_name("$O$U31")
	.dwattr $C$DW$102, DW_AT_TI_symbol_name("$O$U31")
	.dwattr $C$DW$102, DW_AT_type(*$C$DW$T$1013)
	.dwattr $C$DW$102, DW_AT_location[DW_OP_reg1]
;* A4    assigned to $O$K28
$C$DW$103	.dwtag  DW_TAG_variable, DW_AT_name("$O$K28")
	.dwattr $C$DW$103, DW_AT_TI_symbol_name("$O$K28")
	.dwattr $C$DW$103, DW_AT_type(*$C$DW$T$11)
	.dwattr $C$DW$103, DW_AT_location[DW_OP_reg3]
	.dwcfi	cfa_offset, 0
;** 706	-----------------------    if ( b <= 0 ) goto g19;
        PUSH      {V1, V2, V3, LR}      ; [DPU_3_PIPE] 
	.dwcfi	cfa_offset, 16
	.dwcfi	save_reg_to_mem, 14, -4
	.dwcfi	save_reg_to_mem, 6, -8
	.dwcfi	save_reg_to_mem, 5, -12
	.dwcfi	save_reg_to_mem, 4, -16
        MOV       V1, A2                ; [DPU_3_PIPE] |702| 
        MOV       V2, A3                ; [DPU_3_PIPE] |702| 
        MOV       V3, A1                ; [DPU_3_PIPE] |702| 
	.dwpsn	file "C:/wolfssl/ctaocrypt/src/tfm.c",line 706,column 4,is_stmt,isa 1
        CMP       V1, #0                ; [DPU_3_PIPE] |706| 
        BLE       ||$C$L38||            ; [DPU_3_PIPE] |706| 
        ; BRANCHCC OCCURS {||$C$L38||}   ; [] |706| 
;* --------------------------------------------------------------------------*
;** 712	-----------------------    if ( a == c ) goto g4;
	.dwpsn	file "C:/wolfssl/ctaocrypt/src/tfm.c",line 712,column 4,is_stmt,isa 1
        CMP       V2, V3                ; [DPU_3_PIPE] |712| 
        BEQ       ||$C$L31||            ; [DPU_3_PIPE] |712| 
        ; BRANCHCC OCCURS {||$C$L31||}   ; [] |712| 
;* --------------------------------------------------------------------------*
;** 712	-----------------------    *(void *)c = *(const void *)a;
        MOV       A1, A3                ; [DPU_3_PIPE] 
        MOV       A2, V3                ; [DPU_3_PIPE] |712| 
        MOV       A3, #552              ; [DPU_3_PIPE] |712| 
$C$DW$104	.dwtag  DW_TAG_TI_branch
	.dwattr $C$DW$104, DW_AT_low_pc(0x00)
	.dwattr $C$DW$104, DW_AT_name("memcpy")
	.dwattr $C$DW$104, DW_AT_TI_call
        BL        memcpy                ; [DPU_3_PIPE] |712| 
        ; CALL OCCURS {memcpy }          ; [] |712| 
;* --------------------------------------------------------------------------*
||$C$L31||:    
;**	-----------------------g4:
;** 715	-----------------------    if ( b >= (*a).used<<5 ) goto g20;
	.dwpsn	file "C:/wolfssl/ctaocrypt/src/tfm.c",line 715,column 4,is_stmt,isa 1
        LDR       A1, [V3, #544]        ; [DPU_3_PIPE] |715| 
        CMP       V1, A1, LSL #5        ; [DPU_3_PIPE] |715| 
        BGE       ||$C$L39||            ; [DPU_3_PIPE] |715| 
        ; BRANCHCC OCCURS {||$C$L39||}   ; [] |715| 
;* --------------------------------------------------------------------------*
;** 720	-----------------------    x = (b>>5)+((b&0x1f) != 0);
;** 720	-----------------------    if ( x >= (*c).used ) goto g8;
	.dwpsn	file "C:/wolfssl/ctaocrypt/src/tfm.c",line 720,column 8,is_stmt,isa 1
        MOVS      A1, #0                ; [DPU_3_PIPE] |720| 
        TST       V1, #31               ; [DPU_3_PIPE] |720| 
        IT        NE                    ; [DPU_3_PIPE] 
        MOVNE     A1, #1                ; [DPU_3_PIPE] |720| 
	.dwpsn	file "C:/wolfssl/ctaocrypt/src/tfm.c",line 720,column 62,is_stmt,isa 1
        LDR       A2, [V2, #544]        ; [DPU_3_PIPE] |720| 
	.dwpsn	file "C:/wolfssl/ctaocrypt/src/tfm.c",line 720,column 8,is_stmt,isa 1
        ADD       A1, A1, V1, ASR #5    ; [DPU_3_PIPE] |720| 
	.dwpsn	file "C:/wolfssl/ctaocrypt/src/tfm.c",line 720,column 62,is_stmt,isa 1
        CMP       A2, A1                ; [DPU_3_PIPE] |720| 
        BLE       ||$C$L33||            ; [DPU_3_PIPE] |720| 
        ; BRANCHCC OCCURS {||$C$L33||}   ; [] |720| 
;* --------------------------------------------------------------------------*
;**  	-----------------------    K$28 = 0u;
;**  	-----------------------    U$31 = x*4+(unsigned *)c;
;**  	-----------------------    #pragma LOOP_FLAGS(4096u)
        MOVS      A4, #0                ; [DPU_3_PIPE] 
        ADD       A2, V2, A1, LSL #2    ; [DPU_3_PIPE] 
;* --------------------------------------------------------------------------*
;*   BEGIN LOOP ||$C$L32||
;*
;*   Loop source line                : 720
;*   Loop closing brace source line  : 722
;*   Known Minimum Trip Count        : 1
;*   Known Maximum Trip Count        : 4294967295
;*   Known Max Trip Count Factor     : 1
;* --------------------------------------------------------------------------*
||$C$L32||:    
;**	-----------------------g7:
;** 721	-----------------------    *U$31++ = K$28;
;** 720	-----------------------    if ( (*c).used > (++x) ) goto g7;
	.dwpsn	file "C:/wolfssl/ctaocrypt/src/tfm.c",line 721,column 5,is_stmt,isa 1
        STR       A4, [A2], #4          ; [DPU_3_PIPE] |721| 
	.dwpsn	file "C:/wolfssl/ctaocrypt/src/tfm.c",line 720,column 62,is_stmt,isa 1
        LDR       A3, [V2, #544]        ; [DPU_3_PIPE] |720| 
        ADDS      A1, A1, #1            ; [DPU_3_PIPE] |720| 
        CMP       A1, A3                ; [DPU_3_PIPE] |720| 
        BLT       ||$C$L32||            ; [DPU_3_PIPE] |720| 
        ; BRANCHCC OCCURS {||$C$L32||}   ; [] |720| 
;* --------------------------------------------------------------------------*
||$C$L33||:    
;**	-----------------------g8:
;** 724	-----------------------    *((b>>3>>2)*4+(unsigned *)c) &= 0xffffffffu>>32-b;
;** 725	-----------------------    if ( !(C$2 = (*c).used) ) goto g18;
	.dwpsn	file "C:/wolfssl/ctaocrypt/src/tfm.c",line 724,column 3,is_stmt,isa 1
        ASRS      A1, V1, #5            ; [DPU_3_PIPE] |724| 
        LSLS      A2, A1, #2            ; [DPU_3_PIPE] |724| 
        LDR       A3, [V2, +A2]         ; [DPU_3_PIPE] |724| 
        MOV       LR, #-1               ; [DPU_3_PIPE] |724| 
        RSB       V1, V1, #32           ; [DPU_3_PIPE] |724| 
        LSR       A1, LR, V1            ; [DPU_3_PIPE] |724| 
        ANDS      A1, A1, A3            ; [DPU_3_PIPE] |724| 
        STR       A1, [V2, +A2]         ; [DPU_3_PIPE] |724| 
	.dwpsn	file "C:/wolfssl/ctaocrypt/src/tfm.c",line 725,column 3,is_stmt,isa 1
        LDR       A1, [V2, #544]        ; [DPU_3_PIPE] |725| 
        CBZ       A1, ||$C$L37||        ; [] 
        ; BRANCHCC OCCURS {||$C$L37||}   ; [] |725| 
;* --------------------------------------------------------------------------*
;**  	-----------------------    V$0 = C$2;
;** 725	-----------------------    d$2 = V$0>>1;
;** 725	-----------------------    d$1 = V$0&1;
;** 725	-----------------------    if ( V$0 < 2 ) goto g14;
        CMP       A1, #2                ; [DPU_3_PIPE] |725| 
        ASR       A3, A1, #1            ; [DPU_3_PIPE] |725| 
        AND       V1, A1, #1            ; [DPU_3_PIPE] |725| 
        BLT       ||$C$L35||            ; [DPU_3_PIPE] |725| 
        ; BRANCHCC OCCURS {||$C$L35||}   ; [] |725| 
;* --------------------------------------------------------------------------*
;**  	-----------------------    U$59 = V$0*4+(unsigned *)c;
;**  	-----------------------    #pragma MUST_ITERATE(1, 1073741823, 1)
;**  	-----------------------    // LOOP BELOW UNROLLED BY FACTOR(2)
;**  	-----------------------    #pragma LOOP_FLAGS(4358u)
        ADD       A2, V2, A1, LSL #2    ; [DPU_3_PIPE] 
;* --------------------------------------------------------------------------*
;*   BEGIN LOOP ||$C$L34||
;*
;*   Loop source line                : 725
;*   Loop closing brace source line  : 725
;*   Loop Unroll Multiple            : 2x
;*   Known Minimum Trip Count        : 1
;*   Known Maximum Trip Count        : 1073741823
;*   Known Max Trip Count Factor     : 1
;* --------------------------------------------------------------------------*
||$C$L34||:    
;**	-----------------------g11:
;** 725	-----------------------    if ( *(--U$59) ) goto g17;
        LDR       A4, [A2, #-4]!        ; [DPU_3_PIPE] |725| 
        CBNZ      A4, ||$C$L36||        ; [] 
        ; BRANCHCC OCCURS {||$C$L36||}   ; [] |725| 
;* --------------------------------------------------------------------------*
;** 725	-----------------------    (*c).used = --V$0;
;** 725	-----------------------    if ( *(--U$59) ) goto g17;
        SUBS      A1, A1, #1            ; [DPU_3_PIPE] |725| 
        STR       A1, [V2, #544]        ; [DPU_3_PIPE] |725| 
        LDR       A4, [A2, #-4]!        ; [DPU_3_PIPE] |725| 
        CBNZ      A4, ||$C$L36||        ; [] 
        ; BRANCHCC OCCURS {||$C$L36||}   ; [] |725| 
;* --------------------------------------------------------------------------*
;** 725	-----------------------    (*c).used = --V$0;
;** 725	-----------------------    if ( --d$2 ) goto g11;
        SUBS      A1, A1, #1            ; [DPU_3_PIPE] |725| 
        SUBS      A3, A3, #1            ; [DPU_3_PIPE] |725| 
        STR       A1, [V2, #544]        ; [DPU_3_PIPE] |725| 
        BNE       ||$C$L34||            ; [DPU_3_PIPE] |725| 
        ; BRANCHCC OCCURS {||$C$L34||}   ; [] |725| 
;* --------------------------------------------------------------------------*
||$C$L35||:    
;**	-----------------------g14:
;**  	-----------------------    if ( d$1 <= 0 ) goto g18;
        CMP       V1, #0                ; [DPU_3_PIPE] 
        BLE       ||$C$L37||            ; [DPU_3_PIPE] 
        ; BRANCHCC OCCURS {||$C$L37||}   ; [] 
;* --------------------------------------------------------------------------*
; Peeled loop iterations for unrolled loop:
;** 725	-----------------------    if ( *(V$0*4+(unsigned *)c-4) ) goto g17;
;** 725	-----------------------    (*c).used = --V$0;
;**  	-----------------------    goto g18;
        ADD       A2, V2, A1, LSL #2    ; [DPU_3_PIPE] |725| 
        LDR       A2, [A2, #-4]         ; [DPU_3_PIPE] |725| 
        CMP       A2, #0                ; [DPU_3_PIPE] |725| 
        ITT       EQ                    ; [DPU_3_PIPE] 
        SUBEQ     A1, A1, #1            ; [DPU_3_PIPE] |725| 
        STREQ     A1, [V2, #544]        ; [DPU_3_PIPE] |725| 
        BEQ       ||$C$L37||            ; [DPU_3_PIPE] 
        ; BRANCHCC OCCURS {||$C$L37||}   ; [] 
;* --------------------------------------------------------------------------*
||$C$L36||:    
;**	-----------------------g17:
;** 725	-----------------------    if ( (*c).used ) goto g20;
        LDR       A1, [V2, #544]        ; [DPU_3_PIPE] |725| 
        CBNZ      A1, ||$C$L39||        ; [] 
        ; BRANCHCC OCCURS {||$C$L39||}   ; [] |725| 
;* --------------------------------------------------------------------------*
||$C$L37||:    
;**	-----------------------g18:
;** 725	-----------------------    (*c).sign = 0;
;** 725	-----------------------    goto g20;
        MOVS      A1, #0                ; [DPU_3_PIPE] |725| 
        STR       A1, [V2, #548]        ; [DPU_3_PIPE] |725| 
$C$DW$105	.dwtag  DW_TAG_TI_branch
	.dwattr $C$DW$105, DW_AT_low_pc(0x00)
	.dwattr $C$DW$105, DW_AT_TI_return
        POP       {V1, V2, V3, PC}      ; [DPU_3_PIPE] 
	.dwcfi	cfa_offset, 0
        ; BRANCH OCCURS                  ; [] 
	.dwcfi	restore_reg, 6
	.dwcfi	restore_reg, 5
	.dwcfi	restore_reg, 4
;* --------------------------------------------------------------------------*
||$C$L38||:    
;**	-----------------------g19:
;** 707	-----------------------    memset((void *)c, 0, 552u);
;**	-----------------------g20:
;**  	-----------------------    return;
        MOV       A1, A3                ; [DPU_3_PIPE] 
	.dwpsn	file "C:/wolfssl/ctaocrypt/src/tfm.c",line 707,column 7,is_stmt,isa 1
        MOVS      A2, #0                ; [DPU_3_PIPE] |707| 
        MOV       A3, #552              ; [DPU_3_PIPE] |707| 
$C$DW$106	.dwtag  DW_TAG_TI_branch
	.dwattr $C$DW$106, DW_AT_low_pc(0x00)
	.dwattr $C$DW$106, DW_AT_name("memset")
	.dwattr $C$DW$106, DW_AT_TI_call
        BL        memset                ; [DPU_3_PIPE] |707| 
        ; CALL OCCURS {memset }          ; [] |707| 
;* --------------------------------------------------------------------------*
||$C$L39||:    
$C$DW$107	.dwtag  DW_TAG_TI_branch
	.dwattr $C$DW$107, DW_AT_low_pc(0x00)
	.dwattr $C$DW$107, DW_AT_TI_return
        POP       {V1, V2, V3, PC}      ; [DPU_3_PIPE] 
	.dwcfi	cfa_offset, 0
        ; BRANCH OCCURS                  ; [] 
	.dwattr $C$DW$89, DW_AT_TI_end_file("C:/wolfssl/ctaocrypt/src/tfm.c")
	.dwattr $C$DW$89, DW_AT_TI_end_line(0x2d6)
	.dwattr $C$DW$89, DW_AT_TI_end_column(0x01)
	.dwendentry
	.dwendtag $C$DW$89

	.sect	".text:fp_rshd"
	.clink
	.thumbfunc fp_rshd
	.thumb
	.global	fp_rshd

$C$DW$108	.dwtag  DW_TAG_subprogram, DW_AT_name("fp_rshd")
	.dwattr $C$DW$108, DW_AT_low_pc(fp_rshd)
	.dwattr $C$DW$108, DW_AT_high_pc(0x00)
	.dwattr $C$DW$108, DW_AT_TI_symbol_name("fp_rshd")
	.dwattr $C$DW$108, DW_AT_external
	.dwattr $C$DW$108, DW_AT_TI_begin_file("C:/wolfssl/ctaocrypt/src/tfm.c")
	.dwattr $C$DW$108, DW_AT_TI_begin_line(0x6f9)
	.dwattr $C$DW$108, DW_AT_TI_begin_column(0x06)
	.dwattr $C$DW$108, DW_AT_decl_file("C:/wolfssl/ctaocrypt/src/tfm.c")
	.dwattr $C$DW$108, DW_AT_decl_line(0x6f9)
	.dwattr $C$DW$108, DW_AT_decl_column(0x06)
	.dwattr $C$DW$108, DW_AT_TI_max_frame_size(0x10)
	.dwpsn	file "C:/wolfssl/ctaocrypt/src/tfm.c",line 1786,column 1,is_stmt,address fp_rshd,isa 1

	.dwfde $C$DW$CIE, fp_rshd
$C$DW$109	.dwtag  DW_TAG_formal_parameter, DW_AT_name("a")
	.dwattr $C$DW$109, DW_AT_TI_symbol_name("a")
	.dwattr $C$DW$109, DW_AT_type(*$C$DW$T$492)
	.dwattr $C$DW$109, DW_AT_location[DW_OP_reg0]
$C$DW$110	.dwtag  DW_TAG_formal_parameter, DW_AT_name("x")
	.dwattr $C$DW$110, DW_AT_TI_symbol_name("x")
	.dwattr $C$DW$110, DW_AT_type(*$C$DW$T$10)
	.dwattr $C$DW$110, DW_AT_location[DW_OP_reg1]

;*****************************************************************************
;* FUNCTION NAME: fp_rshd                                                    *
;*                                                                           *
;*   Regs Modified     : A1,A2,A3,A4,V1,V2,V3,V9,SP,LR,SR,D0,D0_hi,D1,D1_hi, *
;*                           D2,D2_hi,D3,D3_hi,D4,D4_hi,D5,D5_hi,D6,D6_hi,D7,*
;*                           D7_hi,FPEXC,FPSCR                               *
;*   Regs Used         : A1,A2,A3,A4,V1,V2,V3,V9,SP,LR,SR,D0,D0_hi,D1,D1_hi, *
;*                           D2,D2_hi,D3,D3_hi,D4,D4_hi,D5,D5_hi,D6,D6_hi,D7,*
;*                           D7_hi,FPEXC,FPSCR                               *
;*   Local Frame Size  : 0 Args + 0 Auto + 16 Save = 16 byte                 *
;*****************************************************************************
fp_rshd:
;* --------------------------------------------------------------------------*
;* A2    assigned to $O$C1
$C$DW$111	.dwtag  DW_TAG_variable, DW_AT_name("$O$C1")
	.dwattr $C$DW$111, DW_AT_TI_symbol_name("$O$C1")
	.dwattr $C$DW$111, DW_AT_type(*$C$DW$T$10)
	.dwattr $C$DW$111, DW_AT_location[DW_OP_reg1]
;* V1    assigned to $O$U16
$C$DW$112	.dwtag  DW_TAG_variable, DW_AT_name("$O$U16")
	.dwattr $C$DW$112, DW_AT_TI_symbol_name("$O$U16")
	.dwattr $C$DW$112, DW_AT_type(*$C$DW$T$1013)
	.dwattr $C$DW$112, DW_AT_location[DW_OP_reg4]
;* V2    assigned to $O$K26
$C$DW$113	.dwtag  DW_TAG_variable, DW_AT_name("$O$K26")
	.dwattr $C$DW$113, DW_AT_TI_symbol_name("$O$K26")
	.dwattr $C$DW$113, DW_AT_type(*$C$DW$T$11)
	.dwattr $C$DW$113, DW_AT_location[DW_OP_reg5]
;* A3    assigned to $O$U40
$C$DW$114	.dwtag  DW_TAG_variable, DW_AT_name("$O$U40")
	.dwattr $C$DW$114, DW_AT_TI_symbol_name("$O$U40")
	.dwattr $C$DW$114, DW_AT_type(*$C$DW$T$1013)
	.dwattr $C$DW$114, DW_AT_location[DW_OP_reg2]
;* A1    assigned to a
$C$DW$115	.dwtag  DW_TAG_variable, DW_AT_name("a")
	.dwattr $C$DW$115, DW_AT_TI_symbol_name("a")
	.dwattr $C$DW$115, DW_AT_type(*$C$DW$T$493)
	.dwattr $C$DW$115, DW_AT_location[DW_OP_reg0]
;* A2    assigned to x
$C$DW$116	.dwtag  DW_TAG_variable, DW_AT_name("x")
	.dwattr $C$DW$116, DW_AT_TI_symbol_name("x")
	.dwattr $C$DW$116, DW_AT_type(*$C$DW$T$977)
	.dwattr $C$DW$116, DW_AT_location[DW_OP_reg1]
;* A4    assigned to y
$C$DW$117	.dwtag  DW_TAG_variable, DW_AT_name("y")
	.dwattr $C$DW$117, DW_AT_TI_symbol_name("y")
	.dwattr $C$DW$117, DW_AT_type(*$C$DW$T$10)
	.dwattr $C$DW$117, DW_AT_location[DW_OP_reg3]
;* A2    assigned to $O$V0
$C$DW$118	.dwtag  DW_TAG_variable, DW_AT_name("$O$V0")
	.dwattr $C$DW$118, DW_AT_TI_symbol_name("$O$V0")
	.dwattr $C$DW$118, DW_AT_type(*$C$DW$T$10)
	.dwattr $C$DW$118, DW_AT_location[DW_OP_reg1]
;* A4    assigned to $O$d2
$C$DW$119	.dwtag  DW_TAG_variable, DW_AT_name("$O$d2")
	.dwattr $C$DW$119, DW_AT_TI_symbol_name("$O$d2")
	.dwattr $C$DW$119, DW_AT_type(*$C$DW$T$10)
	.dwattr $C$DW$119, DW_AT_location[DW_OP_reg3]
;* V2    assigned to $O$d1
$C$DW$120	.dwtag  DW_TAG_variable, DW_AT_name("$O$d1")
	.dwattr $C$DW$120, DW_AT_TI_symbol_name("$O$d1")
	.dwattr $C$DW$120, DW_AT_type(*$C$DW$T$10)
	.dwattr $C$DW$120, DW_AT_location[DW_OP_reg5]
;* A3    assigned to $O$U4
$C$DW$121	.dwtag  DW_TAG_variable, DW_AT_name("$O$U4")
	.dwattr $C$DW$121, DW_AT_TI_symbol_name("$O$U4")
	.dwattr $C$DW$121, DW_AT_type(*$C$DW$T$10)
	.dwattr $C$DW$121, DW_AT_location[DW_OP_reg2]
;* V2    assigned to $O$U18
$C$DW$122	.dwtag  DW_TAG_variable, DW_AT_name("$O$U18")
	.dwattr $C$DW$122, DW_AT_TI_symbol_name("$O$U18")
	.dwattr $C$DW$122, DW_AT_type(*$C$DW$T$1013)
	.dwattr $C$DW$122, DW_AT_location[DW_OP_reg5]
;* A3    assigned to $O$U18
$C$DW$123	.dwtag  DW_TAG_variable, DW_AT_name("$O$U18")
	.dwattr $C$DW$123, DW_AT_TI_symbol_name("$O$U18")
	.dwattr $C$DW$123, DW_AT_type(*$C$DW$T$1013)
	.dwattr $C$DW$123, DW_AT_location[DW_OP_reg2]
	.dwcfi	cfa_offset, 0
;* 1790	-----------------------    U$4 = (*a).used;
;* 1790	-----------------------    if ( x >= U$4 ) goto g19;
        PUSH      {V1, V2, V3, LR}      ; [DPU_3_PIPE] 
	.dwcfi	cfa_offset, 16
	.dwcfi	save_reg_to_mem, 14, -4
	.dwcfi	save_reg_to_mem, 6, -8
	.dwcfi	save_reg_to_mem, 5, -12
	.dwcfi	save_reg_to_mem, 4, -16
	.dwpsn	file "C:/wolfssl/ctaocrypt/src/tfm.c",line 1790,column 3,is_stmt,isa 1
        LDR       A3, [A1, #544]        ; [DPU_3_PIPE] |1790| 
        CMP       A3, A2                ; [DPU_3_PIPE] |1790| 
        BLE       ||$C$L48||            ; [DPU_3_PIPE] |1790| 
        ; BRANCHCC OCCURS {||$C$L48||}   ; [] |1790| 
;* --------------------------------------------------------------------------*
;* 1796	-----------------------    y = 0;
;* 1796	-----------------------    if ( U$4-x <= 0 ) goto g5;
	.dwpsn	file "C:/wolfssl/ctaocrypt/src/tfm.c",line 1796,column 16,is_stmt,isa 1
        SUBS      V1, A3, A2            ; [DPU_3_PIPE] |1796| 
	.dwpsn	file "C:/wolfssl/ctaocrypt/src/tfm.c",line 1796,column 9,is_stmt,isa 1
        MOV       A4, #0                ; [DPU_3_PIPE] |1796| 
	.dwpsn	file "C:/wolfssl/ctaocrypt/src/tfm.c",line 1796,column 16,is_stmt,isa 1
        BLE       ||$C$L41||            ; [DPU_3_PIPE] |1796| 
        ; BRANCHCC OCCURS {||$C$L41||}   ; [] |1796| 
;* --------------------------------------------------------------------------*
;**  	-----------------------    U$16 = x*4+(unsigned *)a;
;**  	-----------------------    U$18 = (unsigned *)a;
;**  	-----------------------    #pragma LOOP_FLAGS(4096u)
        ADD       V1, A1, A2, LSL #2    ; [DPU_3_PIPE] 
        MOV       V2, A1                ; [DPU_3_PIPE] 
;* --------------------------------------------------------------------------*
;*   BEGIN LOOP ||$C$L40||
;*
;*   Loop source line                : 1796
;*   Loop closing brace source line  : 1798
;*   Known Minimum Trip Count        : 1
;*   Known Maximum Trip Count        : 4294967295
;*   Known Max Trip Count Factor     : 1
;* --------------------------------------------------------------------------*
||$C$L40||:    
;**	-----------------------g4:
;* 1797	-----------------------    *U$18++ = *U$16++;
;* 1796	-----------------------    U$4 = (*a).used;
;* 1796	-----------------------    if ( U$4-x > (++y) ) goto g4;
	.dwpsn	file "C:/wolfssl/ctaocrypt/src/tfm.c",line 1797,column 7,is_stmt,isa 1
        LDR       A3, [V1], #4          ; [DPU_3_PIPE] |1797| 
        STR       A3, [V2], #4          ; [DPU_3_PIPE] |1797| 
	.dwpsn	file "C:/wolfssl/ctaocrypt/src/tfm.c",line 1796,column 16,is_stmt,isa 1
        LDR       A3, [A1, #544]        ; [DPU_3_PIPE] |1796| 
        ADDS      A4, A4, #1            ; [DPU_3_PIPE] |1796| 
        SUBS      V3, A3, A2            ; [DPU_3_PIPE] |1796| 
        CMP       A4, V3                ; [DPU_3_PIPE] |1796| 
        BLT       ||$C$L40||            ; [DPU_3_PIPE] |1796| 
        ; BRANCHCC OCCURS {||$C$L40||}   ; [] |1796| 
;* --------------------------------------------------------------------------*
||$C$L41||:    
;**	-----------------------g5:
;* 1801	-----------------------    if ( y >= U$4 ) goto g8;
	.dwpsn	file "C:/wolfssl/ctaocrypt/src/tfm.c",line 1801,column 11,is_stmt,isa 1
        CMP       A3, A4                ; [DPU_3_PIPE] |1801| 
        BLE       ||$C$L43||            ; [DPU_3_PIPE] |1801| 
        ; BRANCHCC OCCURS {||$C$L43||}   ; [] |1801| 
;* --------------------------------------------------------------------------*
;**  	-----------------------    U$18 = y*4+(unsigned *)a;
;**  	-----------------------    K$26 = 0u;
;**  	-----------------------    #pragma LOOP_FLAGS(4096u)
        ADD       A3, A1, A4, LSL #2    ; [DPU_3_PIPE] 
        MOVS      V2, #0                ; [DPU_3_PIPE] 
;* --------------------------------------------------------------------------*
;*   BEGIN LOOP ||$C$L42||
;*
;*   Loop source line                : 1801
;*   Loop closing brace source line  : 1803
;*   Known Minimum Trip Count        : 1
;*   Known Maximum Trip Count        : 4294967295
;*   Known Max Trip Count Factor     : 1
;* --------------------------------------------------------------------------*
||$C$L42||:    
;**	-----------------------g7:
;* 1802	-----------------------    *U$18++ = K$26;
;* 1801	-----------------------    if ( (*a).used > (++y) ) goto g7;
	.dwpsn	file "C:/wolfssl/ctaocrypt/src/tfm.c",line 1802,column 7,is_stmt,isa 1
        STR       V2, [A3], #4          ; [DPU_3_PIPE] |1802| 
	.dwpsn	file "C:/wolfssl/ctaocrypt/src/tfm.c",line 1801,column 11,is_stmt,isa 1
        LDR       V1, [A1, #544]        ; [DPU_3_PIPE] |1801| 
        ADDS      A4, A4, #1            ; [DPU_3_PIPE] |1801| 
        CMP       A4, V1                ; [DPU_3_PIPE] |1801| 
        BLT       ||$C$L42||            ; [DPU_3_PIPE] |1801| 
        ; BRANCHCC OCCURS {||$C$L42||}   ; [] |1801| 
;* --------------------------------------------------------------------------*
||$C$L43||:    
;**	-----------------------g8:
;* 1806	-----------------------    (*a).used -= x;
;* 1807	-----------------------    if ( !(C$1 = (*a).used) ) goto g18;
	.dwpsn	file "C:/wolfssl/ctaocrypt/src/tfm.c",line 1806,column 4,is_stmt,isa 1
        LDR       A3, [A1, #544]        ; [DPU_3_PIPE] |1806| 
        SUBS      A3, A3, A2            ; [DPU_3_PIPE] |1806| 
        STR       A3, [A1, #544]        ; [DPU_3_PIPE] |1806| 
	.dwpsn	file "C:/wolfssl/ctaocrypt/src/tfm.c",line 1807,column 4,is_stmt,isa 1
        LDR       A2, [A1, #544]        ; [DPU_3_PIPE] |1807| 
        CBZ       A2, ||$C$L47||        ; [] 
        ; BRANCHCC OCCURS {||$C$L47||}   ; [] |1807| 
;* --------------------------------------------------------------------------*
;**  	-----------------------    V$0 = C$1;
;* 1807	-----------------------    d$2 = V$0>>1;
;* 1807	-----------------------    d$1 = V$0&1;
;* 1807	-----------------------    if ( V$0 < 2 ) goto g14;
        CMP       A2, #2                ; [DPU_3_PIPE] |1807| 
        ASR       A4, A2, #1            ; [DPU_3_PIPE] |1807| 
        AND       V2, A2, #1            ; [DPU_3_PIPE] |1807| 
        BLT       ||$C$L45||            ; [DPU_3_PIPE] |1807| 
        ; BRANCHCC OCCURS {||$C$L45||}   ; [] |1807| 
;* --------------------------------------------------------------------------*
;**  	-----------------------    U$40 = V$0*4+(unsigned *)a;
;**  	-----------------------    #pragma MUST_ITERATE(1, 1073741823, 1)
;**  	-----------------------    // LOOP BELOW UNROLLED BY FACTOR(2)
;**  	-----------------------    #pragma LOOP_FLAGS(4358u)
        ADD       A3, A1, A2, LSL #2    ; [DPU_3_PIPE] 
;* --------------------------------------------------------------------------*
;*   BEGIN LOOP ||$C$L44||
;*
;*   Loop source line                : 1807
;*   Loop closing brace source line  : 1807
;*   Loop Unroll Multiple            : 2x
;*   Known Minimum Trip Count        : 1
;*   Known Maximum Trip Count        : 1073741823
;*   Known Max Trip Count Factor     : 1
;* --------------------------------------------------------------------------*
||$C$L44||:    
;**	-----------------------g11:
;* 1807	-----------------------    if ( *(--U$40) ) goto g17;
        LDR       V1, [A3, #-4]!        ; [DPU_3_PIPE] |1807| 
        CBNZ      V1, ||$C$L46||        ; [] 
        ; BRANCHCC OCCURS {||$C$L46||}   ; [] |1807| 
;* --------------------------------------------------------------------------*
;* 1807	-----------------------    (*a).used = --V$0;
;* 1807	-----------------------    if ( *(--U$40) ) goto g17;
        SUBS      A2, A2, #1            ; [DPU_3_PIPE] |1807| 
        STR       A2, [A1, #544]        ; [DPU_3_PIPE] |1807| 
        LDR       V1, [A3, #-4]!        ; [DPU_3_PIPE] |1807| 
        CBNZ      V1, ||$C$L46||        ; [] 
        ; BRANCHCC OCCURS {||$C$L46||}   ; [] |1807| 
;* --------------------------------------------------------------------------*
;* 1807	-----------------------    (*a).used = --V$0;
;* 1807	-----------------------    if ( --d$2 ) goto g11;
        SUBS      A2, A2, #1            ; [DPU_3_PIPE] |1807| 
        SUBS      A4, A4, #1            ; [DPU_3_PIPE] |1807| 
        STR       A2, [A1, #544]        ; [DPU_3_PIPE] |1807| 
        BNE       ||$C$L44||            ; [DPU_3_PIPE] |1807| 
        ; BRANCHCC OCCURS {||$C$L44||}   ; [] |1807| 
;* --------------------------------------------------------------------------*
||$C$L45||:    
;**	-----------------------g14:
;**  	-----------------------    if ( d$1 <= 0 ) goto g18;
        CMP       V2, #0                ; [DPU_3_PIPE] 
        BLE       ||$C$L47||            ; [DPU_3_PIPE] 
        ; BRANCHCC OCCURS {||$C$L47||}   ; [] 
;* --------------------------------------------------------------------------*
; Peeled loop iterations for unrolled loop:
;* 1807	-----------------------    if ( *(V$0*4+(unsigned *)a-4) ) goto g17;
;* 1807	-----------------------    (*a).used = --V$0;
;**  	-----------------------    goto g18;
        ADD       A3, A1, A2, LSL #2    ; [DPU_3_PIPE] |1807| 
        LDR       A3, [A3, #-4]         ; [DPU_3_PIPE] |1807| 
        CMP       A3, #0                ; [DPU_3_PIPE] |1807| 
        ITT       EQ                    ; [DPU_3_PIPE] 
        SUBEQ     A2, A2, #1            ; [DPU_3_PIPE] |1807| 
        STREQ     A2, [A1, #544]        ; [DPU_3_PIPE] |1807| 
        BEQ       ||$C$L47||            ; [DPU_3_PIPE] 
        ; BRANCHCC OCCURS {||$C$L47||}   ; [] 
;* --------------------------------------------------------------------------*
||$C$L46||:    
;**	-----------------------g17:
;* 1807	-----------------------    if ( (*a).used ) goto g20;
        LDR       A2, [A1, #544]        ; [DPU_3_PIPE] |1807| 
        CBNZ      A2, ||$C$L49||        ; [] 
        ; BRANCHCC OCCURS {||$C$L49||}   ; [] |1807| 
;* --------------------------------------------------------------------------*
||$C$L47||:    
;**	-----------------------g18:
;* 1807	-----------------------    (*a).sign = 0;
;* 1807	-----------------------    goto g20;
        MOVS      A2, #0                ; [DPU_3_PIPE] |1807| 
        STR       A2, [A1, #548]        ; [DPU_3_PIPE] |1807| 
$C$DW$124	.dwtag  DW_TAG_TI_branch
	.dwattr $C$DW$124, DW_AT_low_pc(0x00)
	.dwattr $C$DW$124, DW_AT_TI_return
        POP       {V1, V2, V3, PC}      ; [DPU_3_PIPE] 
	.dwcfi	cfa_offset, 0
        ; BRANCH OCCURS                  ; [] 
	.dwcfi	restore_reg, 6
	.dwcfi	restore_reg, 5
	.dwcfi	restore_reg, 4
;* --------------------------------------------------------------------------*
||$C$L48||:    
;**	-----------------------g19:
;* 1791	-----------------------    memset((void *)a, 0, 552u);
;**	-----------------------g20:
;**  	-----------------------    return;
	.dwpsn	file "C:/wolfssl/ctaocrypt/src/tfm.c",line 1791,column 6,is_stmt,isa 1
        MOVS      A2, #0                ; [DPU_3_PIPE] |1791| 
        MOV       A3, #552              ; [DPU_3_PIPE] |1791| 
$C$DW$125	.dwtag  DW_TAG_TI_branch
	.dwattr $C$DW$125, DW_AT_low_pc(0x00)
	.dwattr $C$DW$125, DW_AT_name("memset")
	.dwattr $C$DW$125, DW_AT_TI_call
        BL        memset                ; [DPU_3_PIPE] |1791| 
        ; CALL OCCURS {memset }          ; [] |1791| 
;* --------------------------------------------------------------------------*
||$C$L49||:    
$C$DW$126	.dwtag  DW_TAG_TI_branch
	.dwattr $C$DW$126, DW_AT_low_pc(0x00)
	.dwattr $C$DW$126, DW_AT_TI_return
        POP       {V1, V2, V3, PC}      ; [DPU_3_PIPE] 
	.dwcfi	cfa_offset, 0
        ; BRANCH OCCURS                  ; [] 
	.dwattr $C$DW$108, DW_AT_TI_end_file("C:/wolfssl/ctaocrypt/src/tfm.c")
	.dwattr $C$DW$108, DW_AT_TI_end_line(0x710)
	.dwattr $C$DW$108, DW_AT_TI_end_column(0x01)
	.dwendentry
	.dwendtag $C$DW$108

	.sect	".text:fp_rshb"
	.clink
	.thumbfunc fp_rshb
	.thumb
	.global	fp_rshb

$C$DW$127	.dwtag  DW_TAG_subprogram, DW_AT_name("fp_rshb")
	.dwattr $C$DW$127, DW_AT_low_pc(fp_rshb)
	.dwattr $C$DW$127, DW_AT_high_pc(0x00)
	.dwattr $C$DW$127, DW_AT_TI_symbol_name("fp_rshb")
	.dwattr $C$DW$127, DW_AT_external
	.dwattr $C$DW$127, DW_AT_TI_begin_file("C:/wolfssl/ctaocrypt/src/tfm.c")
	.dwattr $C$DW$127, DW_AT_TI_begin_line(0x6da)
	.dwattr $C$DW$127, DW_AT_TI_begin_column(0x06)
	.dwattr $C$DW$127, DW_AT_decl_file("C:/wolfssl/ctaocrypt/src/tfm.c")
	.dwattr $C$DW$127, DW_AT_decl_line(0x6da)
	.dwattr $C$DW$127, DW_AT_decl_column(0x06)
	.dwattr $C$DW$127, DW_AT_TI_max_frame_size(0x18)
	.dwpsn	file "C:/wolfssl/ctaocrypt/src/tfm.c",line 1755,column 1,is_stmt,address fp_rshb,isa 1

	.dwfde $C$DW$CIE, fp_rshb
$C$DW$128	.dwtag  DW_TAG_formal_parameter, DW_AT_name("c")
	.dwattr $C$DW$128, DW_AT_TI_symbol_name("c")
	.dwattr $C$DW$128, DW_AT_type(*$C$DW$T$492)
	.dwattr $C$DW$128, DW_AT_location[DW_OP_reg0]
$C$DW$129	.dwtag  DW_TAG_formal_parameter, DW_AT_name("x")
	.dwattr $C$DW$129, DW_AT_TI_symbol_name("x")
	.dwattr $C$DW$129, DW_AT_type(*$C$DW$T$10)
	.dwattr $C$DW$129, DW_AT_location[DW_OP_reg1]

;*****************************************************************************
;* FUNCTION NAME: fp_rshb                                                    *
;*                                                                           *
;*   Regs Modified     : A1,A3,A4,V1,V2,V3,V4,V9,SP,SR                       *
;*   Regs Used         : A1,A2,A3,A4,V1,V2,V3,V4,V9,SP,LR,SR                 *
;*   Local Frame Size  : 0 Args + 0 Auto + 20 Save = 20 byte                 *
;*****************************************************************************
fp_rshb:
;* --------------------------------------------------------------------------*
;* A1    assigned to $O$C1
$C$DW$130	.dwtag  DW_TAG_variable, DW_AT_name("$O$C1")
	.dwattr $C$DW$130, DW_AT_TI_symbol_name("$O$C1")
	.dwattr $C$DW$130, DW_AT_type(*$C$DW$T$11)
	.dwattr $C$DW$130, DW_AT_location[DW_OP_reg0]
;* A1    assigned to $O$C2
$C$DW$131	.dwtag  DW_TAG_variable, DW_AT_name("$O$C2")
	.dwattr $C$DW$131, DW_AT_TI_symbol_name("$O$C2")
	.dwattr $C$DW$131, DW_AT_type(*$C$DW$T$11)
	.dwattr $C$DW$131, DW_AT_location[DW_OP_reg0]
;* V1    assigned to $O$C3
$C$DW$132	.dwtag  DW_TAG_variable, DW_AT_name("$O$C3")
	.dwattr $C$DW$132, DW_AT_TI_symbol_name("$O$C3")
	.dwattr $C$DW$132, DW_AT_type(*$C$DW$T$10)
	.dwattr $C$DW$132, DW_AT_location[DW_OP_reg4]
;* A1    assigned to c
$C$DW$133	.dwtag  DW_TAG_variable, DW_AT_name("c")
	.dwattr $C$DW$133, DW_AT_TI_symbol_name("c")
	.dwattr $C$DW$133, DW_AT_type(*$C$DW$T$493)
	.dwattr $C$DW$133, DW_AT_location[DW_OP_reg0]
;* A2    assigned to x
$C$DW$134	.dwtag  DW_TAG_variable, DW_AT_name("x")
	.dwattr $C$DW$134, DW_AT_TI_symbol_name("x")
	.dwattr $C$DW$134, DW_AT_type(*$C$DW$T$977)
	.dwattr $C$DW$134, DW_AT_location[DW_OP_reg1]
;* A1    assigned to tmpc
$C$DW$135	.dwtag  DW_TAG_variable, DW_AT_name("tmpc")
	.dwattr $C$DW$135, DW_AT_TI_symbol_name("tmpc")
	.dwattr $C$DW$135, DW_AT_type(*$C$DW$T$955)
	.dwattr $C$DW$135, DW_AT_location[DW_OP_reg0]
;* A4    assigned to mask
$C$DW$136	.dwtag  DW_TAG_variable, DW_AT_name("mask")
	.dwattr $C$DW$136, DW_AT_TI_symbol_name("mask")
	.dwattr $C$DW$136, DW_AT_type(*$C$DW$T$122)
	.dwattr $C$DW$136, DW_AT_location[DW_OP_reg3]
;* V2    assigned to shift
$C$DW$137	.dwtag  DW_TAG_variable, DW_AT_name("shift")
	.dwattr $C$DW$137, DW_AT_TI_symbol_name("shift")
	.dwattr $C$DW$137, DW_AT_type(*$C$DW$T$122)
	.dwattr $C$DW$137, DW_AT_location[DW_OP_reg5]
;* V3    assigned to $O$d2
$C$DW$138	.dwtag  DW_TAG_variable, DW_AT_name("$O$d2")
	.dwattr $C$DW$138, DW_AT_TI_symbol_name("$O$d2")
	.dwattr $C$DW$138, DW_AT_type(*$C$DW$T$10)
	.dwattr $C$DW$138, DW_AT_location[DW_OP_reg6]
;* V4    assigned to $O$d1
$C$DW$139	.dwtag  DW_TAG_variable, DW_AT_name("$O$d1")
	.dwattr $C$DW$139, DW_AT_TI_symbol_name("$O$d1")
	.dwattr $C$DW$139, DW_AT_type(*$C$DW$T$10)
	.dwattr $C$DW$139, DW_AT_location[DW_OP_reg7]
;* A3    assigned to r
$C$DW$140	.dwtag  DW_TAG_variable, DW_AT_name("r")
	.dwattr $C$DW$140, DW_AT_TI_symbol_name("r")
	.dwattr $C$DW$140, DW_AT_type(*$C$DW$T$122)
	.dwattr $C$DW$140, DW_AT_location[DW_OP_reg2]
;* A1    assigned to rr
$C$DW$141	.dwtag  DW_TAG_variable, DW_AT_name("rr")
	.dwattr $C$DW$141, DW_AT_TI_symbol_name("rr")
	.dwattr $C$DW$141, DW_AT_type(*$C$DW$T$122)
	.dwattr $C$DW$141, DW_AT_location[DW_OP_reg0]
;* A1    assigned to rr
$C$DW$142	.dwtag  DW_TAG_variable, DW_AT_name("rr")
	.dwattr $C$DW$142, DW_AT_TI_symbol_name("rr")
	.dwattr $C$DW$142, DW_AT_type(*$C$DW$T$122)
	.dwattr $C$DW$142, DW_AT_location[DW_OP_reg0]
	.dwcfi	cfa_offset, 0
;* 1761	-----------------------    mask = (1u<<(unsigned)x)-1u;
;* 1764	-----------------------    shift = 32u-(unsigned)x;
;* 1767	-----------------------    C$3 = (*c).used;
;* 1767	-----------------------    tmpc = C$3*4+(unsigned *)c-4;
;* 1771	-----------------------    if ( C$3 <= 0 ) goto g7;
        PUSH      {A4, V1, V2, V3, V4, LR} ; [DPU_3_PIPE] 
	.dwcfi	cfa_offset, 24
	.dwcfi	save_reg_to_mem, 14, -4
	.dwcfi	save_reg_to_mem, 7, -8
	.dwcfi	save_reg_to_mem, 6, -12
	.dwcfi	save_reg_to_mem, 5, -16
	.dwcfi	save_reg_to_mem, 4, -20
	.dwcfi	save_reg_to_mem, 3, -24
	.dwpsn	file "C:/wolfssl/ctaocrypt/src/tfm.c",line 1767,column 5,is_stmt,isa 1
        LDR       V1, [A1, #544]        ; [DPU_3_PIPE] |1767| 
	.dwpsn	file "C:/wolfssl/ctaocrypt/src/tfm.c",line 1761,column 5,is_stmt,isa 1
        MOVS      A4, #1                ; [DPU_3_PIPE] |1761| 
	.dwpsn	file "C:/wolfssl/ctaocrypt/src/tfm.c",line 1764,column 5,is_stmt,isa 1
        RSB       V2, A2, #32           ; [DPU_3_PIPE] |1764| 
	.dwpsn	file "C:/wolfssl/ctaocrypt/src/tfm.c",line 1761,column 5,is_stmt,isa 1
        LSLS      A4, A4, A2            ; [DPU_3_PIPE] |1761| 
	.dwpsn	file "C:/wolfssl/ctaocrypt/src/tfm.c",line 1767,column 5,is_stmt,isa 1
        ADD       A1, A1, V1, LSL #2    ; [DPU_3_PIPE] |1767| 
	.dwpsn	file "C:/wolfssl/ctaocrypt/src/tfm.c",line 1771,column 27,is_stmt,isa 1
        CMP       V1, #0                ; [DPU_3_PIPE] |1771| 
	.dwpsn	file "C:/wolfssl/ctaocrypt/src/tfm.c",line 1761,column 5,is_stmt,isa 1
        SUB       A4, A4, #1            ; [DPU_3_PIPE] |1761| 
	.dwpsn	file "C:/wolfssl/ctaocrypt/src/tfm.c",line 1767,column 5,is_stmt,isa 1
        SUB       A1, A1, #4            ; [DPU_3_PIPE] |1767| 
	.dwpsn	file "C:/wolfssl/ctaocrypt/src/tfm.c",line 1771,column 27,is_stmt,isa 1
        BLE       ||$C$L52||            ; [DPU_3_PIPE] |1771| 
        ; BRANCHCC OCCURS {||$C$L52||}   ; [] |1771| 
;* --------------------------------------------------------------------------*
;* 1773	-----------------------    d$2 = C$3>>1;
;* 1773	-----------------------    d$1 = C$3&1;
;* 1770	-----------------------    r = 0u;
;* 1773	-----------------------    if ( C$3 < 2 ) goto g5;
	.dwpsn	file "C:/wolfssl/ctaocrypt/src/tfm.c",line 1773,column 7,is_stmt,isa 1
        CMP       V1, #2                ; [DPU_3_PIPE] |1773| 
        ASR       V3, V1, #1            ; [DPU_3_PIPE] |1773| 
        AND       V4, V1, #1            ; [DPU_3_PIPE] |1773| 
	.dwpsn	file "C:/wolfssl/ctaocrypt/src/tfm.c",line 1770,column 5,is_stmt,isa 1
        MOV       A3, #0                ; [DPU_3_PIPE] |1770| 
	.dwpsn	file "C:/wolfssl/ctaocrypt/src/tfm.c",line 1773,column 7,is_stmt,isa 1
        BLT       ||$C$L51||            ; [DPU_3_PIPE] |1773| 
        ; BRANCHCC OCCURS {||$C$L51||}   ; [] |1773| 
;* --------------------------------------------------------------------------*
;**  	-----------------------    #pragma MUST_ITERATE(1, 1073741823, 1)
;**  	-----------------------    // LOOP BELOW UNROLLED BY FACTOR(2)
;**  	-----------------------    #pragma LOOP_FLAGS(4102u)
;* --------------------------------------------------------------------------*
;*   BEGIN LOOP ||$C$L50||
;*
;*   Loop source line                : 1771
;*   Loop closing brace source line  : 1781
;*   Loop Unroll Multiple            : 2x
;*   Known Minimum Trip Count        : 1
;*   Known Maximum Trip Count        : 1073741823
;*   Known Max Trip Count Factor     : 1
;* --------------------------------------------------------------------------*
||$C$L50||:    
;**	-----------------------g4:
;* 1773	-----------------------    C$2 = *tmpc;
;* 1773	-----------------------    rr = C$2&mask;
;* 1776	-----------------------    *tmpc-- = C$2>>(unsigned)x|r<<shift;
;* 1773	-----------------------    C$1 = *tmpc;
;* 1773	-----------------------    rr = C$1&mask;
;* 1776	-----------------------    *tmpc-- = C$1>>(unsigned)x|rr<<shift;
;* 1780	-----------------------    r = rr;
;* 1771	-----------------------    if ( --d$2 ) goto g4;
        LDR       V1, [A1, #0]          ; [DPU_3_PIPE] |1773| 
	.dwpsn	file "C:/wolfssl/ctaocrypt/src/tfm.c",line 1776,column 7,is_stmt,isa 1
        LSLS      A3, A3, V2            ; [DPU_3_PIPE] |1776| 
        LSR       V9, V1, A2            ; [DPU_3_PIPE] |1776| 
        ORR       A3, A3, V9            ; [DPU_3_PIPE] |1776| 
        STR       A3, [A1], #-4         ; [DPU_3_PIPE] |1776| 
	.dwpsn	file "C:/wolfssl/ctaocrypt/src/tfm.c",line 1773,column 7,is_stmt,isa 1
        LDR       A3, [A1, #0]          ; [DPU_3_PIPE] |1773| 
	.dwpsn	file "C:/wolfssl/ctaocrypt/src/tfm.c",line 1771,column 27,is_stmt,isa 1
        SUBS      V3, V3, #1            ; [DPU_3_PIPE] |1771| 
	.dwpsn	file "C:/wolfssl/ctaocrypt/src/tfm.c",line 1773,column 7,is_stmt,isa 1
        AND       V1, A4, V1            ; [DPU_3_PIPE] |1773| 
	.dwpsn	file "C:/wolfssl/ctaocrypt/src/tfm.c",line 1776,column 7,is_stmt,isa 1
        LSL       V1, V1, V2            ; [DPU_3_PIPE] |1776| 
        LSR       V9, A3, A2            ; [DPU_3_PIPE] |1776| 
        ORR       V1, V1, V9            ; [DPU_3_PIPE] |1776| 
	.dwpsn	file "C:/wolfssl/ctaocrypt/src/tfm.c",line 1773,column 7,is_stmt,isa 1
        AND       A3, A4, A3            ; [DPU_3_PIPE] |1773| 
	.dwpsn	file "C:/wolfssl/ctaocrypt/src/tfm.c",line 1776,column 7,is_stmt,isa 1
        STR       V1, [A1], #-4         ; [DPU_3_PIPE] |1776| 
	.dwpsn	file "C:/wolfssl/ctaocrypt/src/tfm.c",line 1771,column 27,is_stmt,isa 1
        BNE       ||$C$L50||            ; [DPU_3_PIPE] |1771| 
        ; BRANCHCC OCCURS {||$C$L50||}   ; [] |1771| 
;* --------------------------------------------------------------------------*
||$C$L51||:    
;**	-----------------------g5:
;**  	-----------------------    if ( d$1 <= 0 ) goto g7;
        CMP       V4, #0                ; [DPU_3_PIPE] 
        BLE       ||$C$L52||            ; [DPU_3_PIPE] 
        ; BRANCHCC OCCURS {||$C$L52||}   ; [] 
;* --------------------------------------------------------------------------*
; Peeled loop iterations for unrolled loop:
;* 1776	-----------------------    *tmpc = *tmpc>>(unsigned)x|r<<shift;
;**	-----------------------g7:
;**  	-----------------------    return;
	.dwpsn	file "C:/wolfssl/ctaocrypt/src/tfm.c",line 1776,column 7,is_stmt,isa 1
        LDR       A4, [A1, #0]          ; [DPU_3_PIPE] |1776| 
        LSLS      A3, A3, V2            ; [DPU_3_PIPE] |1776| 
        LSRS      A4, A4, A2            ; [DPU_3_PIPE] |1776| 
        ORRS      A3, A3, A4            ; [DPU_3_PIPE] |1776| 
        STR       A3, [A1, #0]          ; [DPU_3_PIPE] |1776| 
;* --------------------------------------------------------------------------*
||$C$L52||:    
$C$DW$143	.dwtag  DW_TAG_TI_branch
	.dwattr $C$DW$143, DW_AT_low_pc(0x00)
	.dwattr $C$DW$143, DW_AT_TI_return
        POP       {A4, V1, V2, V3, V4, PC} ; [DPU_3_PIPE] 
	.dwcfi	cfa_offset, 0
        ; BRANCH OCCURS                  ; [] 
	.dwattr $C$DW$127, DW_AT_TI_end_file("C:/wolfssl/ctaocrypt/src/tfm.c")
	.dwattr $C$DW$127, DW_AT_TI_end_line(0x6f6)
	.dwattr $C$DW$127, DW_AT_TI_end_column(0x01)
	.dwendentry
	.dwendtag $C$DW$127

	.sect	".text:fp_div_2d"
	.clink
	.thumbfunc fp_div_2d
	.thumb
	.global	fp_div_2d

$C$DW$144	.dwtag  DW_TAG_subprogram, DW_AT_name("fp_div_2d")
	.dwattr $C$DW$144, DW_AT_low_pc(fp_div_2d)
	.dwattr $C$DW$144, DW_AT_high_pc(0x00)
	.dwattr $C$DW$144, DW_AT_TI_symbol_name("fp_div_2d")
	.dwattr $C$DW$144, DW_AT_external
	.dwattr $C$DW$144, DW_AT_TI_begin_file("C:/wolfssl/ctaocrypt/src/tfm.c")
	.dwattr $C$DW$144, DW_AT_TI_begin_line(0x282)
	.dwattr $C$DW$144, DW_AT_TI_begin_column(0x06)
	.dwattr $C$DW$144, DW_AT_decl_file("C:/wolfssl/ctaocrypt/src/tfm.c")
	.dwattr $C$DW$144, DW_AT_decl_line(0x282)
	.dwattr $C$DW$144, DW_AT_decl_column(0x06)
	.dwattr $C$DW$144, DW_AT_TI_max_frame_size(0x240)
	.dwpsn	file "C:/wolfssl/ctaocrypt/src/tfm.c",line 643,column 1,is_stmt,address fp_div_2d,isa 1

	.dwfde $C$DW$CIE, fp_div_2d
$C$DW$145	.dwtag  DW_TAG_formal_parameter, DW_AT_name("a")
	.dwattr $C$DW$145, DW_AT_TI_symbol_name("a")
	.dwattr $C$DW$145, DW_AT_type(*$C$DW$T$492)
	.dwattr $C$DW$145, DW_AT_location[DW_OP_reg0]
$C$DW$146	.dwtag  DW_TAG_formal_parameter, DW_AT_name("b")
	.dwattr $C$DW$146, DW_AT_TI_symbol_name("b")
	.dwattr $C$DW$146, DW_AT_type(*$C$DW$T$10)
	.dwattr $C$DW$146, DW_AT_location[DW_OP_reg1]
$C$DW$147	.dwtag  DW_TAG_formal_parameter, DW_AT_name("c")
	.dwattr $C$DW$147, DW_AT_TI_symbol_name("c")
	.dwattr $C$DW$147, DW_AT_type(*$C$DW$T$492)
	.dwattr $C$DW$147, DW_AT_location[DW_OP_reg2]
$C$DW$148	.dwtag  DW_TAG_formal_parameter, DW_AT_name("d")
	.dwattr $C$DW$148, DW_AT_TI_symbol_name("d")
	.dwattr $C$DW$148, DW_AT_type(*$C$DW$T$492)
	.dwattr $C$DW$148, DW_AT_location[DW_OP_reg3]

;*****************************************************************************
;* FUNCTION NAME: fp_div_2d                                                  *
;*                                                                           *
;*   Regs Modified     : A1,A2,A3,A4,V1,V2,V3,V4,V9,SP,LR,SR,D0,D0_hi,D1,    *
;*                           D1_hi,D2,D2_hi,D3,D3_hi,D4,D4_hi,D5,D5_hi,D6,   *
;*                           D6_hi,D7,D7_hi,FPEXC,FPSCR                      *
;*   Regs Used         : A1,A2,A3,A4,V1,V2,V3,V4,V9,SP,LR,SR,D0,D0_hi,D1,    *
;*                           D1_hi,D2,D2_hi,D3,D3_hi,D4,D4_hi,D5,D5_hi,D6,   *
;*                           D6_hi,D7,D7_hi,FPEXC,FPSCR                      *
;*   Local Frame Size  : 0 Args + 552 Auto + 20 Save = 572 byte              *
;*****************************************************************************
fp_div_2d:
;* --------------------------------------------------------------------------*
;* A1    assigned to $O$C3
$C$DW$149	.dwtag  DW_TAG_variable, DW_AT_name("$O$C3")
	.dwattr $C$DW$149, DW_AT_TI_symbol_name("$O$C3")
	.dwattr $C$DW$149, DW_AT_type(*$C$DW$T$10)
	.dwattr $C$DW$149, DW_AT_location[DW_OP_reg0]
;* V3    assigned to $O$d1
$C$DW$150	.dwtag  DW_TAG_variable, DW_AT_name("$O$d1")
	.dwattr $C$DW$150, DW_AT_TI_symbol_name("$O$d1")
	.dwattr $C$DW$150, DW_AT_type(*$C$DW$T$10)
	.dwattr $C$DW$150, DW_AT_location[DW_OP_reg6]
;* A3    assigned to $O$d2
$C$DW$151	.dwtag  DW_TAG_variable, DW_AT_name("$O$d2")
	.dwattr $C$DW$151, DW_AT_TI_symbol_name("$O$d2")
	.dwattr $C$DW$151, DW_AT_type(*$C$DW$T$10)
	.dwattr $C$DW$151, DW_AT_location[DW_OP_reg2]
;* A1    assigned to $O$V0
$C$DW$152	.dwtag  DW_TAG_variable, DW_AT_name("$O$V0")
	.dwattr $C$DW$152, DW_AT_TI_symbol_name("$O$V0")
	.dwattr $C$DW$152, DW_AT_type(*$C$DW$T$10)
	.dwattr $C$DW$152, DW_AT_location[DW_OP_reg0]
;* V2    assigned to d
$C$DW$153	.dwtag  DW_TAG_variable, DW_AT_name("d")
	.dwattr $C$DW$153, DW_AT_TI_symbol_name("d")
	.dwattr $C$DW$153, DW_AT_type(*$C$DW$T$493)
	.dwattr $C$DW$153, DW_AT_location[DW_OP_reg5]
;* V1    assigned to c
$C$DW$154	.dwtag  DW_TAG_variable, DW_AT_name("c")
	.dwattr $C$DW$154, DW_AT_TI_symbol_name("c")
	.dwattr $C$DW$154, DW_AT_type(*$C$DW$T$493)
	.dwattr $C$DW$154, DW_AT_location[DW_OP_reg4]
;* V3    assigned to b
$C$DW$155	.dwtag  DW_TAG_variable, DW_AT_name("b")
	.dwattr $C$DW$155, DW_AT_TI_symbol_name("b")
	.dwattr $C$DW$155, DW_AT_type(*$C$DW$T$977)
	.dwattr $C$DW$155, DW_AT_location[DW_OP_reg6]
;* V4    assigned to a
$C$DW$156	.dwtag  DW_TAG_variable, DW_AT_name("a")
	.dwattr $C$DW$156, DW_AT_TI_symbol_name("a")
	.dwattr $C$DW$156, DW_AT_type(*$C$DW$T$493)
	.dwattr $C$DW$156, DW_AT_location[DW_OP_reg7]
;* A2    assigned to $O$U44
$C$DW$157	.dwtag  DW_TAG_variable, DW_AT_name("$O$U44")
	.dwattr $C$DW$157, DW_AT_TI_symbol_name("$O$U44")
	.dwattr $C$DW$157, DW_AT_type(*$C$DW$T$1013)
	.dwattr $C$DW$157, DW_AT_location[DW_OP_reg1]
;* A2    assigned to $O$K23
$C$DW$158	.dwtag  DW_TAG_variable, DW_AT_name("$O$K23")
	.dwattr $C$DW$158, DW_AT_TI_symbol_name("$O$K23")
	.dwattr $C$DW$158, DW_AT_type(*$C$DW$T$10)
	.dwattr $C$DW$158, DW_AT_location[DW_OP_reg1]
$C$DW$159	.dwtag  DW_TAG_variable, DW_AT_name("t")
	.dwattr $C$DW$159, DW_AT_TI_symbol_name("t")
	.dwattr $C$DW$159, DW_AT_type(*$C$DW$T$491)
	.dwattr $C$DW$159, DW_AT_location[DW_OP_breg13 0]
	.dwcfi	cfa_offset, 0
;** 648	-----------------------    if ( b <= 0 ) goto g23;
        PUSH      {V1, V2, V3, V4, LR}  ; [DPU_3_PIPE] 
	.dwcfi	cfa_offset, 20
	.dwcfi	save_reg_to_mem, 14, -4
	.dwcfi	save_reg_to_mem, 7, -8
	.dwcfi	save_reg_to_mem, 6, -12
	.dwcfi	save_reg_to_mem, 5, -16
	.dwcfi	save_reg_to_mem, 4, -20
        MOV       V3, A2                ; [DPU_3_PIPE] |643| 
        MOV       V2, A4                ; [DPU_3_PIPE] |643| 
        MOV       V1, A3                ; [DPU_3_PIPE] |643| 
        MOV       V4, A1                ; [DPU_3_PIPE] |643| 
        SUB       SP, SP, #508          ; [DPU_3_PIPE] 
	.dwcfi	cfa_offset, 528
	.dwpsn	file "C:/wolfssl/ctaocrypt/src/tfm.c",line 648,column 3,is_stmt,isa 1
        CMP       V3, #0                ; [DPU_3_PIPE] |648| 
        SUB       SP, SP, #48           ; [DPU_3_PIPE] 
	.dwcfi	cfa_offset, 576
        BLE       ||$C$L62||            ; [DPU_3_PIPE] |648| 
        ; BRANCHCC OCCURS {||$C$L62||}   ; [] |648| 
;* --------------------------------------------------------------------------*
;** 656	-----------------------    memset(&t, 0, 552u);
;** 659	-----------------------    if ( d == NULL ) goto g4;
	.dwpsn	file "C:/wolfssl/ctaocrypt/src/tfm.c",line 656,column 3,is_stmt,isa 1
        MOV       A1, SP                ; [DPU_3_PIPE] |656| 
        MOVS      A2, #0                ; [DPU_3_PIPE] |656| 
        MOV       A3, #552              ; [DPU_3_PIPE] |656| 
$C$DW$160	.dwtag  DW_TAG_TI_branch
	.dwattr $C$DW$160, DW_AT_low_pc(0x00)
	.dwattr $C$DW$160, DW_AT_name("memset")
	.dwattr $C$DW$160, DW_AT_TI_call
        BL        memset                ; [DPU_3_PIPE] |656| 
        ; CALL OCCURS {memset }          ; [] |656| 
        CBZ       V2, ||$C$L53||        ; [] 
	.dwpsn	file "C:/wolfssl/ctaocrypt/src/tfm.c",line 659,column 3,is_stmt,isa 1
        ; BRANCHCC OCCURS {||$C$L53||}   ; [] |659| 
;* --------------------------------------------------------------------------*
;** 660	-----------------------    fp_mod_2d(a, b, &t);
	.dwpsn	file "C:/wolfssl/ctaocrypt/src/tfm.c",line 660,column 5,is_stmt,isa 1
        MOV       A1, V4                ; [DPU_3_PIPE] |660| 
        MOV       A2, V3                ; [DPU_3_PIPE] |660| 
        MOV       A3, SP                ; [DPU_3_PIPE] |660| 
$C$DW$161	.dwtag  DW_TAG_TI_branch
	.dwattr $C$DW$161, DW_AT_low_pc(0x00)
	.dwattr $C$DW$161, DW_AT_name("fp_mod_2d")
	.dwattr $C$DW$161, DW_AT_TI_call
        BL        fp_mod_2d             ; [DPU_3_PIPE] |660| 
        ; CALL OCCURS {fp_mod_2d }       ; [] |660| 
;* --------------------------------------------------------------------------*
||$C$L53||:    
;**	-----------------------g4:
;** 664	-----------------------    if ( a == c ) goto g6;
	.dwpsn	file "C:/wolfssl/ctaocrypt/src/tfm.c",line 664,column 3,is_stmt,isa 1
        CMP       V1, V4                ; [DPU_3_PIPE] |664| 
        BEQ       ||$C$L54||            ; [DPU_3_PIPE] |664| 
        ; BRANCHCC OCCURS {||$C$L54||}   ; [] |664| 
;* --------------------------------------------------------------------------*
;** 664	-----------------------    *(void *)c = *(const void *)a;
        MOV       A1, V1                ; [DPU_3_PIPE] |664| 
        MOV       A2, V4                ; [DPU_3_PIPE] |664| 
        MOV       A3, #552              ; [DPU_3_PIPE] |664| 
$C$DW$162	.dwtag  DW_TAG_TI_branch
	.dwattr $C$DW$162, DW_AT_low_pc(0x00)
	.dwattr $C$DW$162, DW_AT_name("memcpy")
	.dwattr $C$DW$162, DW_AT_TI_call
        BL        memcpy                ; [DPU_3_PIPE] |664| 
        ; CALL OCCURS {memcpy }          ; [] |664| 
;* --------------------------------------------------------------------------*
||$C$L54||:    
;**	-----------------------g6:
;** 667	-----------------------    if ( b < 32 ) goto g8;
	.dwpsn	file "C:/wolfssl/ctaocrypt/src/tfm.c",line 667,column 3,is_stmt,isa 1
        CMP       V3, #32               ; [DPU_3_PIPE] |667| 
        BLT       ||$C$L55||            ; [DPU_3_PIPE] |667| 
        ; BRANCHCC OCCURS {||$C$L55||}   ; [] |667| 
;* --------------------------------------------------------------------------*
;** 668	-----------------------    fp_rshd(c, b>>5);
	.dwpsn	file "C:/wolfssl/ctaocrypt/src/tfm.c",line 668,column 5,is_stmt,isa 1
        ASRS      A2, V3, #5            ; [DPU_3_PIPE] |668| 
        MOV       A1, V1                ; [DPU_3_PIPE] |668| 
$C$DW$163	.dwtag  DW_TAG_TI_branch
	.dwattr $C$DW$163, DW_AT_low_pc(0x00)
	.dwattr $C$DW$163, DW_AT_name("fp_rshd")
	.dwattr $C$DW$163, DW_AT_TI_call
        BL        fp_rshd               ; [DPU_3_PIPE] |668| 
        ; CALL OCCURS {fp_rshd }         ; [] |668| 
;* --------------------------------------------------------------------------*
||$C$L55||:    
;**	-----------------------g8:
;** 673	-----------------------    if ( !(K$23 = b&0x1f) ) goto g10;
	.dwpsn	file "C:/wolfssl/ctaocrypt/src/tfm.c",line 673,column 3,is_stmt,isa 1
        ANDS      A2, V3, #31           ; [DPU_3_PIPE] |673| 
        BEQ       ||$C$L56||            ; [DPU_3_PIPE] |673| 
        ; BRANCHCC OCCURS {||$C$L56||}   ; [] |673| 
;* --------------------------------------------------------------------------*
;** 674	-----------------------    fp_rshb(c, K$23);
	.dwpsn	file "C:/wolfssl/ctaocrypt/src/tfm.c",line 674,column 5,is_stmt,isa 1
        MOV       A1, V1                ; [DPU_3_PIPE] |674| 
$C$DW$164	.dwtag  DW_TAG_TI_branch
	.dwattr $C$DW$164, DW_AT_low_pc(0x00)
	.dwattr $C$DW$164, DW_AT_name("fp_rshb")
	.dwattr $C$DW$164, DW_AT_TI_call
        BL        fp_rshb               ; [DPU_3_PIPE] |674| 
        ; CALL OCCURS {fp_rshb }         ; [] |674| 
;* --------------------------------------------------------------------------*
||$C$L56||:    
;**	-----------------------g10:
;** 676	-----------------------    if ( !(C$3 = (*c).used) ) goto g20;
	.dwpsn	file "C:/wolfssl/ctaocrypt/src/tfm.c",line 676,column 3,is_stmt,isa 1
        LDR       A1, [V1, #544]        ; [DPU_3_PIPE] |676| 
        CBZ       A1, ||$C$L60||        ; [] 
        ; BRANCHCC OCCURS {||$C$L60||}   ; [] |676| 
;* --------------------------------------------------------------------------*
;**  	-----------------------    V$0 = C$3;
;** 676	-----------------------    d$2 = V$0>>1;
;** 676	-----------------------    d$1 = V$0&1;
;** 676	-----------------------    if ( V$0 < 2 ) goto g16;
        CMP       A1, #2                ; [DPU_3_PIPE] |676| 
        ASR       A3, A1, #1            ; [DPU_3_PIPE] |676| 
        AND       V3, A1, #1            ; [DPU_3_PIPE] |676| 
        BLT       ||$C$L58||            ; [DPU_3_PIPE] |676| 
        ; BRANCHCC OCCURS {||$C$L58||}   ; [] |676| 
;* --------------------------------------------------------------------------*
;**  	-----------------------    U$44 = V$0*4+(unsigned *)c;
;**  	-----------------------    #pragma MUST_ITERATE(1, 1073741823, 1)
;**  	-----------------------    // LOOP BELOW UNROLLED BY FACTOR(2)
;**  	-----------------------    #pragma LOOP_FLAGS(4358u)
        ADD       A2, V1, A1, LSL #2    ; [DPU_3_PIPE] 
;* --------------------------------------------------------------------------*
;*   BEGIN LOOP ||$C$L57||
;*
;*   Loop source line                : 676
;*   Loop closing brace source line  : 676
;*   Loop Unroll Multiple            : 2x
;*   Known Minimum Trip Count        : 1
;*   Known Maximum Trip Count        : 1073741823
;*   Known Max Trip Count Factor     : 1
;* --------------------------------------------------------------------------*
||$C$L57||:    
;**	-----------------------g13:
;** 676	-----------------------    if ( *(--U$44) ) goto g19;
        LDR       A4, [A2, #-4]!        ; [DPU_3_PIPE] |676| 
        CBNZ      A4, ||$C$L59||        ; [] 
        ; BRANCHCC OCCURS {||$C$L59||}   ; [] |676| 
;* --------------------------------------------------------------------------*
;** 676	-----------------------    (*c).used = --V$0;
;** 676	-----------------------    if ( *(--U$44) ) goto g19;
        SUBS      A1, A1, #1            ; [DPU_3_PIPE] |676| 
        STR       A1, [V1, #544]        ; [DPU_3_PIPE] |676| 
        LDR       A4, [A2, #-4]!        ; [DPU_3_PIPE] |676| 
        CBNZ      A4, ||$C$L59||        ; [] 
        ; BRANCHCC OCCURS {||$C$L59||}   ; [] |676| 
;* --------------------------------------------------------------------------*
;** 676	-----------------------    (*c).used = --V$0;
;** 676	-----------------------    if ( --d$2 ) goto g13;
        SUBS      A1, A1, #1            ; [DPU_3_PIPE] |676| 
        SUBS      A3, A3, #1            ; [DPU_3_PIPE] |676| 
        STR       A1, [V1, #544]        ; [DPU_3_PIPE] |676| 
        BNE       ||$C$L57||            ; [DPU_3_PIPE] |676| 
        ; BRANCHCC OCCURS {||$C$L57||}   ; [] |676| 
;* --------------------------------------------------------------------------*
||$C$L58||:    
;**	-----------------------g16:
;**  	-----------------------    if ( d$1 <= 0 ) goto g20;
        CMP       V3, #0                ; [DPU_3_PIPE] 
        BLE       ||$C$L60||            ; [DPU_3_PIPE] 
        ; BRANCHCC OCCURS {||$C$L60||}   ; [] 
;* --------------------------------------------------------------------------*
; Peeled loop iterations for unrolled loop:
;** 676	-----------------------    if ( *(V$0*4+(unsigned *)c-4) ) goto g19;
;** 676	-----------------------    (*c).used = --V$0;
;**  	-----------------------    goto g20;
        ADD       A2, V1, A1, LSL #2    ; [DPU_3_PIPE] |676| 
        LDR       A2, [A2, #-4]         ; [DPU_3_PIPE] |676| 
        CMP       A2, #0                ; [DPU_3_PIPE] |676| 
        ITT       EQ                    ; [DPU_3_PIPE] 
        SUBEQ     A1, A1, #1            ; [DPU_3_PIPE] |676| 
        STREQ     A1, [V1, #544]        ; [DPU_3_PIPE] |676| 
        BEQ       ||$C$L60||            ; [DPU_3_PIPE] 
        ; BRANCHCC OCCURS {||$C$L60||}   ; [] 
;* --------------------------------------------------------------------------*
||$C$L59||:    
;**	-----------------------g19:
;** 676	-----------------------    if ( (*c).used ) goto g21;
        LDR       A1, [V1, #544]        ; [DPU_3_PIPE] |676| 
        CBNZ      A1, ||$C$L61||        ; [] 
        ; BRANCHCC OCCURS {||$C$L61||}   ; [] |676| 
;* --------------------------------------------------------------------------*
||$C$L60||:    
;**	-----------------------g20:
;** 676	-----------------------    (*c).sign = 0;
        MOVS      A1, #0                ; [DPU_3_PIPE] |676| 
        STR       A1, [V1, #548]        ; [DPU_3_PIPE] |676| 
;* --------------------------------------------------------------------------*
||$C$L61||:    
;**	-----------------------g21:
;** 677	-----------------------    if ( d == NULL || &t == d ) goto g27;
        CBZ       V2, ||$C$L64||        ; [] 
	.dwpsn	file "C:/wolfssl/ctaocrypt/src/tfm.c",line 677,column 3,is_stmt,isa 1
        ; BRANCHCC OCCURS {||$C$L64||}   ; [] |677| 
;* --------------------------------------------------------------------------*
        MOV       A2, SP                ; [DPU_3_PIPE] |677| 
        CMP       V2, A2                ; [DPU_3_PIPE] |677| 
        BEQ       ||$C$L64||            ; [DPU_3_PIPE] |677| 
        ; BRANCHCC OCCURS {||$C$L64||}   ; [] |677| 
;* --------------------------------------------------------------------------*
;** 678	-----------------------    memcpy((void *)d, &t, 552u);
;** 678	-----------------------    goto g27;
	.dwpsn	file "C:/wolfssl/ctaocrypt/src/tfm.c",line 678,column 5,is_stmt,isa 1
        MOV       A1, V2                ; [DPU_3_PIPE] |678| 
        MOV       A3, #552              ; [DPU_3_PIPE] |678| 
$C$DW$165	.dwtag  DW_TAG_TI_branch
	.dwattr $C$DW$165, DW_AT_low_pc(0x00)
	.dwattr $C$DW$165, DW_AT_name("memcpy")
	.dwattr $C$DW$165, DW_AT_TI_call
        BL        memcpy                ; [DPU_3_PIPE] |678| 
        ; CALL OCCURS {memcpy }          ; [] |678| 
        B         ||$C$L64||            ; [DPU_3_PIPE] |678| 
        ; BRANCH OCCURS {||$C$L64||}     ; [] |678| 
;* --------------------------------------------------------------------------*
||$C$L62||:    
;**	-----------------------g23:
;** 649	-----------------------    if ( a == c ) goto g25;
	.dwpsn	file "C:/wolfssl/ctaocrypt/src/tfm.c",line 649,column 5,is_stmt,isa 1
        CMP       V1, V4                ; [DPU_3_PIPE] |649| 
        BEQ       ||$C$L63||            ; [DPU_3_PIPE] |649| 
        ; BRANCHCC OCCURS {||$C$L63||}   ; [] |649| 
;* --------------------------------------------------------------------------*
;** 649	-----------------------    *(void *)c = *(const void *)a;
        MOV       A1, A3                ; [DPU_3_PIPE] 
        MOV       A2, V4                ; [DPU_3_PIPE] |649| 
        MOV       A3, #552              ; [DPU_3_PIPE] |649| 
$C$DW$166	.dwtag  DW_TAG_TI_branch
	.dwattr $C$DW$166, DW_AT_low_pc(0x00)
	.dwattr $C$DW$166, DW_AT_name("memcpy")
	.dwattr $C$DW$166, DW_AT_TI_call
        BL        memcpy                ; [DPU_3_PIPE] |649| 
        ; CALL OCCURS {memcpy }          ; [] |649| 
;* --------------------------------------------------------------------------*
||$C$L63||:    
;**	-----------------------g25:
;** 650	-----------------------    if ( d == NULL ) goto g27;
        CBZ       V2, ||$C$L64||        ; [] 
	.dwpsn	file "C:/wolfssl/ctaocrypt/src/tfm.c",line 650,column 5,is_stmt,isa 1
        ; BRANCHCC OCCURS {||$C$L64||}   ; [] |650| 
;* --------------------------------------------------------------------------*
;** 651	-----------------------    memset((void *)d, 0, 552u);
;**	-----------------------g27:
;**  	-----------------------    return;
	.dwpsn	file "C:/wolfssl/ctaocrypt/src/tfm.c",line 651,column 7,is_stmt,isa 1
        MOV       A1, V2                ; [DPU_3_PIPE] |651| 
        MOVS      A2, #0                ; [DPU_3_PIPE] |651| 
        MOV       A3, #552              ; [DPU_3_PIPE] |651| 
$C$DW$167	.dwtag  DW_TAG_TI_branch
	.dwattr $C$DW$167, DW_AT_low_pc(0x00)
	.dwattr $C$DW$167, DW_AT_name("memset")
	.dwattr $C$DW$167, DW_AT_TI_call
        BL        memset                ; [DPU_3_PIPE] |651| 
        ; CALL OCCURS {memset }          ; [] |651| 
;* --------------------------------------------------------------------------*
||$C$L64||:    
        ADD       SP, SP, #508          ; [DPU_3_PIPE] 
	.dwcfi	cfa_offset, 68
        ADD       SP, SP, #48           ; [DPU_3_PIPE] 
	.dwcfi	cfa_offset, 20
$C$DW$168	.dwtag  DW_TAG_TI_branch
	.dwattr $C$DW$168, DW_AT_low_pc(0x00)
	.dwattr $C$DW$168, DW_AT_TI_return
        POP       {V1, V2, V3, V4, PC}  ; [DPU_3_PIPE] 
	.dwcfi	cfa_offset, 0
        ; BRANCH OCCURS                  ; [] 
	.dwattr $C$DW$144, DW_AT_TI_end_file("C:/wolfssl/ctaocrypt/src/tfm.c")
	.dwattr $C$DW$144, DW_AT_TI_end_line(0x2a8)
	.dwattr $C$DW$144, DW_AT_TI_end_column(0x01)
	.dwendentry
	.dwendtag $C$DW$144

	.sect	".text:fp_reverse"
	.clink
	.thumbfunc fp_reverse
	.thumb
	.global	fp_reverse

$C$DW$169	.dwtag  DW_TAG_subprogram, DW_AT_name("fp_reverse")
	.dwattr $C$DW$169, DW_AT_low_pc(fp_reverse)
	.dwattr $C$DW$169, DW_AT_high_pc(0x00)
	.dwattr $C$DW$169, DW_AT_TI_symbol_name("fp_reverse")
	.dwattr $C$DW$169, DW_AT_external
	.dwattr $C$DW$169, DW_AT_TI_begin_file("C:/wolfssl/ctaocrypt/src/tfm.c")
	.dwattr $C$DW$169, DW_AT_TI_begin_line(0x713)
	.dwattr $C$DW$169, DW_AT_TI_begin_column(0x06)
	.dwattr $C$DW$169, DW_AT_decl_file("C:/wolfssl/ctaocrypt/src/tfm.c")
	.dwattr $C$DW$169, DW_AT_decl_line(0x713)
	.dwattr $C$DW$169, DW_AT_decl_column(0x06)
	.dwattr $C$DW$169, DW_AT_TI_max_frame_size(0x18)
	.dwpsn	file "C:/wolfssl/ctaocrypt/src/tfm.c",line 1812,column 1,is_stmt,address fp_reverse,isa 1

	.dwfde $C$DW$CIE, fp_reverse
$C$DW$170	.dwtag  DW_TAG_formal_parameter, DW_AT_name("s")
	.dwattr $C$DW$170, DW_AT_TI_symbol_name("s")
	.dwattr $C$DW$170, DW_AT_type(*$C$DW$T$641)
	.dwattr $C$DW$170, DW_AT_location[DW_OP_reg0]
$C$DW$171	.dwtag  DW_TAG_formal_parameter, DW_AT_name("len")
	.dwattr $C$DW$171, DW_AT_TI_symbol_name("len")
	.dwattr $C$DW$171, DW_AT_type(*$C$DW$T$10)
	.dwattr $C$DW$171, DW_AT_location[DW_OP_reg1]

;*****************************************************************************
;* FUNCTION NAME: fp_reverse                                                 *
;*                                                                           *
;*   Regs Modified     : A2,A3,A4,V1,V2,V3,V4,V9,SP,SR                       *
;*   Regs Used         : A1,A2,A3,A4,V1,V2,V3,V4,V9,SP,LR,SR                 *
;*   Local Frame Size  : 0 Args + 0 Auto + 20 Save = 20 byte                 *
;*****************************************************************************
fp_reverse:
;* --------------------------------------------------------------------------*
;* A3    assigned to $O$U19
$C$DW$172	.dwtag  DW_TAG_variable, DW_AT_name("$O$U19")
	.dwattr $C$DW$172, DW_AT_TI_symbol_name("$O$U19")
	.dwattr $C$DW$172, DW_AT_type(*$C$DW$T$641)
	.dwattr $C$DW$172, DW_AT_location[DW_OP_reg2]
;* A2    assigned to $O$U22
$C$DW$173	.dwtag  DW_TAG_variable, DW_AT_name("$O$U22")
	.dwattr $C$DW$173, DW_AT_TI_symbol_name("$O$U22")
	.dwattr $C$DW$173, DW_AT_type(*$C$DW$T$641)
	.dwattr $C$DW$173, DW_AT_location[DW_OP_reg1]
;* V3    assigned to $O$K11
$C$DW$174	.dwtag  DW_TAG_variable, DW_AT_name("$O$K11")
	.dwattr $C$DW$174, DW_AT_TI_symbol_name("$O$K11")
	.dwattr $C$DW$174, DW_AT_type(*$C$DW$T$10)
	.dwattr $C$DW$174, DW_AT_location[DW_OP_reg6]
;* A1    assigned to s
$C$DW$175	.dwtag  DW_TAG_variable, DW_AT_name("s")
	.dwattr $C$DW$175, DW_AT_TI_symbol_name("s")
	.dwattr $C$DW$175, DW_AT_type(*$C$DW$T$803)
	.dwattr $C$DW$175, DW_AT_location[DW_OP_reg0]
;* A2    assigned to len
$C$DW$176	.dwtag  DW_TAG_variable, DW_AT_name("len")
	.dwattr $C$DW$176, DW_AT_TI_symbol_name("len")
	.dwattr $C$DW$176, DW_AT_type(*$C$DW$T$977)
	.dwattr $C$DW$176, DW_AT_location[DW_OP_reg1]
;* V2    assigned to ix
$C$DW$177	.dwtag  DW_TAG_variable, DW_AT_name("ix")
	.dwattr $C$DW$177, DW_AT_TI_symbol_name("ix")
	.dwattr $C$DW$177, DW_AT_type(*$C$DW$T$10)
	.dwattr $C$DW$177, DW_AT_location[DW_OP_reg5]
;* V1    assigned to iy
$C$DW$178	.dwtag  DW_TAG_variable, DW_AT_name("iy")
	.dwattr $C$DW$178, DW_AT_TI_symbol_name("iy")
	.dwattr $C$DW$178, DW_AT_type(*$C$DW$T$10)
	.dwattr $C$DW$178, DW_AT_location[DW_OP_reg4]
;* A4    assigned to $O$d2
$C$DW$179	.dwtag  DW_TAG_variable, DW_AT_name("$O$d2")
	.dwattr $C$DW$179, DW_AT_TI_symbol_name("$O$d2")
	.dwattr $C$DW$179, DW_AT_type(*$C$DW$T$10)
	.dwattr $C$DW$179, DW_AT_location[DW_OP_reg3]
;* A1    assigned to t
$C$DW$180	.dwtag  DW_TAG_variable, DW_AT_name("t")
	.dwattr $C$DW$180, DW_AT_TI_symbol_name("t")
	.dwattr $C$DW$180, DW_AT_type(*$C$DW$T$6)
	.dwattr $C$DW$180, DW_AT_location[DW_OP_reg0]
;* A1    assigned to t
$C$DW$181	.dwtag  DW_TAG_variable, DW_AT_name("t")
	.dwattr $C$DW$181, DW_AT_TI_symbol_name("t")
	.dwattr $C$DW$181, DW_AT_type(*$C$DW$T$6)
	.dwattr $C$DW$181, DW_AT_location[DW_OP_reg0]
;* A1    assigned to t
$C$DW$182	.dwtag  DW_TAG_variable, DW_AT_name("t")
	.dwattr $C$DW$182, DW_AT_TI_symbol_name("t")
	.dwattr $C$DW$182, DW_AT_type(*$C$DW$T$6)
	.dwattr $C$DW$182, DW_AT_location[DW_OP_reg0]
	.dwcfi	cfa_offset, 0
;* 1817	-----------------------    iy = len-1;
;* 1818	-----------------------    if ( len < 2 ) goto g7;
        PUSH      {A4, V1, V2, V3, V4, LR} ; [DPU_3_PIPE] 
	.dwcfi	cfa_offset, 24
	.dwcfi	save_reg_to_mem, 14, -4
	.dwcfi	save_reg_to_mem, 7, -8
	.dwcfi	save_reg_to_mem, 6, -12
	.dwcfi	save_reg_to_mem, 5, -16
	.dwcfi	save_reg_to_mem, 4, -20
	.dwcfi	save_reg_to_mem, 3, -24
	.dwpsn	file "C:/wolfssl/ctaocrypt/src/tfm.c",line 1818,column 10,is_stmt,isa 1
        CMP       A2, #2                ; [DPU_3_PIPE] |1818| 
	.dwpsn	file "C:/wolfssl/ctaocrypt/src/tfm.c",line 1817,column 3,is_stmt,isa 1
        SUB       V1, A2, #1            ; [DPU_3_PIPE] |1817| 
	.dwpsn	file "C:/wolfssl/ctaocrypt/src/tfm.c",line 1818,column 10,is_stmt,isa 1
        BLT       ||$C$L67||            ; [DPU_3_PIPE] |1818| 
        ; BRANCHCC OCCURS {||$C$L67||}   ; [] |1818| 
;* --------------------------------------------------------------------------*
;* 1819	-----------------------    K$11 = ((unsigned)len>>31)+len;
;* 1819	-----------------------    d$2 = K$11>>2;
;* 1816	-----------------------    ix = 0;
;* 1819	-----------------------    if ( len < 4 ) goto g5;
	.dwpsn	file "C:/wolfssl/ctaocrypt/src/tfm.c",line 1819,column 5,is_stmt,isa 1
        ADD       V3, A2, A2, LSR #31   ; [DPU_3_PIPE] |1819| 
        CMP       A2, #4                ; [DPU_3_PIPE] |1819| 
	.dwpsn	file "C:/wolfssl/ctaocrypt/src/tfm.c",line 1816,column 3,is_stmt,isa 1
        MOV       V2, #0                ; [DPU_3_PIPE] |1816| 
	.dwpsn	file "C:/wolfssl/ctaocrypt/src/tfm.c",line 1819,column 5,is_stmt,isa 1
        ASR       A4, V3, #2            ; [DPU_3_PIPE] |1819| 
        BLT       ||$C$L66||            ; [DPU_3_PIPE] |1819| 
        ; BRANCHCC OCCURS {||$C$L66||}   ; [] |1819| 
;* --------------------------------------------------------------------------*
;**  	-----------------------    U$19 = s;
;**  	-----------------------    U$22 = &U$19[len-1];
;**  	-----------------------    #pragma MUST_ITERATE(1, 536870911, 1)
;**  	-----------------------    // LOOP BELOW UNROLLED BY FACTOR(2)
;**  	-----------------------    #pragma LOOP_FLAGS(4102u)
        MOV       A3, A1                ; [DPU_3_PIPE] 
        ADDS      A2, A2, A3            ; [DPU_3_PIPE] 
        SUBS      A2, A2, #1            ; [DPU_3_PIPE] 
;* --------------------------------------------------------------------------*
;*   BEGIN LOOP ||$C$L65||
;*
;*   Loop source line                : 1818
;*   Loop closing brace source line  : 1824
;*   Loop Unroll Multiple            : 2x
;*   Known Minimum Trip Count        : 1
;*   Known Maximum Trip Count        : 536870911
;*   Known Max Trip Count Factor     : 1
;* --------------------------------------------------------------------------*
||$C$L65||:    
;**	-----------------------g4:
;* 1819	-----------------------    t = *U$19;
;* 1820	-----------------------    *U$19++ = *U$22;
;* 1821	-----------------------    *U$22-- = t;
;* 1819	-----------------------    t = *U$19;
;* 1820	-----------------------    *U$19++ = *U$22;
;* 1821	-----------------------    *U$22-- = t;
;* 1819	-----------------------    ix += 2;
;* 1820	-----------------------    iy -= 2;
;* 1818	-----------------------    if ( --d$2 ) goto g4;
	.dwpsn	file "C:/wolfssl/ctaocrypt/src/tfm.c",line 1820,column 5,is_stmt,isa 1
        LDRB      V4, [A2, #0]          ; [DPU_3_PIPE] |1820| 
	.dwpsn	file "C:/wolfssl/ctaocrypt/src/tfm.c",line 1819,column 5,is_stmt,isa 1
        LDRB      V9, [A3, #0]          ; [DPU_3_PIPE] |1819| 
	.dwpsn	file "C:/wolfssl/ctaocrypt/src/tfm.c",line 1820,column 5,is_stmt,isa 1
        STRB      V4, [A3], #1          ; [DPU_3_PIPE] |1820| 
	.dwpsn	file "C:/wolfssl/ctaocrypt/src/tfm.c",line 1821,column 5,is_stmt,isa 1
        STRB      V9, [A2], #-1         ; [DPU_3_PIPE] |1821| 
	.dwpsn	file "C:/wolfssl/ctaocrypt/src/tfm.c",line 1820,column 5,is_stmt,isa 1
        LDRB      V4, [A2, #0]          ; [DPU_3_PIPE] |1820| 
	.dwpsn	file "C:/wolfssl/ctaocrypt/src/tfm.c",line 1819,column 5,is_stmt,isa 1
        LDRB      V9, [A3, #0]          ; [DPU_3_PIPE] |1819| 
	.dwpsn	file "C:/wolfssl/ctaocrypt/src/tfm.c",line 1818,column 10,is_stmt,isa 1
        SUBS      A4, A4, #1            ; [DPU_3_PIPE] |1818| 
	.dwpsn	file "C:/wolfssl/ctaocrypt/src/tfm.c",line 1819,column 5,is_stmt,isa 1
        ADD       V2, V2, #2            ; [DPU_3_PIPE] |1819| 
	.dwpsn	file "C:/wolfssl/ctaocrypt/src/tfm.c",line 1820,column 5,is_stmt,isa 1
        STRB      V4, [A3], #1          ; [DPU_3_PIPE] |1820| 
        SUB       V1, V1, #2            ; [DPU_3_PIPE] |1820| 
	.dwpsn	file "C:/wolfssl/ctaocrypt/src/tfm.c",line 1821,column 5,is_stmt,isa 1
        STRB      V9, [A2], #-1         ; [DPU_3_PIPE] |1821| 
	.dwpsn	file "C:/wolfssl/ctaocrypt/src/tfm.c",line 1818,column 10,is_stmt,isa 1
        BNE       ||$C$L65||            ; [DPU_3_PIPE] |1818| 
        ; BRANCHCC OCCURS {||$C$L65||}   ; [] |1818| 
;* --------------------------------------------------------------------------*
||$C$L66||:    
;**	-----------------------g5:
;**  	-----------------------    if ( !(K$11&2) ) goto g7;
        LSRS      A2, V3, #2            ; [DPU_3_PIPE] 
        BCC       ||$C$L67||            ; [DPU_3_PIPE] 
        ; BRANCHCC OCCURS {||$C$L67||}   ; [] 
;* --------------------------------------------------------------------------*
; Peeled loop iterations for unrolled loop:
;* 1819	-----------------------    t = s[ix];
;* 1820	-----------------------    s[ix] = s[iy];
;* 1821	-----------------------    s[iy] = t;
;**	-----------------------g7:
;**  	-----------------------    return;
	.dwpsn	file "C:/wolfssl/ctaocrypt/src/tfm.c",line 1820,column 5,is_stmt,isa 1
        LDRB      A2, [A1, +V1]         ; [DPU_3_PIPE] |1820| 
	.dwpsn	file "C:/wolfssl/ctaocrypt/src/tfm.c",line 1819,column 5,is_stmt,isa 1
        LDRB      A3, [A1, +V2]         ; [DPU_3_PIPE] |1819| 
	.dwpsn	file "C:/wolfssl/ctaocrypt/src/tfm.c",line 1820,column 5,is_stmt,isa 1
        STRB      A2, [A1, +V2]         ; [DPU_3_PIPE] |1820| 
	.dwpsn	file "C:/wolfssl/ctaocrypt/src/tfm.c",line 1821,column 5,is_stmt,isa 1
        STRB      A3, [A1, +V1]         ; [DPU_3_PIPE] |1821| 
;* --------------------------------------------------------------------------*
||$C$L67||:    
$C$DW$183	.dwtag  DW_TAG_TI_branch
	.dwattr $C$DW$183, DW_AT_low_pc(0x00)
	.dwattr $C$DW$183, DW_AT_TI_return
        POP       {A4, V1, V2, V3, V4, PC} ; [DPU_3_PIPE] 
	.dwcfi	cfa_offset, 0
        ; BRANCH OCCURS                  ; [] 
	.dwattr $C$DW$169, DW_AT_TI_end_file("C:/wolfssl/ctaocrypt/src/tfm.c")
	.dwattr $C$DW$169, DW_AT_TI_end_line(0x721)
	.dwattr $C$DW$169, DW_AT_TI_end_column(0x01)
	.dwendentry
	.dwendtag $C$DW$169

	.sect	".text:fp_to_unsigned_bin"
	.clink
	.thumbfunc fp_to_unsigned_bin
	.thumb
	.global	fp_to_unsigned_bin

$C$DW$184	.dwtag  DW_TAG_subprogram, DW_AT_name("fp_to_unsigned_bin")
	.dwattr $C$DW$184, DW_AT_low_pc(fp_to_unsigned_bin)
	.dwattr $C$DW$184, DW_AT_high_pc(0x00)
	.dwattr $C$DW$184, DW_AT_TI_symbol_name("fp_to_unsigned_bin")
	.dwattr $C$DW$184, DW_AT_external
	.dwattr $C$DW$184, DW_AT_TI_begin_file("C:/wolfssl/ctaocrypt/src/tfm.c")
	.dwattr $C$DW$184, DW_AT_TI_begin_line(0x67b)
	.dwattr $C$DW$184, DW_AT_TI_begin_column(0x06)
	.dwattr $C$DW$184, DW_AT_decl_file("C:/wolfssl/ctaocrypt/src/tfm.c")
	.dwattr $C$DW$184, DW_AT_decl_line(0x67b)
	.dwattr $C$DW$184, DW_AT_decl_column(0x06)
	.dwattr $C$DW$184, DW_AT_TI_max_frame_size(0x240)
	.dwpsn	file "C:/wolfssl/ctaocrypt/src/tfm.c",line 1660,column 1,is_stmt,address fp_to_unsigned_bin,isa 1

	.dwfde $C$DW$CIE, fp_to_unsigned_bin
$C$DW$185	.dwtag  DW_TAG_formal_parameter, DW_AT_name("a")
	.dwattr $C$DW$185, DW_AT_TI_symbol_name("a")
	.dwattr $C$DW$185, DW_AT_type(*$C$DW$T$492)
	.dwattr $C$DW$185, DW_AT_location[DW_OP_reg0]
$C$DW$186	.dwtag  DW_TAG_formal_parameter, DW_AT_name("b")
	.dwattr $C$DW$186, DW_AT_TI_symbol_name("b")
	.dwattr $C$DW$186, DW_AT_type(*$C$DW$T$641)
	.dwattr $C$DW$186, DW_AT_location[DW_OP_reg1]

;*****************************************************************************
;* FUNCTION NAME: fp_to_unsigned_bin                                         *
;*                                                                           *
;*   Regs Modified     : A1,A2,A3,A4,V1,V2,V3,V4,V9,SP,LR,SR,D0,D0_hi,D1,    *
;*                           D1_hi,D2,D2_hi,D3,D3_hi,D4,D4_hi,D5,D5_hi,D6,   *
;*                           D6_hi,D7,D7_hi,FPEXC,FPSCR                      *
;*   Regs Used         : A1,A2,A3,A4,V1,V2,V3,V4,V9,SP,LR,SR,D0,D0_hi,D1,    *
;*                           D1_hi,D2,D2_hi,D3,D3_hi,D4,D4_hi,D5,D5_hi,D6,   *
;*                           D6_hi,D7,D7_hi,FPEXC,FPSCR                      *
;*   Local Frame Size  : 0 Args + 552 Auto + 20 Save = 572 byte              *
;*****************************************************************************
fp_to_unsigned_bin:
;* --------------------------------------------------------------------------*
;* V3    assigned to x
$C$DW$187	.dwtag  DW_TAG_variable, DW_AT_name("x")
	.dwattr $C$DW$187, DW_AT_TI_symbol_name("x")
	.dwattr $C$DW$187, DW_AT_type(*$C$DW$T$10)
	.dwattr $C$DW$187, DW_AT_location[DW_OP_reg6]
;* V1    assigned to b
$C$DW$188	.dwtag  DW_TAG_variable, DW_AT_name("b")
	.dwattr $C$DW$188, DW_AT_TI_symbol_name("b")
	.dwattr $C$DW$188, DW_AT_type(*$C$DW$T$803)
	.dwattr $C$DW$188, DW_AT_location[DW_OP_reg4]
;* A2    assigned to a
$C$DW$189	.dwtag  DW_TAG_variable, DW_AT_name("a")
	.dwattr $C$DW$189, DW_AT_TI_symbol_name("a")
	.dwattr $C$DW$189, DW_AT_type(*$C$DW$T$493)
	.dwattr $C$DW$189, DW_AT_location[DW_OP_reg1]
;* V4    assigned to $O$U14
$C$DW$190	.dwtag  DW_TAG_variable, DW_AT_name("$O$U14")
	.dwattr $C$DW$190, DW_AT_TI_symbol_name("$O$U14")
	.dwattr $C$DW$190, DW_AT_type(*$C$DW$T$641)
	.dwattr $C$DW$190, DW_AT_location[DW_OP_reg7]
$C$DW$191	.dwtag  DW_TAG_variable, DW_AT_name("t")
	.dwattr $C$DW$191, DW_AT_TI_symbol_name("t")
	.dwattr $C$DW$191, DW_AT_type(*$C$DW$T$491)
	.dwattr $C$DW$191, DW_AT_location[DW_OP_breg13 0]
	.dwcfi	cfa_offset, 0
;* 1664	-----------------------    if ( a == &t ) goto g3;
        PUSH      {V1, V2, V3, V4, LR}  ; [DPU_3_PIPE] 
	.dwcfi	cfa_offset, 20
	.dwcfi	save_reg_to_mem, 14, -4
	.dwcfi	save_reg_to_mem, 7, -8
	.dwcfi	save_reg_to_mem, 6, -12
	.dwcfi	save_reg_to_mem, 5, -16
	.dwcfi	save_reg_to_mem, 4, -20
        MOV       V1, A2                ; [DPU_3_PIPE] |1660| 
        SUB       SP, SP, #508          ; [DPU_3_PIPE] 
	.dwcfi	cfa_offset, 528
        MOV       A2, A1                ; [DPU_3_PIPE] |1660| 
        SUB       SP, SP, #48           ; [DPU_3_PIPE] 
	.dwcfi	cfa_offset, 576
	.dwpsn	file "C:/wolfssl/ctaocrypt/src/tfm.c",line 1664,column 3,is_stmt,isa 1
        MOV       V2, SP                ; [DPU_3_PIPE] |1664| 
        CMP       V2, A2                ; [DPU_3_PIPE] |1664| 
        BEQ       ||$C$L68||            ; [DPU_3_PIPE] |1664| 
        ; BRANCHCC OCCURS {||$C$L68||}   ; [] |1664| 
;* --------------------------------------------------------------------------*
;* 1664	-----------------------    memcpy(&t, (const void *)a, 552u);
        MOV       A1, SP                ; [DPU_3_PIPE] 
        MOV       A3, #552              ; [DPU_3_PIPE] |1664| 
$C$DW$192	.dwtag  DW_TAG_TI_branch
	.dwattr $C$DW$192, DW_AT_low_pc(0x00)
	.dwattr $C$DW$192, DW_AT_name("memcpy")
	.dwattr $C$DW$192, DW_AT_TI_call
        BL        memcpy                ; [DPU_3_PIPE] |1664| 
        ; CALL OCCURS {memcpy }          ; [] |1664| 
;* --------------------------------------------------------------------------*
||$C$L68||:    
;**	-----------------------g3:
;* 1666	-----------------------    x = 0;
;* 1667	-----------------------    if ( !t.used ) goto g6;
	.dwpsn	file "C:/wolfssl/ctaocrypt/src/tfm.c",line 1667,column 10,is_stmt,isa 1
        LDR       A1, [SP, #544]        ; [DPU_3_PIPE] |1667| 
	.dwpsn	file "C:/wolfssl/ctaocrypt/src/tfm.c",line 1666,column 3,is_stmt,isa 1
        MOVS      V3, #0                ; [DPU_3_PIPE] |1666| 
        CBZ       A1, ||$C$L70||        ; [] 
	.dwpsn	file "C:/wolfssl/ctaocrypt/src/tfm.c",line 1667,column 10,is_stmt,isa 1
        ; BRANCHCC OCCURS {||$C$L70||}   ; [] |1667| 
;* --------------------------------------------------------------------------*
;**  	-----------------------    U$14 = b;
;**  	-----------------------    #pragma LOOP_FLAGS(5120u)
        MOV       V4, V1                ; [DPU_3_PIPE] 
;* --------------------------------------------------------------------------*
;*   BEGIN LOOP ||$C$L69||
;*
;*   Loop source line                : 1667
;*   Loop closing brace source line  : 1670
;*   Known Minimum Trip Count        : 1
;*   Known Maximum Trip Count        : 4294967295
;*   Known Max Trip Count Factor     : 1
;* --------------------------------------------------------------------------*
||$C$L69||:    
;**	-----------------------g5:
;* 1668	-----------------------    *U$14++ = *&t;
;* 1668	-----------------------    ++x;
;* 1669	-----------------------    fp_div_2d(&t, 8, &t, NULL);
;* 1667	-----------------------    if ( t.used ) goto g5;
	.dwpsn	file "C:/wolfssl/ctaocrypt/src/tfm.c",line 1668,column 7,is_stmt,isa 1
        LDRB      A1, [SP, #0]          ; [DPU_3_PIPE] |1668| 
	.dwpsn	file "C:/wolfssl/ctaocrypt/src/tfm.c",line 1669,column 7,is_stmt,isa 1
        MOVS      A2, #8                ; [DPU_3_PIPE] |1669| 
        MOV       A3, SP                ; [DPU_3_PIPE] |1669| 
        MOVS      A4, #0                ; [DPU_3_PIPE] |1669| 
	.dwpsn	file "C:/wolfssl/ctaocrypt/src/tfm.c",line 1668,column 7,is_stmt,isa 1
        STRB      A1, [V4], #1          ; [DPU_3_PIPE] |1668| 
        MOV       A1, SP                ; [DPU_3_PIPE] |1668| 
	.dwpsn	file "C:/wolfssl/ctaocrypt/src/tfm.c",line 1669,column 7,is_stmt,isa 1
$C$DW$193	.dwtag  DW_TAG_TI_branch
	.dwattr $C$DW$193, DW_AT_low_pc(0x00)
	.dwattr $C$DW$193, DW_AT_name("fp_div_2d")
	.dwattr $C$DW$193, DW_AT_TI_call
        BL        fp_div_2d             ; [DPU_3_PIPE] |1669| 
        ; CALL OCCURS {fp_div_2d }       ; [] |1669| 
	.dwpsn	file "C:/wolfssl/ctaocrypt/src/tfm.c",line 1667,column 10,is_stmt,isa 1
        LDR       A1, [SP, #544]        ; [DPU_3_PIPE] |1667| 
	.dwpsn	file "C:/wolfssl/ctaocrypt/src/tfm.c",line 1668,column 7,is_stmt,isa 1
        ADDS      V3, V3, #1            ; [DPU_3_PIPE] |1668| 
	.dwpsn	file "C:/wolfssl/ctaocrypt/src/tfm.c",line 1667,column 10,is_stmt,isa 1
        CMP       A1, #0                ; [DPU_3_PIPE] |1667| 
        BNE       ||$C$L69||            ; [DPU_3_PIPE] |1667| 
        ; BRANCHCC OCCURS {||$C$L69||}   ; [] |1667| 
;* --------------------------------------------------------------------------*
||$C$L70||:    
;**	-----------------------g6:
;* 1671	-----------------------    fp_reverse(b, x);
;**  	-----------------------    return;
	.dwpsn	file "C:/wolfssl/ctaocrypt/src/tfm.c",line 1671,column 3,is_stmt,isa 1
        MOV       A1, V1                ; [DPU_3_PIPE] |1671| 
        MOV       A2, V3                ; [DPU_3_PIPE] |1671| 
$C$DW$194	.dwtag  DW_TAG_TI_branch
	.dwattr $C$DW$194, DW_AT_low_pc(0x00)
	.dwattr $C$DW$194, DW_AT_name("fp_reverse")
	.dwattr $C$DW$194, DW_AT_TI_call
        BL        fp_reverse            ; [DPU_3_PIPE] |1671| 
        ; CALL OCCURS {fp_reverse }      ; [] |1671| 
        ADD       SP, SP, #508          ; [DPU_3_PIPE] 
	.dwcfi	cfa_offset, 68
        ADD       SP, SP, #48           ; [DPU_3_PIPE] 
	.dwcfi	cfa_offset, 20
$C$DW$195	.dwtag  DW_TAG_TI_branch
	.dwattr $C$DW$195, DW_AT_low_pc(0x00)
	.dwattr $C$DW$195, DW_AT_TI_return
        POP       {V1, V2, V3, V4, PC}  ; [DPU_3_PIPE] 
	.dwcfi	cfa_offset, 0
        ; BRANCH OCCURS                  ; [] 
	.dwattr $C$DW$184, DW_AT_TI_end_file("C:/wolfssl/ctaocrypt/src/tfm.c")
	.dwattr $C$DW$184, DW_AT_TI_end_line(0x688)
	.dwattr $C$DW$184, DW_AT_TI_end_column(0x01)
	.dwendentry
	.dwendtag $C$DW$184

	.sect	".text:mp_to_unsigned_bin"
	.clink
	.thumbfunc mp_to_unsigned_bin
	.thumb
	.global	mp_to_unsigned_bin

$C$DW$196	.dwtag  DW_TAG_subprogram, DW_AT_name("mp_to_unsigned_bin")
	.dwattr $C$DW$196, DW_AT_low_pc(mp_to_unsigned_bin)
	.dwattr $C$DW$196, DW_AT_high_pc(0x00)
	.dwattr $C$DW$196, DW_AT_TI_symbol_name("mp_to_unsigned_bin")
	.dwattr $C$DW$196, DW_AT_external
	.dwattr $C$DW$196, DW_AT_type(*$C$DW$T$10)
	.dwattr $C$DW$196, DW_AT_TI_begin_file("C:/wolfssl/ctaocrypt/src/tfm.c")
	.dwattr $C$DW$196, DW_AT_TI_begin_line(0x794)
	.dwattr $C$DW$196, DW_AT_TI_begin_column(0x05)
	.dwattr $C$DW$196, DW_AT_decl_file("C:/wolfssl/ctaocrypt/src/tfm.c")
	.dwattr $C$DW$196, DW_AT_decl_line(0x794)
	.dwattr $C$DW$196, DW_AT_decl_column(0x05)
	.dwattr $C$DW$196, DW_AT_TI_max_frame_size(0x08)
	.dwpsn	file "C:/wolfssl/ctaocrypt/src/tfm.c",line 1941,column 1,is_stmt,address mp_to_unsigned_bin,isa 1

	.dwfde $C$DW$CIE, mp_to_unsigned_bin
$C$DW$197	.dwtag  DW_TAG_formal_parameter, DW_AT_name("a")
	.dwattr $C$DW$197, DW_AT_TI_symbol_name("a")
	.dwattr $C$DW$197, DW_AT_type(*$C$DW$T$496)
	.dwattr $C$DW$197, DW_AT_location[DW_OP_reg0]
$C$DW$198	.dwtag  DW_TAG_formal_parameter, DW_AT_name("b")
	.dwattr $C$DW$198, DW_AT_TI_symbol_name("b")
	.dwattr $C$DW$198, DW_AT_type(*$C$DW$T$641)
	.dwattr $C$DW$198, DW_AT_location[DW_OP_reg1]

;*****************************************************************************
;* FUNCTION NAME: mp_to_unsigned_bin                                         *
;*                                                                           *
;*   Regs Modified     : A1,A2,A3,A4,V9,SP,LR,SR,D0,D0_hi,D1,D1_hi,D2,D2_hi, *
;*                           D3,D3_hi,D4,D4_hi,D5,D5_hi,D6,D6_hi,D7,D7_hi,   *
;*                           FPEXC,FPSCR                                     *
;*   Regs Used         : A1,A2,A3,A4,V9,SP,LR,SR,D0,D0_hi,D1,D1_hi,D2,D2_hi, *
;*                           D3,D3_hi,D4,D4_hi,D5,D5_hi,D6,D6_hi,D7,D7_hi,   *
;*                           FPEXC,FPSCR                                     *
;*   Local Frame Size  : 0 Args + 0 Auto + 4 Save = 4 byte                   *
;*****************************************************************************
mp_to_unsigned_bin:
;* --------------------------------------------------------------------------*
;* A1    assigned to a
$C$DW$199	.dwtag  DW_TAG_variable, DW_AT_name("a")
	.dwattr $C$DW$199, DW_AT_TI_symbol_name("a")
	.dwattr $C$DW$199, DW_AT_type(*$C$DW$T$497)
	.dwattr $C$DW$199, DW_AT_location[DW_OP_reg0]
;* A1    assigned to b
$C$DW$200	.dwtag  DW_TAG_variable, DW_AT_name("b")
	.dwattr $C$DW$200, DW_AT_TI_symbol_name("b")
	.dwattr $C$DW$200, DW_AT_type(*$C$DW$T$803)
	.dwattr $C$DW$200, DW_AT_location[DW_OP_reg0]
	.dwcfi	cfa_offset, 0
;* 1942	-----------------------    fp_to_unsigned_bin(a, b);
;* 1943	-----------------------    return 0;
        PUSH      {A4, LR}              ; [DPU_3_PIPE] 
	.dwcfi	cfa_offset, 8
	.dwcfi	save_reg_to_mem, 14, -4
	.dwcfi	save_reg_to_mem, 3, -8
	.dwpsn	file "C:/wolfssl/ctaocrypt/src/tfm.c",line 1942,column 3,is_stmt,isa 1
$C$DW$201	.dwtag  DW_TAG_TI_branch
	.dwattr $C$DW$201, DW_AT_low_pc(0x00)
	.dwattr $C$DW$201, DW_AT_name("fp_to_unsigned_bin")
	.dwattr $C$DW$201, DW_AT_TI_call
        BL        fp_to_unsigned_bin    ; [DPU_3_PIPE] |1942| 
        ; CALL OCCURS {fp_to_unsigned_bin }  ; [] |1942| 
	.dwpsn	file "C:/wolfssl/ctaocrypt/src/tfm.c",line 1943,column 3,is_stmt,isa 1
        MOVS      A1, #0                ; [DPU_3_PIPE] |1943| 
$C$DW$202	.dwtag  DW_TAG_TI_branch
	.dwattr $C$DW$202, DW_AT_low_pc(0x00)
	.dwattr $C$DW$202, DW_AT_TI_return
        POP       {A4, PC}              ; [DPU_3_PIPE] 
	.dwcfi	cfa_offset, 0
        ; BRANCH OCCURS                  ; [] 
	.dwattr $C$DW$196, DW_AT_TI_end_file("C:/wolfssl/ctaocrypt/src/tfm.c")
	.dwattr $C$DW$196, DW_AT_TI_end_line(0x798)
	.dwattr $C$DW$196, DW_AT_TI_end_column(0x01)
	.dwendentry
	.dwendtag $C$DW$196

	.sect	".text:fp_set"
	.clink
	.thumbfunc fp_set
	.thumb
	.global	fp_set

$C$DW$203	.dwtag  DW_TAG_subprogram, DW_AT_name("fp_set")
	.dwattr $C$DW$203, DW_AT_low_pc(fp_set)
	.dwattr $C$DW$203, DW_AT_high_pc(0x00)
	.dwattr $C$DW$203, DW_AT_TI_symbol_name("fp_set")
	.dwattr $C$DW$203, DW_AT_external
	.dwattr $C$DW$203, DW_AT_TI_begin_file("C:/wolfssl/ctaocrypt/src/tfm.c")
	.dwattr $C$DW$203, DW_AT_TI_begin_line(0x690)
	.dwattr $C$DW$203, DW_AT_TI_begin_column(0x06)
	.dwattr $C$DW$203, DW_AT_decl_file("C:/wolfssl/ctaocrypt/src/tfm.c")
	.dwattr $C$DW$203, DW_AT_decl_line(0x690)
	.dwattr $C$DW$203, DW_AT_decl_column(0x06)
	.dwattr $C$DW$203, DW_AT_TI_max_frame_size(0x10)
	.dwpsn	file "C:/wolfssl/ctaocrypt/src/tfm.c",line 1681,column 1,is_stmt,address fp_set,isa 1

	.dwfde $C$DW$CIE, fp_set
$C$DW$204	.dwtag  DW_TAG_formal_parameter, DW_AT_name("a")
	.dwattr $C$DW$204, DW_AT_TI_symbol_name("a")
	.dwattr $C$DW$204, DW_AT_type(*$C$DW$T$492)
	.dwattr $C$DW$204, DW_AT_location[DW_OP_reg0]
$C$DW$205	.dwtag  DW_TAG_formal_parameter, DW_AT_name("b")
	.dwattr $C$DW$205, DW_AT_TI_symbol_name("b")
	.dwattr $C$DW$205, DW_AT_type(*$C$DW$T$122)
	.dwattr $C$DW$205, DW_AT_location[DW_OP_reg1]

;*****************************************************************************
;* FUNCTION NAME: fp_set                                                     *
;*                                                                           *
;*   Regs Modified     : A1,A2,A3,A4,V1,V2,V9,SP,LR,SR,D0,D0_hi,D1,D1_hi,D2, *
;*                           D2_hi,D3,D3_hi,D4,D4_hi,D5,D5_hi,D6,D6_hi,D7,   *
;*                           D7_hi,FPEXC,FPSCR                               *
;*   Regs Used         : A1,A2,A3,A4,V1,V2,V9,SP,LR,SR,D0,D0_hi,D1,D1_hi,D2, *
;*                           D2_hi,D3,D3_hi,D4,D4_hi,D5,D5_hi,D6,D6_hi,D7,   *
;*                           D7_hi,FPEXC,FPSCR                               *
;*   Local Frame Size  : 0 Args + 0 Auto + 12 Save = 12 byte                 *
;*****************************************************************************
fp_set:
;* --------------------------------------------------------------------------*
;* V2    assigned to a
$C$DW$206	.dwtag  DW_TAG_variable, DW_AT_name("a")
	.dwattr $C$DW$206, DW_AT_TI_symbol_name("a")
	.dwattr $C$DW$206, DW_AT_type(*$C$DW$T$493)
	.dwattr $C$DW$206, DW_AT_location[DW_OP_reg5]
;* A1    assigned to b
$C$DW$207	.dwtag  DW_TAG_variable, DW_AT_name("b")
	.dwattr $C$DW$207, DW_AT_TI_symbol_name("b")
	.dwattr $C$DW$207, DW_AT_type(*$C$DW$T$1019)
	.dwattr $C$DW$207, DW_AT_location[DW_OP_reg0]
	.dwcfi	cfa_offset, 0
;* 1682	-----------------------    memset((void *)a, 0, 552u);
;* 1683	-----------------------    *(unsigned *)a = b;
;* 1684	-----------------------    (*a).used = b != 0u;
;**  	-----------------------    return;
        PUSH      {A4, V1, V2, LR}      ; [DPU_3_PIPE] 
	.dwcfi	cfa_offset, 16
	.dwcfi	save_reg_to_mem, 14, -4
	.dwcfi	save_reg_to_mem, 5, -8
	.dwcfi	save_reg_to_mem, 4, -12
	.dwcfi	save_reg_to_mem, 3, -16
        MOV       V1, A2                ; [DPU_3_PIPE] |1681| 
	.dwpsn	file "C:/wolfssl/ctaocrypt/src/tfm.c",line 1682,column 4,is_stmt,isa 1
        MOV       A3, #552              ; [DPU_3_PIPE] |1682| 
	.dwpsn	file "C:/wolfssl/ctaocrypt/src/tfm.c",line 1681,column 1,is_stmt,isa 1
        MOV       V2, A1                ; [DPU_3_PIPE] |1681| 
	.dwpsn	file "C:/wolfssl/ctaocrypt/src/tfm.c",line 1682,column 4,is_stmt,isa 1
        MOVS      A2, #0                ; [DPU_3_PIPE] |1682| 
$C$DW$208	.dwtag  DW_TAG_TI_branch
	.dwattr $C$DW$208, DW_AT_low_pc(0x00)
	.dwattr $C$DW$208, DW_AT_name("memset")
	.dwattr $C$DW$208, DW_AT_TI_call
        BL        memset                ; [DPU_3_PIPE] |1682| 
        ; CALL OCCURS {memset }          ; [] |1682| 
	.dwpsn	file "C:/wolfssl/ctaocrypt/src/tfm.c",line 1684,column 4,is_stmt,isa 1
        MOVS      A1, #0                ; [DPU_3_PIPE] |1684| 
        CMP       V1, #0                ; [DPU_3_PIPE] |1684| 
	.dwpsn	file "C:/wolfssl/ctaocrypt/src/tfm.c",line 1683,column 4,is_stmt,isa 1
        STR       V1, [V2, #0]          ; [DPU_3_PIPE] |1683| 
        IT        NE                    ; [DPU_3_PIPE] 
	.dwpsn	file "C:/wolfssl/ctaocrypt/src/tfm.c",line 1684,column 4,is_stmt,isa 1
        MOVNE     A1, #1                ; [DPU_3_PIPE] |1684| 
        STR       A1, [V2, #544]        ; [DPU_3_PIPE] |1684| 
$C$DW$209	.dwtag  DW_TAG_TI_branch
	.dwattr $C$DW$209, DW_AT_low_pc(0x00)
	.dwattr $C$DW$209, DW_AT_TI_return
        POP       {A4, V1, V2, PC}      ; [DPU_3_PIPE] 
	.dwcfi	cfa_offset, 0
        ; BRANCH OCCURS                  ; [] 
	.dwattr $C$DW$203, DW_AT_TI_end_file("C:/wolfssl/ctaocrypt/src/tfm.c")
	.dwattr $C$DW$203, DW_AT_TI_end_line(0x695)
	.dwattr $C$DW$203, DW_AT_TI_end_column(0x01)
	.dwendentry
	.dwendtag $C$DW$203

	.sect	".text:fp_cmp_mag"
	.clink
	.thumbfunc fp_cmp_mag
	.thumb
	.global	fp_cmp_mag

$C$DW$210	.dwtag  DW_TAG_subprogram, DW_AT_name("fp_cmp_mag")
	.dwattr $C$DW$210, DW_AT_low_pc(fp_cmp_mag)
	.dwattr $C$DW$210, DW_AT_high_pc(0x00)
	.dwattr $C$DW$210, DW_AT_TI_symbol_name("fp_cmp_mag")
	.dwattr $C$DW$210, DW_AT_external
	.dwattr $C$DW$210, DW_AT_type(*$C$DW$T$10)
	.dwattr $C$DW$210, DW_AT_TI_begin_file("C:/wolfssl/ctaocrypt/src/tfm.c")
	.dwattr $C$DW$210, DW_AT_TI_begin_line(0x5a2)
	.dwattr $C$DW$210, DW_AT_TI_begin_column(0x05)
	.dwattr $C$DW$210, DW_AT_decl_file("C:/wolfssl/ctaocrypt/src/tfm.c")
	.dwattr $C$DW$210, DW_AT_decl_line(0x5a2)
	.dwattr $C$DW$210, DW_AT_decl_column(0x05)
	.dwattr $C$DW$210, DW_AT_TI_max_frame_size(0x08)
	.dwpsn	file "C:/wolfssl/ctaocrypt/src/tfm.c",line 1443,column 1,is_stmt,address fp_cmp_mag,isa 1

	.dwfde $C$DW$CIE, fp_cmp_mag
$C$DW$211	.dwtag  DW_TAG_formal_parameter, DW_AT_name("a")
	.dwattr $C$DW$211, DW_AT_TI_symbol_name("a")
	.dwattr $C$DW$211, DW_AT_type(*$C$DW$T$492)
	.dwattr $C$DW$211, DW_AT_location[DW_OP_reg0]
$C$DW$212	.dwtag  DW_TAG_formal_parameter, DW_AT_name("b")
	.dwattr $C$DW$212, DW_AT_TI_symbol_name("b")
	.dwattr $C$DW$212, DW_AT_type(*$C$DW$T$492)
	.dwattr $C$DW$212, DW_AT_location[DW_OP_reg1]

;*****************************************************************************
;* FUNCTION NAME: fp_cmp_mag                                                 *
;*                                                                           *
;*   Regs Modified     : A1,A2,A3,A4,V1,SP,SR                                *
;*   Regs Used         : A1,A2,A3,A4,V1,SP,LR,SR                             *
;*   Local Frame Size  : 0 Args + 0 Auto + 8 Save = 8 byte                   *
;*****************************************************************************
fp_cmp_mag:
;* --------------------------------------------------------------------------*
;* V1    assigned to $O$C1
$C$DW$213	.dwtag  DW_TAG_variable, DW_AT_name("$O$C1")
	.dwattr $C$DW$213, DW_AT_TI_symbol_name("$O$C1")
	.dwattr $C$DW$213, DW_AT_type(*$C$DW$T$11)
	.dwattr $C$DW$213, DW_AT_location[DW_OP_reg4]
;* A4    assigned to $O$C2
$C$DW$214	.dwtag  DW_TAG_variable, DW_AT_name("$O$C2")
	.dwattr $C$DW$214, DW_AT_TI_symbol_name("$O$C2")
	.dwattr $C$DW$214, DW_AT_type(*$C$DW$T$11)
	.dwattr $C$DW$214, DW_AT_location[DW_OP_reg3]
;* A4    assigned to $O$C3
$C$DW$215	.dwtag  DW_TAG_variable, DW_AT_name("$O$C3")
	.dwattr $C$DW$215, DW_AT_TI_symbol_name("$O$C3")
	.dwattr $C$DW$215, DW_AT_type(*$C$DW$T$10)
	.dwattr $C$DW$215, DW_AT_location[DW_OP_reg3]
;* A1    assigned to $O$C4
$C$DW$216	.dwtag  DW_TAG_variable, DW_AT_name("$O$C4")
	.dwattr $C$DW$216, DW_AT_TI_symbol_name("$O$C4")
	.dwattr $C$DW$216, DW_AT_type(*$C$DW$T$10)
	.dwattr $C$DW$216, DW_AT_location[DW_OP_reg0]
;* A3    assigned to $O$C5
$C$DW$217	.dwtag  DW_TAG_variable, DW_AT_name("$O$C5")
	.dwattr $C$DW$217, DW_AT_TI_symbol_name("$O$C5")
	.dwattr $C$DW$217, DW_AT_type(*$C$DW$T$10)
	.dwattr $C$DW$217, DW_AT_location[DW_OP_reg2]
;* A2    assigned to b
$C$DW$218	.dwtag  DW_TAG_variable, DW_AT_name("b")
	.dwattr $C$DW$218, DW_AT_TI_symbol_name("b")
	.dwattr $C$DW$218, DW_AT_type(*$C$DW$T$493)
	.dwattr $C$DW$218, DW_AT_location[DW_OP_reg1]
;* A1    assigned to a
$C$DW$219	.dwtag  DW_TAG_variable, DW_AT_name("a")
	.dwattr $C$DW$219, DW_AT_TI_symbol_name("a")
	.dwattr $C$DW$219, DW_AT_type(*$C$DW$T$493)
	.dwattr $C$DW$219, DW_AT_location[DW_OP_reg0]
;* A1    assigned to $O$L1
$C$DW$220	.dwtag  DW_TAG_variable, DW_AT_name("$O$L1")
	.dwattr $C$DW$220, DW_AT_TI_symbol_name("$O$L1")
	.dwattr $C$DW$220, DW_AT_type(*$C$DW$T$10)
	.dwattr $C$DW$220, DW_AT_location[DW_OP_reg0]
;* A3    assigned to $O$U20
$C$DW$221	.dwtag  DW_TAG_variable, DW_AT_name("$O$U20")
	.dwattr $C$DW$221, DW_AT_TI_symbol_name("$O$U20")
	.dwattr $C$DW$221, DW_AT_type(*$C$DW$T$1013)
	.dwattr $C$DW$221, DW_AT_location[DW_OP_reg2]
;* A2    assigned to $O$U22
$C$DW$222	.dwtag  DW_TAG_variable, DW_AT_name("$O$U22")
	.dwattr $C$DW$222, DW_AT_TI_symbol_name("$O$U22")
	.dwattr $C$DW$222, DW_AT_type(*$C$DW$T$1013)
	.dwattr $C$DW$222, DW_AT_location[DW_OP_reg1]
	.dwcfi	cfa_offset, 0
;* 1446	-----------------------    C$5 = (*b).used;
;* 1446	-----------------------    C$3 = (*a).used;
;* 1446	-----------------------    if ( C$3 > C$5 ) goto g6;
        PUSH      {V1, LR}              ; [DPU_3_PIPE] 
	.dwcfi	cfa_offset, 8
	.dwcfi	save_reg_to_mem, 14, -4
	.dwcfi	save_reg_to_mem, 4, -8
	.dwpsn	file "C:/wolfssl/ctaocrypt/src/tfm.c",line 1446,column 4,is_stmt,isa 1
        LDR       A3, [A2, #544]        ; [DPU_3_PIPE] |1446| 
        LDR       A4, [A1, #544]        ; [DPU_3_PIPE] |1446| 
        CMP       A3, A4                ; [DPU_3_PIPE] |1446| 
        BLT       ||$C$L72||            ; [DPU_3_PIPE] |1446| 
        ; BRANCHCC OCCURS {||$C$L72||}   ; [] |1446| 
;* --------------------------------------------------------------------------*
;* 1448	-----------------------    if ( C$3 < C$5 ) goto g8;
	.dwpsn	file "C:/wolfssl/ctaocrypt/src/tfm.c",line 1448,column 11,is_stmt,isa 1
        CMP       A3, A4                ; [DPU_3_PIPE] |1448| 
        BGT       ||$C$L74||            ; [DPU_3_PIPE] |1448| 
        ; BRANCHCC OCCURS {||$C$L74||}   ; [] |1448| 
;* --------------------------------------------------------------------------*
;* 1451	-----------------------    if ( C$3 <= 0 ) goto g10;
	.dwpsn	file "C:/wolfssl/ctaocrypt/src/tfm.c",line 1451,column 29,is_stmt,isa 1
        CMP       A4, #0                ; [DPU_3_PIPE] |1451| 
        BLE       ||$C$L76||            ; [DPU_3_PIPE] |1451| 
        ; BRANCHCC OCCURS {||$C$L76||}   ; [] |1451| 
;* --------------------------------------------------------------------------*
;**  	-----------------------    C$4 = (C$3-1)*4;
;**  	-----------------------    U$20 = (unsigned *)a+C$4+4;
;**  	-----------------------    U$22 = (unsigned *)b+C$4+4;
;* 1452	-----------------------    L$1 = C$3;
;**  	-----------------------    #pragma MUST_ITERATE(1, 136, 1)
;**  	-----------------------    #pragma LOOP_FLAGS(4352u)
        SUBS      A3, A4, #1            ; [DPU_3_PIPE] 
        LSLS      V1, A3, #2            ; [DPU_3_PIPE] 
        ADDS      A2, V1, A2            ; [DPU_3_PIPE] 
        ADDS      A3, V1, A1            ; [DPU_3_PIPE] 
	.dwpsn	file "C:/wolfssl/ctaocrypt/src/tfm.c",line 1452,column 11,is_stmt,isa 1
        MOV       A1, A4                ; [DPU_3_PIPE] |1452| 
        ADDS      A2, A2, #4            ; [DPU_3_PIPE] 
        ADDS      A3, A3, #4            ; [DPU_3_PIPE] 
;* --------------------------------------------------------------------------*
;*   BEGIN LOOP ||$C$L71||
;*
;*   Loop source line                : 1451
;*   Loop closing brace source line  : 1457
;*   Known Minimum Trip Count        : 1
;*   Known Maximum Trip Count        : 136
;*   Known Max Trip Count Factor     : 1
;* --------------------------------------------------------------------------*
||$C$L71||:    
;**	-----------------------g5:
;* 1452	-----------------------    C$2 = *(--U$22);
;* 1452	-----------------------    C$1 = *(--U$20);
;* 1452	-----------------------    if ( C$1 <= C$2 ) goto g7;
        LDR       A4, [A2, #-4]!        ; [DPU_3_PIPE] |1452| 
        LDR       V1, [A3, #-4]!        ; [DPU_3_PIPE] |1452| 
        CMP       A4, V1                ; [DPU_3_PIPE] |1452| 
        BCS       ||$C$L73||            ; [DPU_3_PIPE] |1452| 
        ; BRANCHCC OCCURS {||$C$L73||}   ; [] |1452| 
;* --------------------------------------------------------------------------*
||$C$L72||:    
;**	-----------------------g6:
;* 1453	-----------------------    return 1;
	.dwpsn	file "C:/wolfssl/ctaocrypt/src/tfm.c",line 1453,column 14,is_stmt,isa 1
        MOVS      A1, #1                ; [DPU_3_PIPE] |1453| 
$C$DW$223	.dwtag  DW_TAG_TI_branch
	.dwattr $C$DW$223, DW_AT_low_pc(0x00)
	.dwattr $C$DW$223, DW_AT_TI_return
        POP       {V1, PC}              ; [DPU_3_PIPE] 
	.dwcfi	cfa_offset, 0
        ; BRANCH OCCURS                  ; [] 
	.dwcfi	restore_reg, 4
;* --------------------------------------------------------------------------*
||$C$L73||:    
;**	-----------------------g7:
;* 1454	-----------------------    if ( C$1 >= C$2 ) goto g9;
	.dwpsn	file "C:/wolfssl/ctaocrypt/src/tfm.c",line 1454,column 18,is_stmt,isa 1
        CMP       A4, V1                ; [DPU_3_PIPE] |1454| 
        BLS       ||$C$L75||            ; [DPU_3_PIPE] |1454| 
        ; BRANCHCC OCCURS {||$C$L75||}   ; [] |1454| 
;* --------------------------------------------------------------------------*
||$C$L74||:    
;**	-----------------------g8:
;* 1455	-----------------------    return (-1);
	.dwpsn	file "C:/wolfssl/ctaocrypt/src/tfm.c",line 1455,column 14,is_stmt,isa 1
        MOV       A1, #-1               ; [DPU_3_PIPE] |1455| 
$C$DW$224	.dwtag  DW_TAG_TI_branch
	.dwattr $C$DW$224, DW_AT_low_pc(0x00)
	.dwattr $C$DW$224, DW_AT_TI_return
        POP       {V1, PC}              ; [DPU_3_PIPE] 
	.dwcfi	cfa_offset, 0
        ; BRANCH OCCURS                  ; [] 
	.dwcfi	restore_reg, 4
;* --------------------------------------------------------------------------*
||$C$L75||:    
;**	-----------------------g9:
;* 1451	-----------------------    if ( --L$1 ) goto g5;
	.dwpsn	file "C:/wolfssl/ctaocrypt/src/tfm.c",line 1451,column 29,is_stmt,isa 1
        SUBS      A1, A1, #1            ; [DPU_3_PIPE] |1451| 
        BNE       ||$C$L71||            ; [DPU_3_PIPE] |1451| 
        ; BRANCHCC OCCURS {||$C$L71||}   ; [] |1451| 
;* --------------------------------------------------------------------------*
||$C$L76||:    
;**	-----------------------g10:
;* 1459	-----------------------    return 0;
	.dwpsn	file "C:/wolfssl/ctaocrypt/src/tfm.c",line 1459,column 4,is_stmt,isa 1
        MOVS      A1, #0                ; [DPU_3_PIPE] |1459| 
;* --------------------------------------------------------------------------*
$C$DW$225	.dwtag  DW_TAG_TI_branch
	.dwattr $C$DW$225, DW_AT_low_pc(0x00)
	.dwattr $C$DW$225, DW_AT_TI_return
        POP       {V1, PC}              ; [DPU_3_PIPE] 
	.dwcfi	cfa_offset, 0
        ; BRANCH OCCURS                  ; [] 
	.dwattr $C$DW$210, DW_AT_TI_end_file("C:/wolfssl/ctaocrypt/src/tfm.c")
	.dwattr $C$DW$210, DW_AT_TI_end_line(0x5b4)
	.dwattr $C$DW$210, DW_AT_TI_end_column(0x01)
	.dwendentry
	.dwendtag $C$DW$210

	.sect	".text:fp_sub"
	.clink
	.thumbfunc fp_sub
	.thumb
	.global	fp_sub

$C$DW$226	.dwtag  DW_TAG_subprogram, DW_AT_name("fp_sub")
	.dwattr $C$DW$226, DW_AT_low_pc(fp_sub)
	.dwattr $C$DW$226, DW_AT_high_pc(0x00)
	.dwattr $C$DW$226, DW_AT_TI_symbol_name("fp_sub")
	.dwattr $C$DW$226, DW_AT_external
	.dwattr $C$DW$226, DW_AT_TI_begin_file("C:/wolfssl/ctaocrypt/src/tfm.c")
	.dwattr $C$DW$226, DW_AT_TI_begin_line(0x78)
	.dwattr $C$DW$226, DW_AT_TI_begin_column(0x06)
	.dwattr $C$DW$226, DW_AT_decl_file("C:/wolfssl/ctaocrypt/src/tfm.c")
	.dwattr $C$DW$226, DW_AT_decl_line(0x78)
	.dwattr $C$DW$226, DW_AT_decl_column(0x06)
	.dwattr $C$DW$226, DW_AT_TI_max_frame_size(0x18)
	.dwpsn	file "C:/wolfssl/ctaocrypt/src/tfm.c",line 121,column 1,is_stmt,address fp_sub,isa 1

	.dwfde $C$DW$CIE, fp_sub
$C$DW$227	.dwtag  DW_TAG_formal_parameter, DW_AT_name("a")
	.dwattr $C$DW$227, DW_AT_TI_symbol_name("a")
	.dwattr $C$DW$227, DW_AT_type(*$C$DW$T$492)
	.dwattr $C$DW$227, DW_AT_location[DW_OP_reg0]
$C$DW$228	.dwtag  DW_TAG_formal_parameter, DW_AT_name("b")
	.dwattr $C$DW$228, DW_AT_TI_symbol_name("b")
	.dwattr $C$DW$228, DW_AT_type(*$C$DW$T$492)
	.dwattr $C$DW$228, DW_AT_location[DW_OP_reg1]
$C$DW$229	.dwtag  DW_TAG_formal_parameter, DW_AT_name("c")
	.dwattr $C$DW$229, DW_AT_TI_symbol_name("c")
	.dwattr $C$DW$229, DW_AT_type(*$C$DW$T$492)
	.dwattr $C$DW$229, DW_AT_location[DW_OP_reg2]

;*****************************************************************************
;* FUNCTION NAME: fp_sub                                                     *
;*                                                                           *
;*   Regs Modified     : A1,A2,A3,A4,V1,V2,V3,V4,V9,SP,LR,SR,FPEXC,FPSCR     *
;*   Regs Used         : A1,A2,A3,A4,V1,V2,V3,V4,V9,SP,LR,SR,FPEXC,FPSCR     *
;*   Local Frame Size  : 0 Args + 0 Auto + 20 Save = 20 byte                 *
;*****************************************************************************
fp_sub:
;* --------------------------------------------------------------------------*
;* V2    assigned to sa
$C$DW$230	.dwtag  DW_TAG_variable, DW_AT_name("sa")
	.dwattr $C$DW$230, DW_AT_TI_symbol_name("sa")
	.dwattr $C$DW$230, DW_AT_type(*$C$DW$T$10)
	.dwattr $C$DW$230, DW_AT_location[DW_OP_reg5]
;* V1    assigned to c
$C$DW$231	.dwtag  DW_TAG_variable, DW_AT_name("c")
	.dwattr $C$DW$231, DW_AT_TI_symbol_name("c")
	.dwattr $C$DW$231, DW_AT_type(*$C$DW$T$493)
	.dwattr $C$DW$231, DW_AT_location[DW_OP_reg4]
;* V4    assigned to b
$C$DW$232	.dwtag  DW_TAG_variable, DW_AT_name("b")
	.dwattr $C$DW$232, DW_AT_TI_symbol_name("b")
	.dwattr $C$DW$232, DW_AT_type(*$C$DW$T$493)
	.dwattr $C$DW$232, DW_AT_location[DW_OP_reg7]
;* V3    assigned to a
$C$DW$233	.dwtag  DW_TAG_variable, DW_AT_name("a")
	.dwattr $C$DW$233, DW_AT_TI_symbol_name("a")
	.dwattr $C$DW$233, DW_AT_type(*$C$DW$T$493)
	.dwattr $C$DW$233, DW_AT_location[DW_OP_reg6]
	.dwcfi	cfa_offset, 0
;** 124	-----------------------    sa = (*a).sign;
;** 127	-----------------------    if ( sa != (*b).sign ) goto g5;
        PUSH      {A4, V1, V2, V3, V4, LR} ; [DPU_3_PIPE] 
	.dwcfi	cfa_offset, 24
	.dwcfi	save_reg_to_mem, 14, -4
	.dwcfi	save_reg_to_mem, 7, -8
	.dwcfi	save_reg_to_mem, 6, -12
	.dwcfi	save_reg_to_mem, 5, -16
	.dwcfi	save_reg_to_mem, 4, -20
	.dwcfi	save_reg_to_mem, 3, -24
        MOV       V3, A1                ; [DPU_3_PIPE] |121| 
	.dwpsn	file "C:/wolfssl/ctaocrypt/src/tfm.c",line 124,column 3,is_stmt,isa 1
        LDR       V2, [V3, #548]        ; [DPU_3_PIPE] |124| 
	.dwpsn	file "C:/wolfssl/ctaocrypt/src/tfm.c",line 121,column 1,is_stmt,isa 1
        MOV       V4, A2                ; [DPU_3_PIPE] |121| 
	.dwpsn	file "C:/wolfssl/ctaocrypt/src/tfm.c",line 127,column 3,is_stmt,isa 1
        LDR       A1, [V4, #548]        ; [DPU_3_PIPE] |127| 
	.dwpsn	file "C:/wolfssl/ctaocrypt/src/tfm.c",line 121,column 1,is_stmt,isa 1
        MOV       V1, A3                ; [DPU_3_PIPE] |121| 
	.dwpsn	file "C:/wolfssl/ctaocrypt/src/tfm.c",line 127,column 3,is_stmt,isa 1
        CMP       A1, V2                ; [DPU_3_PIPE] |127| 
        BNE       ||$C$L78||            ; [DPU_3_PIPE] |127| 
        ; BRANCHCC OCCURS {||$C$L78||}   ; [] |127| 
;* --------------------------------------------------------------------------*
;** 139	-----------------------    if ( fp_cmp_mag(a, b) != (-1) ) goto g4;
	.dwpsn	file "C:/wolfssl/ctaocrypt/src/tfm.c",line 139,column 5,is_stmt,isa 1
        MOV       A1, V3                ; [DPU_3_PIPE] |139| 
$C$DW$234	.dwtag  DW_TAG_TI_branch
	.dwattr $C$DW$234, DW_AT_low_pc(0x00)
	.dwattr $C$DW$234, DW_AT_name("fp_cmp_mag")
	.dwattr $C$DW$234, DW_AT_TI_call
        BL        fp_cmp_mag            ; [DPU_3_PIPE] |139| 
        ; CALL OCCURS {fp_cmp_mag }      ; [] |139| 
        CMP       A1, #-1               ; [DPU_3_PIPE] |139| 
        BNE       ||$C$L77||            ; [DPU_3_PIPE] |139| 
        ; BRANCHCC OCCURS {||$C$L77||}   ; [] |139| 
;* --------------------------------------------------------------------------*
;** 147	-----------------------    (*c).sign = sa == 0;
;** 149	-----------------------    s_fp_sub(b, a, c);
;** 149	-----------------------    goto g6;
	.dwpsn	file "C:/wolfssl/ctaocrypt/src/tfm.c",line 147,column 7,is_stmt,isa 1
        MOVS      A1, #0                ; [DPU_3_PIPE] |147| 
        CMP       V2, #0                ; [DPU_3_PIPE] |147| 
        IT        EQ                    ; [DPU_3_PIPE] 
        MOVEQ     A1, #1                ; [DPU_3_PIPE] |147| 
	.dwpsn	file "C:/wolfssl/ctaocrypt/src/tfm.c",line 149,column 7,is_stmt,isa 1
        MOV       A2, V3                ; [DPU_3_PIPE] |149| 
        MOV       A3, V1                ; [DPU_3_PIPE] |149| 
	.dwpsn	file "C:/wolfssl/ctaocrypt/src/tfm.c",line 147,column 7,is_stmt,isa 1
        STR       A1, [V1, #548]        ; [DPU_3_PIPE] |147| 
	.dwpsn	file "C:/wolfssl/ctaocrypt/src/tfm.c",line 149,column 7,is_stmt,isa 1
        MOV       A1, V4                ; [DPU_3_PIPE] |149| 
$C$DW$235	.dwtag  DW_TAG_TI_branch
	.dwattr $C$DW$235, DW_AT_low_pc(0x00)
	.dwattr $C$DW$235, DW_AT_name("s_fp_sub")
	.dwattr $C$DW$235, DW_AT_TI_call
        BL        s_fp_sub              ; [DPU_3_PIPE] |149| 
        ; CALL OCCURS {s_fp_sub }        ; [] |149| 
$C$DW$236	.dwtag  DW_TAG_TI_branch
	.dwattr $C$DW$236, DW_AT_low_pc(0x00)
	.dwattr $C$DW$236, DW_AT_TI_return
        POP       {A4, V1, V2, V3, V4, PC} ; [DPU_3_PIPE] 
	.dwcfi	cfa_offset, 0
        ; BRANCH OCCURS                  ; [] 
	.dwcfi	restore_reg, 7
	.dwcfi	restore_reg, 6
	.dwcfi	restore_reg, 5
	.dwcfi	restore_reg, 4
	.dwcfi	restore_reg, 3
;* --------------------------------------------------------------------------*
||$C$L77||:    
;**	-----------------------g4:
;** 141	-----------------------    (*c).sign = sa;
;** 143	-----------------------    s_fp_sub(a, b, c);
;** 144	-----------------------    goto g6;
	.dwpsn	file "C:/wolfssl/ctaocrypt/src/tfm.c",line 141,column 7,is_stmt,isa 1
        STR       V2, [V1, #548]        ; [DPU_3_PIPE] |141| 
	.dwpsn	file "C:/wolfssl/ctaocrypt/src/tfm.c",line 143,column 7,is_stmt,isa 1
        MOV       A1, V3                ; [DPU_3_PIPE] |143| 
        MOV       A2, V4                ; [DPU_3_PIPE] |143| 
        MOV       A3, V1                ; [DPU_3_PIPE] |143| 
$C$DW$237	.dwtag  DW_TAG_TI_branch
	.dwattr $C$DW$237, DW_AT_low_pc(0x00)
	.dwattr $C$DW$237, DW_AT_name("s_fp_sub")
	.dwattr $C$DW$237, DW_AT_TI_call
        BL        s_fp_sub              ; [DPU_3_PIPE] |143| 
        ; CALL OCCURS {s_fp_sub }        ; [] |143| 
$C$DW$238	.dwtag  DW_TAG_TI_branch
	.dwattr $C$DW$238, DW_AT_low_pc(0x00)
	.dwattr $C$DW$238, DW_AT_TI_return
        POP       {A4, V1, V2, V3, V4, PC} ; [DPU_3_PIPE] 
	.dwcfi	cfa_offset, 0
        ; BRANCH OCCURS                  ; [] 
	.dwcfi	restore_reg, 7
	.dwcfi	restore_reg, 6
	.dwcfi	restore_reg, 5
	.dwcfi	restore_reg, 4
	.dwcfi	restore_reg, 3
;* --------------------------------------------------------------------------*
||$C$L78||:    
;**	-----------------------g5:
;** 132	-----------------------    (*c).sign = sa;
;** 133	-----------------------    s_fp_add(a, b, c);
;**	-----------------------g6:
;**  	-----------------------    return;
	.dwpsn	file "C:/wolfssl/ctaocrypt/src/tfm.c",line 132,column 5,is_stmt,isa 1
        STR       V2, [V1, #548]        ; [DPU_3_PIPE] |132| 
	.dwpsn	file "C:/wolfssl/ctaocrypt/src/tfm.c",line 133,column 5,is_stmt,isa 1
        MOV       A1, V3                ; [DPU_3_PIPE] |133| 
$C$DW$239	.dwtag  DW_TAG_TI_branch
	.dwattr $C$DW$239, DW_AT_low_pc(0x00)
	.dwattr $C$DW$239, DW_AT_name("s_fp_add")
	.dwattr $C$DW$239, DW_AT_TI_call
        BL        s_fp_add              ; [DPU_3_PIPE] |133| 
        ; CALL OCCURS {s_fp_add }        ; [] |133| 
;* --------------------------------------------------------------------------*
$C$DW$240	.dwtag  DW_TAG_TI_branch
	.dwattr $C$DW$240, DW_AT_low_pc(0x00)
	.dwattr $C$DW$240, DW_AT_TI_return
        POP       {A4, V1, V2, V3, V4, PC} ; [DPU_3_PIPE] 
	.dwcfi	cfa_offset, 0
        ; BRANCH OCCURS                  ; [] 
	.dwattr $C$DW$226, DW_AT_TI_end_file("C:/wolfssl/ctaocrypt/src/tfm.c")
	.dwattr $C$DW$226, DW_AT_TI_end_line(0x98)
	.dwattr $C$DW$226, DW_AT_TI_end_column(0x01)
	.dwendentry
	.dwendtag $C$DW$226

	.sect	".text:fp_sub_d"
	.clink
	.thumbfunc fp_sub_d
	.thumb
	.global	fp_sub_d

$C$DW$241	.dwtag  DW_TAG_subprogram, DW_AT_name("fp_sub_d")
	.dwattr $C$DW$241, DW_AT_low_pc(fp_sub_d)
	.dwattr $C$DW$241, DW_AT_high_pc(0x00)
	.dwattr $C$DW$241, DW_AT_TI_symbol_name("fp_sub_d")
	.dwattr $C$DW$241, DW_AT_external
	.dwattr $C$DW$241, DW_AT_TI_begin_file("C:/wolfssl/ctaocrypt/src/tfm.c")
	.dwattr $C$DW$241, DW_AT_TI_begin_line(0x725)
	.dwattr $C$DW$241, DW_AT_TI_begin_column(0x06)
	.dwattr $C$DW$241, DW_AT_decl_file("C:/wolfssl/ctaocrypt/src/tfm.c")
	.dwattr $C$DW$241, DW_AT_decl_line(0x725)
	.dwattr $C$DW$241, DW_AT_decl_column(0x06)
	.dwattr $C$DW$241, DW_AT_TI_max_frame_size(0x238)
	.dwpsn	file "C:/wolfssl/ctaocrypt/src/tfm.c",line 1830,column 1,is_stmt,address fp_sub_d,isa 1

	.dwfde $C$DW$CIE, fp_sub_d
$C$DW$242	.dwtag  DW_TAG_formal_parameter, DW_AT_name("a")
	.dwattr $C$DW$242, DW_AT_TI_symbol_name("a")
	.dwattr $C$DW$242, DW_AT_type(*$C$DW$T$492)
	.dwattr $C$DW$242, DW_AT_location[DW_OP_reg0]
$C$DW$243	.dwtag  DW_TAG_formal_parameter, DW_AT_name("b")
	.dwattr $C$DW$243, DW_AT_TI_symbol_name("b")
	.dwattr $C$DW$243, DW_AT_type(*$C$DW$T$122)
	.dwattr $C$DW$243, DW_AT_location[DW_OP_reg1]
$C$DW$244	.dwtag  DW_TAG_formal_parameter, DW_AT_name("c")
	.dwattr $C$DW$244, DW_AT_TI_symbol_name("c")
	.dwattr $C$DW$244, DW_AT_type(*$C$DW$T$492)
	.dwattr $C$DW$244, DW_AT_location[DW_OP_reg2]

;*****************************************************************************
;* FUNCTION NAME: fp_sub_d                                                   *
;*                                                                           *
;*   Regs Modified     : A1,A2,A3,A4,V1,V2,V9,SP,LR,SR,D0,D0_hi,D1,D1_hi,D2, *
;*                           D2_hi,D3,D3_hi,D4,D4_hi,D5,D5_hi,D6,D6_hi,D7,   *
;*                           D7_hi,FPEXC,FPSCR                               *
;*   Regs Used         : A1,A2,A3,A4,V1,V2,V9,SP,LR,SR,D0,D0_hi,D1,D1_hi,D2, *
;*                           D2_hi,D3,D3_hi,D4,D4_hi,D5,D5_hi,D6,D6_hi,D7,   *
;*                           D7_hi,FPEXC,FPSCR                               *
;*   Local Frame Size  : 0 Args + 552 Auto + 12 Save = 564 byte              *
;*****************************************************************************
fp_sub_d:
;* --------------------------------------------------------------------------*
;* A1    assigned to a
$C$DW$245	.dwtag  DW_TAG_variable, DW_AT_name("a")
	.dwattr $C$DW$245, DW_AT_TI_symbol_name("a")
	.dwattr $C$DW$245, DW_AT_type(*$C$DW$T$493)
	.dwattr $C$DW$245, DW_AT_location[DW_OP_reg0]
;* A1    assigned to b
$C$DW$246	.dwtag  DW_TAG_variable, DW_AT_name("b")
	.dwattr $C$DW$246, DW_AT_TI_symbol_name("b")
	.dwattr $C$DW$246, DW_AT_type(*$C$DW$T$1019)
	.dwattr $C$DW$246, DW_AT_location[DW_OP_reg0]
;* A1    assigned to c
$C$DW$247	.dwtag  DW_TAG_variable, DW_AT_name("c")
	.dwattr $C$DW$247, DW_AT_TI_symbol_name("c")
	.dwattr $C$DW$247, DW_AT_type(*$C$DW$T$493)
	.dwattr $C$DW$247, DW_AT_location[DW_OP_reg0]
$C$DW$248	.dwtag  DW_TAG_variable, DW_AT_name("tmp")
	.dwattr $C$DW$248, DW_AT_TI_symbol_name("tmp")
	.dwattr $C$DW$248, DW_AT_type(*$C$DW$T$491)
	.dwattr $C$DW$248, DW_AT_location[DW_OP_breg13 0]
	.dwcfi	cfa_offset, 0
;* 1832	-----------------------    fp_set(&tmp, b);
;* 1833	-----------------------    fp_sub(a, &tmp, c);
;**  	-----------------------    return;
        PUSH      {V1, V2, LR}          ; [DPU_3_PIPE] 
	.dwcfi	cfa_offset, 12
	.dwcfi	save_reg_to_mem, 14, -4
	.dwcfi	save_reg_to_mem, 5, -8
	.dwcfi	save_reg_to_mem, 4, -12
        MOV       V1, A1                ; [DPU_3_PIPE] |1830| 
        SUB       SP, SP, #508          ; [DPU_3_PIPE] 
	.dwcfi	cfa_offset, 520
        MOV       V2, A3                ; [DPU_3_PIPE] |1830| 
        SUB       SP, SP, #48           ; [DPU_3_PIPE] 
	.dwcfi	cfa_offset, 568
	.dwpsn	file "C:/wolfssl/ctaocrypt/src/tfm.c",line 1832,column 4,is_stmt,isa 1
        MOV       A1, SP                ; [DPU_3_PIPE] |1832| 
$C$DW$249	.dwtag  DW_TAG_TI_branch
	.dwattr $C$DW$249, DW_AT_low_pc(0x00)
	.dwattr $C$DW$249, DW_AT_name("fp_set")
	.dwattr $C$DW$249, DW_AT_TI_call
        BL        fp_set                ; [DPU_3_PIPE] |1832| 
        ; CALL OCCURS {fp_set }          ; [] |1832| 
	.dwpsn	file "C:/wolfssl/ctaocrypt/src/tfm.c",line 1830,column 1,is_stmt,isa 1
        MOV       A1, V1                ; [DPU_3_PIPE] |1830| 
        MOV       A3, V2                ; [DPU_3_PIPE] |1830| 
	.dwpsn	file "C:/wolfssl/ctaocrypt/src/tfm.c",line 1833,column 4,is_stmt,isa 1
        MOV       A2, SP                ; [DPU_3_PIPE] |1833| 
$C$DW$250	.dwtag  DW_TAG_TI_branch
	.dwattr $C$DW$250, DW_AT_low_pc(0x00)
	.dwattr $C$DW$250, DW_AT_name("fp_sub")
	.dwattr $C$DW$250, DW_AT_TI_call
        BL        fp_sub                ; [DPU_3_PIPE] |1833| 
        ; CALL OCCURS {fp_sub }          ; [] |1833| 
        ADD       SP, SP, #508          ; [DPU_3_PIPE] 
	.dwcfi	cfa_offset, 60
        ADD       SP, SP, #48           ; [DPU_3_PIPE] 
	.dwcfi	cfa_offset, 12
$C$DW$251	.dwtag  DW_TAG_TI_branch
	.dwattr $C$DW$251, DW_AT_low_pc(0x00)
	.dwattr $C$DW$251, DW_AT_TI_return
        POP       {V1, V2, PC}          ; [DPU_3_PIPE] 
	.dwcfi	cfa_offset, 0
        ; BRANCH OCCURS                  ; [] 
	.dwattr $C$DW$241, DW_AT_TI_end_file("C:/wolfssl/ctaocrypt/src/tfm.c")
	.dwattr $C$DW$241, DW_AT_TI_end_line(0x72a)
	.dwattr $C$DW$241, DW_AT_TI_end_column(0x01)
	.dwendentry
	.dwendtag $C$DW$241

	.sect	".text:mp_sub_d"
	.clink
	.thumbfunc mp_sub_d
	.thumb
	.global	mp_sub_d

$C$DW$252	.dwtag  DW_TAG_subprogram, DW_AT_name("mp_sub_d")
	.dwattr $C$DW$252, DW_AT_low_pc(mp_sub_d)
	.dwattr $C$DW$252, DW_AT_high_pc(0x00)
	.dwattr $C$DW$252, DW_AT_TI_symbol_name("mp_sub_d")
	.dwattr $C$DW$252, DW_AT_external
	.dwattr $C$DW$252, DW_AT_type(*$C$DW$T$10)
	.dwattr $C$DW$252, DW_AT_TI_begin_file("C:/wolfssl/ctaocrypt/src/tfm.c")
	.dwattr $C$DW$252, DW_AT_TI_begin_line(0x7a2)
	.dwattr $C$DW$252, DW_AT_TI_begin_column(0x05)
	.dwattr $C$DW$252, DW_AT_decl_file("C:/wolfssl/ctaocrypt/src/tfm.c")
	.dwattr $C$DW$252, DW_AT_decl_line(0x7a2)
	.dwattr $C$DW$252, DW_AT_decl_column(0x05)
	.dwattr $C$DW$252, DW_AT_TI_max_frame_size(0x08)
	.dwpsn	file "C:/wolfssl/ctaocrypt/src/tfm.c",line 1955,column 1,is_stmt,address mp_sub_d,isa 1

	.dwfde $C$DW$CIE, mp_sub_d
$C$DW$253	.dwtag  DW_TAG_formal_parameter, DW_AT_name("a")
	.dwattr $C$DW$253, DW_AT_TI_symbol_name("a")
	.dwattr $C$DW$253, DW_AT_type(*$C$DW$T$492)
	.dwattr $C$DW$253, DW_AT_location[DW_OP_reg0]
$C$DW$254	.dwtag  DW_TAG_formal_parameter, DW_AT_name("b")
	.dwattr $C$DW$254, DW_AT_TI_symbol_name("b")
	.dwattr $C$DW$254, DW_AT_type(*$C$DW$T$122)
	.dwattr $C$DW$254, DW_AT_location[DW_OP_reg1]
$C$DW$255	.dwtag  DW_TAG_formal_parameter, DW_AT_name("c")
	.dwattr $C$DW$255, DW_AT_TI_symbol_name("c")
	.dwattr $C$DW$255, DW_AT_type(*$C$DW$T$492)
	.dwattr $C$DW$255, DW_AT_location[DW_OP_reg2]

;*****************************************************************************
;* FUNCTION NAME: mp_sub_d                                                   *
;*                                                                           *
;*   Regs Modified     : A1,A2,A3,A4,V9,SP,LR,SR,D0,D0_hi,D1,D1_hi,D2,D2_hi, *
;*                           D3,D3_hi,D4,D4_hi,D5,D5_hi,D6,D6_hi,D7,D7_hi,   *
;*                           FPEXC,FPSCR                                     *
;*   Regs Used         : A1,A2,A3,A4,V9,SP,LR,SR,D0,D0_hi,D1,D1_hi,D2,D2_hi, *
;*                           D3,D3_hi,D4,D4_hi,D5,D5_hi,D6,D6_hi,D7,D7_hi,   *
;*                           FPEXC,FPSCR                                     *
;*   Local Frame Size  : 0 Args + 0 Auto + 4 Save = 4 byte                   *
;*****************************************************************************
mp_sub_d:
;* --------------------------------------------------------------------------*
;* A1    assigned to a
$C$DW$256	.dwtag  DW_TAG_variable, DW_AT_name("a")
	.dwattr $C$DW$256, DW_AT_TI_symbol_name("a")
	.dwattr $C$DW$256, DW_AT_type(*$C$DW$T$493)
	.dwattr $C$DW$256, DW_AT_location[DW_OP_reg0]
;* A1    assigned to b
$C$DW$257	.dwtag  DW_TAG_variable, DW_AT_name("b")
	.dwattr $C$DW$257, DW_AT_TI_symbol_name("b")
	.dwattr $C$DW$257, DW_AT_type(*$C$DW$T$1019)
	.dwattr $C$DW$257, DW_AT_location[DW_OP_reg0]
;* A1    assigned to c
$C$DW$258	.dwtag  DW_TAG_variable, DW_AT_name("c")
	.dwattr $C$DW$258, DW_AT_TI_symbol_name("c")
	.dwattr $C$DW$258, DW_AT_type(*$C$DW$T$493)
	.dwattr $C$DW$258, DW_AT_location[DW_OP_reg0]
	.dwcfi	cfa_offset, 0
;* 1956	-----------------------    fp_sub_d(a, b, c);
;* 1957	-----------------------    return 0;
        PUSH      {A4, LR}              ; [DPU_3_PIPE] 
	.dwcfi	cfa_offset, 8
	.dwcfi	save_reg_to_mem, 14, -4
	.dwcfi	save_reg_to_mem, 3, -8
	.dwpsn	file "C:/wolfssl/ctaocrypt/src/tfm.c",line 1956,column 5,is_stmt,isa 1
$C$DW$259	.dwtag  DW_TAG_TI_branch
	.dwattr $C$DW$259, DW_AT_low_pc(0x00)
	.dwattr $C$DW$259, DW_AT_name("fp_sub_d")
	.dwattr $C$DW$259, DW_AT_TI_call
        BL        fp_sub_d              ; [DPU_3_PIPE] |1956| 
        ; CALL OCCURS {fp_sub_d }        ; [] |1956| 
	.dwpsn	file "C:/wolfssl/ctaocrypt/src/tfm.c",line 1957,column 5,is_stmt,isa 1
        MOVS      A1, #0                ; [DPU_3_PIPE] |1957| 
$C$DW$260	.dwtag  DW_TAG_TI_branch
	.dwattr $C$DW$260, DW_AT_low_pc(0x00)
	.dwattr $C$DW$260, DW_AT_TI_return
        POP       {A4, PC}              ; [DPU_3_PIPE] 
	.dwcfi	cfa_offset, 0
        ; BRANCH OCCURS                  ; [] 
	.dwattr $C$DW$252, DW_AT_TI_end_file("C:/wolfssl/ctaocrypt/src/tfm.c")
	.dwattr $C$DW$252, DW_AT_TI_end_line(0x7a6)
	.dwattr $C$DW$252, DW_AT_TI_end_column(0x01)
	.dwendentry
	.dwendtag $C$DW$252

	.sect	".text:mp_sub"
	.clink
	.thumbfunc mp_sub
	.thumb
	.global	mp_sub

$C$DW$261	.dwtag  DW_TAG_subprogram, DW_AT_name("mp_sub")
	.dwattr $C$DW$261, DW_AT_low_pc(mp_sub)
	.dwattr $C$DW$261, DW_AT_high_pc(0x00)
	.dwattr $C$DW$261, DW_AT_TI_symbol_name("mp_sub")
	.dwattr $C$DW$261, DW_AT_external
	.dwattr $C$DW$261, DW_AT_type(*$C$DW$T$10)
	.dwattr $C$DW$261, DW_AT_TI_begin_file("C:/wolfssl/ctaocrypt/src/tfm.c")
	.dwattr $C$DW$261, DW_AT_TI_begin_line(0x758)
	.dwattr $C$DW$261, DW_AT_TI_begin_column(0x05)
	.dwattr $C$DW$261, DW_AT_decl_file("C:/wolfssl/ctaocrypt/src/tfm.c")
	.dwattr $C$DW$261, DW_AT_decl_line(0x758)
	.dwattr $C$DW$261, DW_AT_decl_column(0x05)
	.dwattr $C$DW$261, DW_AT_TI_max_frame_size(0x08)
	.dwpsn	file "C:/wolfssl/ctaocrypt/src/tfm.c",line 1881,column 1,is_stmt,address mp_sub,isa 1

	.dwfde $C$DW$CIE, mp_sub
$C$DW$262	.dwtag  DW_TAG_formal_parameter, DW_AT_name("a")
	.dwattr $C$DW$262, DW_AT_TI_symbol_name("a")
	.dwattr $C$DW$262, DW_AT_type(*$C$DW$T$496)
	.dwattr $C$DW$262, DW_AT_location[DW_OP_reg0]
$C$DW$263	.dwtag  DW_TAG_formal_parameter, DW_AT_name("b")
	.dwattr $C$DW$263, DW_AT_TI_symbol_name("b")
	.dwattr $C$DW$263, DW_AT_type(*$C$DW$T$496)
	.dwattr $C$DW$263, DW_AT_location[DW_OP_reg1]
$C$DW$264	.dwtag  DW_TAG_formal_parameter, DW_AT_name("c")
	.dwattr $C$DW$264, DW_AT_TI_symbol_name("c")
	.dwattr $C$DW$264, DW_AT_type(*$C$DW$T$496)
	.dwattr $C$DW$264, DW_AT_location[DW_OP_reg2]

;*****************************************************************************
;* FUNCTION NAME: mp_sub                                                     *
;*                                                                           *
;*   Regs Modified     : A1,A2,A3,A4,V9,SP,LR,SR,FPEXC,FPSCR                 *
;*   Regs Used         : A1,A2,A3,A4,V9,SP,LR,SR,FPEXC,FPSCR                 *
;*   Local Frame Size  : 0 Args + 0 Auto + 4 Save = 4 byte                   *
;*****************************************************************************
mp_sub:
;* --------------------------------------------------------------------------*
;* A1    assigned to a
$C$DW$265	.dwtag  DW_TAG_variable, DW_AT_name("a")
	.dwattr $C$DW$265, DW_AT_TI_symbol_name("a")
	.dwattr $C$DW$265, DW_AT_type(*$C$DW$T$497)
	.dwattr $C$DW$265, DW_AT_location[DW_OP_reg0]
;* A1    assigned to b
$C$DW$266	.dwtag  DW_TAG_variable, DW_AT_name("b")
	.dwattr $C$DW$266, DW_AT_TI_symbol_name("b")
	.dwattr $C$DW$266, DW_AT_type(*$C$DW$T$497)
	.dwattr $C$DW$266, DW_AT_location[DW_OP_reg0]
;* A1    assigned to c
$C$DW$267	.dwtag  DW_TAG_variable, DW_AT_name("c")
	.dwattr $C$DW$267, DW_AT_TI_symbol_name("c")
	.dwattr $C$DW$267, DW_AT_type(*$C$DW$T$497)
	.dwattr $C$DW$267, DW_AT_location[DW_OP_reg0]
	.dwcfi	cfa_offset, 0
;* 1882	-----------------------    fp_sub(a, b, c);
;* 1883	-----------------------    return 0;
        PUSH      {A4, LR}              ; [DPU_3_PIPE] 
	.dwcfi	cfa_offset, 8
	.dwcfi	save_reg_to_mem, 14, -4
	.dwcfi	save_reg_to_mem, 3, -8
	.dwpsn	file "C:/wolfssl/ctaocrypt/src/tfm.c",line 1882,column 3,is_stmt,isa 1
$C$DW$268	.dwtag  DW_TAG_TI_branch
	.dwattr $C$DW$268, DW_AT_low_pc(0x00)
	.dwattr $C$DW$268, DW_AT_name("fp_sub")
	.dwattr $C$DW$268, DW_AT_TI_call
        BL        fp_sub                ; [DPU_3_PIPE] |1882| 
        ; CALL OCCURS {fp_sub }          ; [] |1882| 
	.dwpsn	file "C:/wolfssl/ctaocrypt/src/tfm.c",line 1883,column 3,is_stmt,isa 1
        MOVS      A1, #0                ; [DPU_3_PIPE] |1883| 
$C$DW$269	.dwtag  DW_TAG_TI_branch
	.dwattr $C$DW$269, DW_AT_low_pc(0x00)
	.dwattr $C$DW$269, DW_AT_TI_return
        POP       {A4, PC}              ; [DPU_3_PIPE] 
	.dwcfi	cfa_offset, 0
        ; BRANCH OCCURS                  ; [] 
	.dwattr $C$DW$261, DW_AT_TI_end_file("C:/wolfssl/ctaocrypt/src/tfm.c")
	.dwattr $C$DW$261, DW_AT_TI_end_line(0x75c)
	.dwattr $C$DW$261, DW_AT_TI_end_column(0x01)
	.dwendentry
	.dwendtag $C$DW$261

	.sect	".text:fp_sqr_comba"
	.clink
	.thumbfunc fp_sqr_comba
	.thumb
	.global	fp_sqr_comba

$C$DW$270	.dwtag  DW_TAG_subprogram, DW_AT_name("fp_sqr_comba")
	.dwattr $C$DW$270, DW_AT_low_pc(fp_sqr_comba)
	.dwattr $C$DW$270, DW_AT_high_pc(0x00)
	.dwattr $C$DW$270, DW_AT_TI_symbol_name("fp_sqr_comba")
	.dwattr $C$DW$270, DW_AT_external
	.dwattr $C$DW$270, DW_AT_TI_begin_file("C:/wolfssl/ctaocrypt/src/tfm.c")
	.dwattr $C$DW$270, DW_AT_TI_begin_line(0x52a)
	.dwattr $C$DW$270, DW_AT_TI_begin_column(0x06)
	.dwattr $C$DW$270, DW_AT_decl_file("C:/wolfssl/ctaocrypt/src/tfm.c")
	.dwattr $C$DW$270, DW_AT_decl_line(0x52a)
	.dwattr $C$DW$270, DW_AT_decl_column(0x06)
	.dwattr $C$DW$270, DW_AT_TI_max_frame_size(0x290)
	.dwpsn	file "C:/wolfssl/ctaocrypt/src/tfm.c",line 1323,column 1,is_stmt,address fp_sqr_comba,isa 1

	.dwfde $C$DW$CIE, fp_sqr_comba
$C$DW$271	.dwtag  DW_TAG_formal_parameter, DW_AT_name("A")
	.dwattr $C$DW$271, DW_AT_TI_symbol_name("A")
	.dwattr $C$DW$271, DW_AT_type(*$C$DW$T$492)
	.dwattr $C$DW$271, DW_AT_location[DW_OP_reg0]
$C$DW$272	.dwtag  DW_TAG_formal_parameter, DW_AT_name("B")
	.dwattr $C$DW$272, DW_AT_TI_symbol_name("B")
	.dwattr $C$DW$272, DW_AT_type(*$C$DW$T$492)
	.dwattr $C$DW$272, DW_AT_location[DW_OP_reg1]

;*****************************************************************************
;* FUNCTION NAME: fp_sqr_comba                                               *
;*                                                                           *
;*   Regs Modified     : A1,A2,A3,A4,V1,V2,V3,V4,V5,V6,V7,V8,V9,SP,LR,SR,D0, *
;*                           D0_hi,D1,D1_hi,D2,D2_hi,D3,D3_hi,D4,D4_hi,D5,   *
;*                           D5_hi,D6,D6_hi,D7,D7_hi,FPEXC,FPSCR             *
;*   Regs Used         : A1,A2,A3,A4,V1,V2,V3,V4,V5,V6,V7,V8,V9,SP,LR,SR,D0, *
;*                           D0_hi,D1,D1_hi,D2,D2_hi,D3,D3_hi,D4,D4_hi,D5,   *
;*                           D5_hi,D6,D6_hi,D7,D7_hi,FPEXC,FPSCR             *
;*   Local Frame Size  : 0 Args + 620 Auto + 36 Save = 656 byte              *
;*****************************************************************************
fp_sqr_comba:
;* --------------------------------------------------------------------------*
;* A1    assigned to $O$C2
$C$DW$273	.dwtag  DW_TAG_variable, DW_AT_name("$O$C2")
	.dwattr $C$DW$273, DW_AT_TI_symbol_name("$O$C2")
	.dwattr $C$DW$273, DW_AT_type(*$C$DW$T$11)
	.dwattr $C$DW$273, DW_AT_location[DW_OP_reg0]
;* A1    assigned to $O$C3
$C$DW$274	.dwtag  DW_TAG_variable, DW_AT_name("$O$C3")
	.dwattr $C$DW$274, DW_AT_TI_symbol_name("$O$C3")
	.dwattr $C$DW$274, DW_AT_type(*$C$DW$T$15)
	.dwattr $C$DW$274, DW_AT_location[DW_OP_reg0 DW_OP_piece 4 DW_OP_reg0 DW_OP_piece 4]
;* A1    assigned to $O$C4
$C$DW$275	.dwtag  DW_TAG_variable, DW_AT_name("$O$C4")
	.dwattr $C$DW$275, DW_AT_TI_symbol_name("$O$C4")
	.dwattr $C$DW$275, DW_AT_type(*$C$DW$T$15)
	.dwattr $C$DW$275, DW_AT_location[DW_OP_reg0 DW_OP_piece 4 DW_OP_reg2 DW_OP_piece 4]
;* A3    assigned to $O$C5
$C$DW$276	.dwtag  DW_TAG_variable, DW_AT_name("$O$C5")
	.dwattr $C$DW$276, DW_AT_TI_symbol_name("$O$C5")
	.dwattr $C$DW$276, DW_AT_type(*$C$DW$T$10)
	.dwattr $C$DW$276, DW_AT_location[DW_OP_reg2]
;* A3    assigned to $O$U25
$C$DW$277	.dwtag  DW_TAG_variable, DW_AT_name("$O$U25")
	.dwattr $C$DW$277, DW_AT_TI_symbol_name("$O$U25")
	.dwattr $C$DW$277, DW_AT_type(*$C$DW$T$10)
	.dwattr $C$DW$277, DW_AT_location[DW_OP_reg2]
$C$DW$278	.dwtag  DW_TAG_variable, DW_AT_name("$O$U32")
	.dwattr $C$DW$278, DW_AT_TI_symbol_name("$O$U32")
	.dwattr $C$DW$278, DW_AT_type(*$C$DW$T$10)
	.dwattr $C$DW$278, DW_AT_location[DW_OP_breg13 552]
;* V1    assigned to $O$U4
$C$DW$279	.dwtag  DW_TAG_variable, DW_AT_name("$O$U4")
	.dwattr $C$DW$279, DW_AT_TI_symbol_name("$O$U4")
	.dwattr $C$DW$279, DW_AT_type(*$C$DW$T$10)
	.dwattr $C$DW$279, DW_AT_location[DW_OP_reg4]
$C$DW$280	.dwtag  DW_TAG_variable, DW_AT_name("$O$U93")
	.dwattr $C$DW$280, DW_AT_TI_symbol_name("$O$U93")
	.dwattr $C$DW$280, DW_AT_type(*$C$DW$T$1013)
	.dwattr $C$DW$280, DW_AT_location[DW_OP_breg13 556]
;* A3    assigned to $O$U111
$C$DW$281	.dwtag  DW_TAG_variable, DW_AT_name("$O$U111")
	.dwattr $C$DW$281, DW_AT_TI_symbol_name("$O$U111")
	.dwattr $C$DW$281, DW_AT_type(*$C$DW$T$1013)
	.dwattr $C$DW$281, DW_AT_location[DW_OP_reg2]
$C$DW$282	.dwtag  DW_TAG_variable, DW_AT_name("$O$L1")
	.dwattr $C$DW$282, DW_AT_TI_symbol_name("$O$L1")
	.dwattr $C$DW$282, DW_AT_type(*$C$DW$T$10)
	.dwattr $C$DW$282, DW_AT_location[DW_OP_breg13 560]
$C$DW$283	.dwtag  DW_TAG_variable, DW_AT_name("A")
	.dwattr $C$DW$283, DW_AT_TI_symbol_name("A")
	.dwattr $C$DW$283, DW_AT_type(*$C$DW$T$493)
	.dwattr $C$DW$283, DW_AT_location[DW_OP_breg13 564]
$C$DW$284	.dwtag  DW_TAG_variable, DW_AT_name("B")
	.dwattr $C$DW$284, DW_AT_TI_symbol_name("B")
	.dwattr $C$DW$284, DW_AT_type(*$C$DW$T$493)
	.dwattr $C$DW$284, DW_AT_location[DW_OP_breg13 568]
$C$DW$285	.dwtag  DW_TAG_variable, DW_AT_name("pa")
	.dwattr $C$DW$285, DW_AT_TI_symbol_name("pa")
	.dwattr $C$DW$285, DW_AT_type(*$C$DW$T$10)
	.dwattr $C$DW$285, DW_AT_location[DW_OP_breg13 572]
$C$DW$286	.dwtag  DW_TAG_variable, DW_AT_name("ix")
	.dwattr $C$DW$286, DW_AT_TI_symbol_name("ix")
	.dwattr $C$DW$286, DW_AT_type(*$C$DW$T$10)
	.dwattr $C$DW$286, DW_AT_location[DW_OP_breg13 576]
;* V1    assigned to c0
$C$DW$287	.dwtag  DW_TAG_variable, DW_AT_name("c0")
	.dwattr $C$DW$287, DW_AT_TI_symbol_name("c0")
	.dwattr $C$DW$287, DW_AT_type(*$C$DW$T$122)
	.dwattr $C$DW$287, DW_AT_location[DW_OP_reg4]
$C$DW$288	.dwtag  DW_TAG_variable, DW_AT_name("c2")
	.dwattr $C$DW$288, DW_AT_TI_symbol_name("c2")
	.dwattr $C$DW$288, DW_AT_type(*$C$DW$T$122)
	.dwattr $C$DW$288, DW_AT_location[DW_OP_breg13 580]
$C$DW$289	.dwtag  DW_TAG_variable, DW_AT_name("dst")
	.dwattr $C$DW$289, DW_AT_TI_symbol_name("dst")
	.dwattr $C$DW$289, DW_AT_type(*$C$DW$T$492)
	.dwattr $C$DW$289, DW_AT_location[DW_OP_breg13 584]
;* A4    assigned to tx
$C$DW$290	.dwtag  DW_TAG_variable, DW_AT_name("tx")
	.dwattr $C$DW$290, DW_AT_TI_symbol_name("tx")
	.dwattr $C$DW$290, DW_AT_type(*$C$DW$T$10)
	.dwattr $C$DW$290, DW_AT_location[DW_OP_reg3]
;* A3    assigned to ty
$C$DW$291	.dwtag  DW_TAG_variable, DW_AT_name("ty")
	.dwattr $C$DW$291, DW_AT_TI_symbol_name("ty")
	.dwattr $C$DW$291, DW_AT_type(*$C$DW$T$10)
	.dwattr $C$DW$291, DW_AT_location[DW_OP_reg2]
$C$DW$292	.dwtag  DW_TAG_variable, DW_AT_name("iy")
	.dwattr $C$DW$292, DW_AT_TI_symbol_name("iy")
	.dwattr $C$DW$292, DW_AT_type(*$C$DW$T$10)
	.dwattr $C$DW$292, DW_AT_location[DW_OP_breg13 588]
;* A2    assigned to tmpy
$C$DW$293	.dwtag  DW_TAG_variable, DW_AT_name("tmpy")
	.dwattr $C$DW$293, DW_AT_TI_symbol_name("tmpy")
	.dwattr $C$DW$293, DW_AT_type(*$C$DW$T$955)
	.dwattr $C$DW$293, DW_AT_location[DW_OP_reg1]
;* LR    assigned to tmpx
$C$DW$294	.dwtag  DW_TAG_variable, DW_AT_name("tmpx")
	.dwattr $C$DW$294, DW_AT_TI_symbol_name("tmpx")
	.dwattr $C$DW$294, DW_AT_type(*$C$DW$T$955)
	.dwattr $C$DW$294, DW_AT_location[DW_OP_reg14]
;* A1    assigned to t
$C$DW$295	.dwtag  DW_TAG_variable, DW_AT_name("t")
	.dwattr $C$DW$295, DW_AT_TI_symbol_name("t")
	.dwattr $C$DW$295, DW_AT_type(*$C$DW$T$1212)
	.dwattr $C$DW$295, DW_AT_location[DW_OP_reg0 DW_OP_piece 4 DW_OP_reg0 DW_OP_piece 4]
;* A1    assigned to $O$V0
$C$DW$296	.dwtag  DW_TAG_variable, DW_AT_name("$O$V0")
	.dwattr $C$DW$296, DW_AT_TI_symbol_name("$O$V0")
	.dwattr $C$DW$296, DW_AT_type(*$C$DW$T$10)
	.dwattr $C$DW$296, DW_AT_location[DW_OP_reg0]
$C$DW$297	.dwtag  DW_TAG_variable, DW_AT_name("$O$d2")
	.dwattr $C$DW$297, DW_AT_TI_symbol_name("$O$d2")
	.dwattr $C$DW$297, DW_AT_type(*$C$DW$T$10)
	.dwattr $C$DW$297, DW_AT_location[DW_OP_breg13 592]
;* A4    assigned to $O$d4
$C$DW$298	.dwtag  DW_TAG_variable, DW_AT_name("$O$d4")
	.dwattr $C$DW$298, DW_AT_TI_symbol_name("$O$d4")
	.dwattr $C$DW$298, DW_AT_type(*$C$DW$T$10)
	.dwattr $C$DW$298, DW_AT_location[DW_OP_reg3]
;* V1    assigned to $O$d3
$C$DW$299	.dwtag  DW_TAG_variable, DW_AT_name("$O$d3")
	.dwattr $C$DW$299, DW_AT_TI_symbol_name("$O$d3")
	.dwattr $C$DW$299, DW_AT_type(*$C$DW$T$10)
	.dwattr $C$DW$299, DW_AT_location[DW_OP_reg4]
;* V4    assigned to c1
$C$DW$300	.dwtag  DW_TAG_variable, DW_AT_name("c1")
	.dwattr $C$DW$300, DW_AT_TI_symbol_name("c1")
	.dwattr $C$DW$300, DW_AT_type(*$C$DW$T$122)
	.dwattr $C$DW$300, DW_AT_location[DW_OP_reg7]
;* A1    assigned to tt
$C$DW$301	.dwtag  DW_TAG_variable, DW_AT_name("tt")
	.dwattr $C$DW$301, DW_AT_TI_symbol_name("tt")
	.dwattr $C$DW$301, DW_AT_type(*$C$DW$T$1212)
	.dwattr $C$DW$301, DW_AT_location[DW_OP_reg0 DW_OP_piece 4 DW_OP_reg0 DW_OP_piece 4]
;* A1    assigned to tt
$C$DW$302	.dwtag  DW_TAG_variable, DW_AT_name("tt")
	.dwattr $C$DW$302, DW_AT_TI_symbol_name("tt")
	.dwattr $C$DW$302, DW_AT_type(*$C$DW$T$1212)
	.dwattr $C$DW$302, DW_AT_location[DW_OP_reg0 DW_OP_piece 4 DW_OP_reg0 DW_OP_piece 4]
;* A1    assigned to tt
$C$DW$303	.dwtag  DW_TAG_variable, DW_AT_name("tt")
	.dwattr $C$DW$303, DW_AT_TI_symbol_name("tt")
	.dwattr $C$DW$303, DW_AT_type(*$C$DW$T$1212)
	.dwattr $C$DW$303, DW_AT_location[DW_OP_reg0 DW_OP_piece 4 DW_OP_reg0 DW_OP_piece 4]
;* A1    assigned to tt
$C$DW$304	.dwtag  DW_TAG_variable, DW_AT_name("tt")
	.dwattr $C$DW$304, DW_AT_TI_symbol_name("tt")
	.dwattr $C$DW$304, DW_AT_type(*$C$DW$T$1212)
	.dwattr $C$DW$304, DW_AT_location[DW_OP_reg0 DW_OP_piece 4 DW_OP_reg0 DW_OP_piece 4]
;* A1    assigned to tt
$C$DW$305	.dwtag  DW_TAG_variable, DW_AT_name("tt")
	.dwattr $C$DW$305, DW_AT_TI_symbol_name("tt")
	.dwattr $C$DW$305, DW_AT_type(*$C$DW$T$1212)
	.dwattr $C$DW$305, DW_AT_location[DW_OP_reg0 DW_OP_piece 4 DW_OP_reg0 DW_OP_piece 4]
;* A1    assigned to tt
$C$DW$306	.dwtag  DW_TAG_variable, DW_AT_name("tt")
	.dwattr $C$DW$306, DW_AT_TI_symbol_name("tt")
	.dwattr $C$DW$306, DW_AT_type(*$C$DW$T$1212)
	.dwattr $C$DW$306, DW_AT_location[DW_OP_reg0 DW_OP_piece 4 DW_OP_reg0 DW_OP_piece 4]
;* A1    assigned to t
$C$DW$307	.dwtag  DW_TAG_variable, DW_AT_name("t")
	.dwattr $C$DW$307, DW_AT_TI_symbol_name("t")
	.dwattr $C$DW$307, DW_AT_type(*$C$DW$T$1212)
	.dwattr $C$DW$307, DW_AT_location[DW_OP_reg0 DW_OP_piece 4 DW_OP_reg0 DW_OP_piece 4]
$C$DW$308	.dwtag  DW_TAG_variable, DW_AT_name("tmp")
	.dwattr $C$DW$308, DW_AT_TI_symbol_name("tmp")
	.dwattr $C$DW$308, DW_AT_type(*$C$DW$T$491)
	.dwattr $C$DW$308, DW_AT_location[DW_OP_breg13 0]
	.dwcfi	cfa_offset, 0
;* 1332	-----------------------    if ( (pa = (*A).used*2) < 136 ) goto g3;
;* 1334	-----------------------    pa = 135;
;**	-----------------------g3:
;* 1341	-----------------------    if ( A == B ) goto g5;
        PUSH      {V1, V2, V3, V4, V5, V6, V7, V8, LR} ; [DPU_3_PIPE] 
	.dwcfi	cfa_offset, 36
	.dwcfi	save_reg_to_mem, 14, -4
	.dwcfi	save_reg_to_mem, 11, -8
	.dwcfi	save_reg_to_mem, 10, -12
	.dwcfi	save_reg_to_mem, 9, -16
	.dwcfi	save_reg_to_mem, 8, -20
	.dwcfi	save_reg_to_mem, 7, -24
	.dwcfi	save_reg_to_mem, 6, -28
	.dwcfi	save_reg_to_mem, 5, -32
	.dwcfi	save_reg_to_mem, 4, -36
        SUB       SP, SP, #508          ; [DPU_3_PIPE] 
	.dwcfi	cfa_offset, 544
        SUB       SP, SP, #112          ; [DPU_3_PIPE] 
	.dwcfi	cfa_offset, 656
        STR       A1, [SP, #564]        ; [DPU_3_PIPE] |1323| 
	.dwpsn	file "C:/wolfssl/ctaocrypt/src/tfm.c",line 1332,column 3,is_stmt,isa 1
        LDR       A1, [A1, #544]        ; [DPU_3_PIPE] |1332| 
	.dwpsn	file "C:/wolfssl/ctaocrypt/src/tfm.c",line 1323,column 1,is_stmt,isa 1
        STR       A2, [SP, #568]        ; [DPU_3_PIPE] |1323| 
	.dwpsn	file "C:/wolfssl/ctaocrypt/src/tfm.c",line 1332,column 3,is_stmt,isa 1
        LSLS      A1, A1, #1            ; [DPU_3_PIPE] |1332| 
        CMP       A1, #136              ; [DPU_3_PIPE] |1332| 
        STR       A1, [SP, #572]        ; [DPU_3_PIPE] |1332| 
        ITT       GE                    ; [DPU_3_PIPE] 
	.dwpsn	file "C:/wolfssl/ctaocrypt/src/tfm.c",line 1334,column 6,is_stmt,isa 1
        MOVGE     A1, #135              ; [DPU_3_PIPE] |1334| 
        STRGE     A1, [SP, #572]        ; [DPU_3_PIPE] |1334| 
        LDR       A1, [SP, #564]        ; [DPU_3_PIPE] 
	.dwpsn	file "C:/wolfssl/ctaocrypt/src/tfm.c",line 1341,column 3,is_stmt,isa 1
        CMP       A2, A1                ; [DPU_3_PIPE] |1341| 
        BEQ       ||$C$L79||            ; [DPU_3_PIPE] |1341| 
        ; BRANCHCC OCCURS {||$C$L79||}   ; [] |1341| 
;* --------------------------------------------------------------------------*
;* 1345	-----------------------    memset((void *)B, 0, 552u);
;* 1346	-----------------------    dst = B;
;* 1349	-----------------------    goto g6;
        MOV       V1, A2                ; [DPU_3_PIPE] 
        MOV       A1, A2                ; [DPU_3_PIPE] 
	.dwpsn	file "C:/wolfssl/ctaocrypt/src/tfm.c",line 1345,column 6,is_stmt,isa 1
        MOV       A3, #552              ; [DPU_3_PIPE] |1345| 
        MOVS      A2, #0                ; [DPU_3_PIPE] |1345| 
$C$DW$309	.dwtag  DW_TAG_TI_branch
	.dwattr $C$DW$309, DW_AT_low_pc(0x00)
	.dwattr $C$DW$309, DW_AT_name("memset")
	.dwattr $C$DW$309, DW_AT_TI_call
        BL        memset                ; [DPU_3_PIPE] |1345| 
        ; CALL OCCURS {memset }          ; [] |1345| 
	.dwpsn	file "C:/wolfssl/ctaocrypt/src/tfm.c",line 1346,column 6,is_stmt,isa 1
        STR       V1, [SP, #584]        ; [DPU_3_PIPE] |1346| 
	.dwpsn	file "C:/wolfssl/ctaocrypt/src/tfm.c",line 1349,column 16,is_stmt,isa 1
        B         ||$C$L80||            ; [DPU_3_PIPE] |1349| 
        ; BRANCH OCCURS {||$C$L80||}     ; [] |1349| 
;* --------------------------------------------------------------------------*
||$C$L79||:    
;**	-----------------------g5:
;* 1342	-----------------------    memset(&tmp, 0, 552u);
;* 1343	-----------------------    dst = &tmp;
	.dwpsn	file "C:/wolfssl/ctaocrypt/src/tfm.c",line 1342,column 6,is_stmt,isa 1
        MOV       A1, SP                ; [DPU_3_PIPE] |1342| 
        MOVS      A2, #0                ; [DPU_3_PIPE] |1342| 
        MOV       A3, #552              ; [DPU_3_PIPE] |1342| 
$C$DW$310	.dwtag  DW_TAG_TI_branch
	.dwattr $C$DW$310, DW_AT_low_pc(0x00)
	.dwattr $C$DW$310, DW_AT_name("memset")
	.dwattr $C$DW$310, DW_AT_TI_call
        BL        memset                ; [DPU_3_PIPE] |1342| 
        ; CALL OCCURS {memset }          ; [] |1342| 
	.dwpsn	file "C:/wolfssl/ctaocrypt/src/tfm.c",line 1343,column 6,is_stmt,isa 1
        STR       SP, [SP, #584]        ; [DPU_3_PIPE] |1343| 
;* --------------------------------------------------------------------------*
||$C$L80||:    
;**	-----------------------g6:
;* 1349	-----------------------    if ( pa <= 0 ) goto g19;
        LDR       A1, [SP, #572]        ; [DPU_3_PIPE] 
	.dwpsn	file "C:/wolfssl/ctaocrypt/src/tfm.c",line 1349,column 16,is_stmt,isa 1
        CMP       A1, #0                ; [DPU_3_PIPE] |1349| 
        BLE       ||$C$L86||            ; [DPU_3_PIPE] |1349| 
        ; BRANCHCC OCCURS {||$C$L86||}   ; [] |1349| 
;* --------------------------------------------------------------------------*
;**  	-----------------------    U$93 = (unsigned *)dst;
;* 1354	-----------------------    L$1 = pa;
;**  	-----------------------    U$32 = 0;
;* 1339	-----------------------    c1 = c2 = 0u;
;* 1349	-----------------------    ix = 0;
;**  	-----------------------    #pragma MUST_ITERATE(1, 136, 1)
;**  	-----------------------    #pragma LOOP_FLAGS(4096u)
	.dwpsn	file "C:/wolfssl/ctaocrypt/src/tfm.c",line 1378,column 11,is_stmt,isa 1
        LDR       A3, [SP, #584]        ; [DPU_3_PIPE] |1378| 
        LDR       LR, [SP, #572]        ; [DPU_3_PIPE] 
        MOVS      A1, #0                ; [DPU_3_PIPE] |1378| 
        STR       A1, [SP, #600]        ; [DPU_3_PIPE] |1378| 
        STR       A1, [SP, #604]        ; [DPU_3_PIPE] |1378| 
        MOVS      V4, #0                ; [DPU_3_PIPE] 
        STR       V4, [SP, #552]        ; [DPU_3_PIPE] 
        STR       A1, [SP, #608]        ; [DPU_3_PIPE] |1378| 
        STR       V4, [SP, #580]        ; [DPU_3_PIPE] 
        STR       A1, [SP, #612]        ; [DPU_3_PIPE] |1378| 
        STR       A1, [SP, #616]        ; [DPU_3_PIPE] |1378| 
        STR       V4, [SP, #576]        ; [DPU_3_PIPE] 
        STR       A3, [SP, #556]        ; [DPU_3_PIPE] 
        MOV       V3, A1                ; [DPU_3_PIPE] |1378| 
	.dwpsn	file "C:/wolfssl/ctaocrypt/src/tfm.c",line 1354,column 7,is_stmt,isa 1
        STR       LR, [SP, #560]        ; [DPU_3_PIPE] |1354| 
        MOV       V7, V3                ; [DPU_3_PIPE] 
;* --------------------------------------------------------------------------*
;*   BEGIN LOOP ||$C$L81||
;*
;*   Loop source line                : 1349
;*   Loop closing brace source line  : 1389
;*   Known Minimum Trip Count        : 1
;*   Known Maximum Trip Count        : 136
;*   Known Max Trip Count Factor     : 1
;* --------------------------------------------------------------------------*
||$C$L81||:    
;**	-----------------------g8:
;* 1354	-----------------------    U$4 = (*A).used;
;* 1354	-----------------------    U$25 = U$4-1;
;* 1354	-----------------------    (U$25 < ix) ? (ty = U$25) : (ty = ix);
;* 1355	-----------------------    tx = ix-ty;
;* 1358	-----------------------    tmpx = ty*(-4)+U$32+(unsigned *)A;
;* 1359	-----------------------    tmpy = ty*4+(unsigned *)A;
;* 1364	-----------------------    (U$4-ix <= 0) ? (iy = U$4-tx) : (iy = ty+1);
;* 1371	-----------------------    C$5 = ty-tx+1>>1;
;* 1371	-----------------------    if ( iy < C$5 ) goto g10;
;* 1371	-----------------------    iy = C$5;
;**	-----------------------g10:
;* 1374	-----------------------    c0 = c1;
;* 1374	-----------------------    c1 = c2;
;* 1374	-----------------------    c2 = 0u;
;* 1377	-----------------------    if ( iy <= 0 ) goto g16;
        LDR       A3, [SP, #564]        ; [DPU_3_PIPE] 
        LDR       A4, [SP, #576]        ; [DPU_3_PIPE] |1354| 
        LDR       V1, [A3, #544]        ; [DPU_3_PIPE] |1354| 
        SUBS      A3, V1, #1            ; [DPU_3_PIPE] |1354| 
        CMP       A4, A3                ; [DPU_3_PIPE] |1354| 
        IT        LE                    ; [DPU_3_PIPE] 
        MOVLE     A3, A4                ; [DPU_3_PIPE] 
	.dwpsn	file "C:/wolfssl/ctaocrypt/src/tfm.c",line 1355,column 7,is_stmt,isa 1
        LDR       LR, [SP, #564]        ; [DPU_3_PIPE] |1355| 
        LDR       V9, [SP, #552]        ; [DPU_3_PIPE] 
	.dwpsn	file "C:/wolfssl/ctaocrypt/src/tfm.c",line 1359,column 7,is_stmt,isa 1
        ADD       A2, LR, A3, LSL #2    ; [DPU_3_PIPE] |1359| 
	.dwpsn	file "C:/wolfssl/ctaocrypt/src/tfm.c",line 1364,column 7,is_stmt,isa 1
        SUBS      V2, V1, A4            ; [DPU_3_PIPE] |1364| 
	.dwpsn	file "C:/wolfssl/ctaocrypt/src/tfm.c",line 1358,column 7,is_stmt,isa 1
        SUB       V9, V9, A3, LSL #2    ; [DPU_3_PIPE] |1358| 
        ADD       LR, LR, V9            ; [DPU_3_PIPE] |1358| 
	.dwpsn	file "C:/wolfssl/ctaocrypt/src/tfm.c",line 1355,column 7,is_stmt,isa 1
        SUB       A4, A4, A3            ; [DPU_3_PIPE] |1355| 
        ITTEE     LE                    ; [DPU_3_PIPE] 
	.dwpsn	file "C:/wolfssl/ctaocrypt/src/tfm.c",line 1364,column 7,is_stmt,isa 1
        SUBLE     V1, V1, A4            ; [DPU_3_PIPE] |1364| 
        STRLE     V1, [SP, #588]        ; [DPU_3_PIPE] |1364| 
        ADDGT     V1, A3, #1            ; [DPU_3_PIPE] |1364| 
        STRGT     V1, [SP, #588]        ; [DPU_3_PIPE] |1364| 
	.dwpsn	file "C:/wolfssl/ctaocrypt/src/tfm.c",line 1371,column 7,is_stmt,isa 1
        SUBS      A3, A3, A4            ; [DPU_3_PIPE] |1371| 
        ADDS      A3, A3, #1            ; [DPU_3_PIPE] |1371| 
        ASRS      A3, A3, #1            ; [DPU_3_PIPE] |1371| 
        CMP       A3, V1                ; [DPU_3_PIPE] |1371| 
        IT        LE                    ; [DPU_3_PIPE] 
        STRLE     A3, [SP, #588]        ; [DPU_3_PIPE] |1371| 
	.dwpsn	file "C:/wolfssl/ctaocrypt/src/tfm.c",line 1374,column 7,is_stmt,isa 1
        LDR       V9, [SP, #588]        ; [DPU_3_PIPE] |1374| 
        MOVS      A3, #0                ; [DPU_3_PIPE] |1374| 
        MOV       V1, V4                ; [DPU_3_PIPE] |1374| 
        LDR       V4, [SP, #580]        ; [DPU_3_PIPE] |1374| 
	.dwpsn	file "C:/wolfssl/ctaocrypt/src/tfm.c",line 1377,column 20,is_stmt,isa 1
        CMP       V9, #0                ; [DPU_3_PIPE] |1377| 
	.dwpsn	file "C:/wolfssl/ctaocrypt/src/tfm.c",line 1374,column 7,is_stmt,isa 1
        STR       A3, [SP, #580]        ; [DPU_3_PIPE] |1374| 
	.dwpsn	file "C:/wolfssl/ctaocrypt/src/tfm.c",line 1377,column 20,is_stmt,isa 1
        BLE       ||$C$L84||            ; [DPU_3_PIPE] |1377| 
        ; BRANCHCC OCCURS {||$C$L84||}   ; [] |1377| 
;* --------------------------------------------------------------------------*
;**  	-----------------------    d$2 = iy>>1;
;**  	-----------------------    if ( iy < 2 ) goto g14;
        MOV       A3, V9                ; [DPU_3_PIPE] 
        CMP       V9, #2                ; [DPU_3_PIPE] 
        ASR       A3, A3, #1            ; [DPU_3_PIPE] 
        STR       A3, [SP, #592]        ; [DPU_3_PIPE] 
        BLT       ||$C$L83||            ; [DPU_3_PIPE] 
        ; BRANCHCC OCCURS {||$C$L83||}   ; [] 
;* --------------------------------------------------------------------------*
;**  	-----------------------    #pragma MUST_ITERATE(1, 1073741823, 1)
;**  	-----------------------    // LOOP BELOW UNROLLED BY FACTOR(2)
;**  	-----------------------    #pragma LOOP_FLAGS(4102u)
;* --------------------------------------------------------------------------*
;*   BEGIN LOOP ||$C$L82||
;*
;*   Loop source line                : 1377
;*   Loop closing brace source line  : 1379
;*   Loop Unroll Multiple            : 2x
;*   Known Minimum Trip Count        : 1
;*   Known Maximum Trip Count        : 1073741823
;*   Known Max Trip Count Factor     : 1
;* --------------------------------------------------------------------------*
||$C$L82||:    
;**	-----------------------g13:
;* 1378	-----------------------    C$4 = _umull(*tmpx++, *tmpy--);
;* 1378	-----------------------    tt = (unsigned long long)c0+C$4;
;* 1378	-----------------------    c0 = tt;
;* 1378	-----------------------    tt = (unsigned long long)c1+(tt>>32);
;* 1378	-----------------------    c2 += tt>>32;
;* 1378	-----------------------    tt = (unsigned long long)c0+C$4;
;* 1378	-----------------------    c0 = tt;
;* 1378	-----------------------    tt = (unsigned long long)(unsigned)tt+(tt>>32);
;* 1378	-----------------------    c2 += tt>>32;
;* 1378	-----------------------    t = _umull(*tmpx++, *tmpy--);
;* 1378	-----------------------    tt = (unsigned long long)c0+t;
;* 1378	-----------------------    c0 = tt;
;* 1378	-----------------------    tt = (unsigned long long)(unsigned)tt+(tt>>32);
;* 1378	-----------------------    c2 += tt>>32;
;* 1378	-----------------------    tt = (unsigned long long)c0+t;
;* 1378	-----------------------    c0 = tt;
;* 1378	-----------------------    tt = (unsigned long long)(unsigned)tt+(tt>>32);
;* 1378	-----------------------    c1 = tt;
;* 1378	-----------------------    c2 += tt>>32;
;* 1377	-----------------------    if ( --d$2 ) goto g13;
	.dwpsn	file "C:/wolfssl/ctaocrypt/src/tfm.c",line 1378,column 11,is_stmt,isa 1
        LDR       A3, [A2], #-4         ; [DPU_3_PIPE] |1378| 
        LDR       A4, [LR], #4          ; [DPU_3_PIPE] |1378| 
        MOV       V2, V7                ; [DPU_3_PIPE] |1378| 
        MOV       V5, V7                ; [DPU_3_PIPE] |1378| 
        MOV       V6, V7                ; [DPU_3_PIPE] |1378| 
        UMULL     V8, V9, A4, A3        ; [DPU_3_PIPE] |1378| 
        ADDS      V1, V1, V8            ; [DPU_3_PIPE] |1378| 
        ADC       V2, V2, V9            ; [DPU_3_PIPE] |1378| 
        MOVS      A3, V2                ; [DPU_3_PIPE] |1378| 
        ADDS      A3, A3, V4            ; [DPU_3_PIPE] |1378| 
        MOV       V4, V7                ; [DPU_3_PIPE] |1378| 
        ADC       A4, V6, V5            ; [DPU_3_PIPE] |1378| 
        ADDS      V1, V1, V8            ; [DPU_3_PIPE] |1378| 
        ADC       V2, V4, V9            ; [DPU_3_PIPE] |1378| 
        MOV       V8, V2                ; [DPU_3_PIPE] |1378| 
        ADDS      V8, V8, A3            ; [DPU_3_PIPE] |1378| 
        LDR       A3, [A2], #-4         ; [DPU_3_PIPE] |1378| 
        ADC       V9, V6, V5            ; [DPU_3_PIPE] |1378| 
        LDR       V6, [LR], #4          ; [DPU_3_PIPE] |1378| 
        STR       A4, [SP, #596]        ; [DPU_3_PIPE] |1378| 
        MOV       A4, V7                ; [DPU_3_PIPE] |1378| 
        UMULL     V4, V5, V6, A3        ; [DPU_3_PIPE] |1378| 
        MOV       V6, V8                ; [DPU_3_PIPE] |1378| 
        ADDS      V1, V1, V4            ; [DPU_3_PIPE] |1378| 
        ADC       V2, A4, V5            ; [DPU_3_PIPE] |1378| 
        MOVS      A3, V2                ; [DPU_3_PIPE] |1378| 
        ADDS      A3, A3, V6            ; [DPU_3_PIPE] |1378| 
        MOV       V6, A3                ; [DPU_3_PIPE] |1378| 
        MOV       A3, V9                ; [DPU_3_PIPE] |1378| 
        LDR       V9, [SP, #580]        ; [DPU_3_PIPE] |1378| 
        MOV       V8, V7                ; [DPU_3_PIPE] |1378| 
        MOV       V2, V8                ; [DPU_3_PIPE] |1378| 
        ADC       A4, V8, V3            ; [DPU_3_PIPE] |1378| 
        ADDS      V1, V1, V4            ; [DPU_3_PIPE] |1378| 
        ADC       V2, V2, V5            ; [DPU_3_PIPE] |1378| 
        LDR       V5, [SP, #596]        ; [DPU_3_PIPE] |1378| 
        MOVS      V4, V2                ; [DPU_3_PIPE] |1378| 
        MOV       V2, V5                ; [DPU_3_PIPE] |1378| 
        ADDS      V4, V4, V6            ; [DPU_3_PIPE] |1378| 
        ADC       V5, V8, V7            ; [DPU_3_PIPE] |1378| 
        LDR       V8, [SP, #592]        ; [DPU_3_PIPE] |1378| 
        MOVS      A4, A4                ; [DPU_3_PIPE] |1378| 
        ADD       V2, V2, V9            ; [DPU_3_PIPE] |1378| 
        ADDS      A3, A3, V2            ; [DPU_3_PIPE] |1378| 
        MOV       V6, V5                ; [DPU_3_PIPE] |1378| 
        ADDS      A4, A4, A3            ; [DPU_3_PIPE] |1378| 
	.dwpsn	file "C:/wolfssl/ctaocrypt/src/tfm.c",line 1377,column 20,is_stmt,isa 1
        SUB       V2, V8, #1            ; [DPU_3_PIPE] |1377| 
	.dwpsn	file "C:/wolfssl/ctaocrypt/src/tfm.c",line 1378,column 11,is_stmt,isa 1
        MOV       A3, V6                ; [DPU_3_PIPE] |1378| 
	.dwpsn	file "C:/wolfssl/ctaocrypt/src/tfm.c",line 1377,column 20,is_stmt,isa 1
        STR       V2, [SP, #592]        ; [DPU_3_PIPE] |1377| 
	.dwpsn	file "C:/wolfssl/ctaocrypt/src/tfm.c",line 1378,column 11,is_stmt,isa 1
        ADDS      A3, A3, A4            ; [DPU_3_PIPE] |1378| 
        STR       A3, [SP, #580]        ; [DPU_3_PIPE] |1378| 
	.dwpsn	file "C:/wolfssl/ctaocrypt/src/tfm.c",line 1377,column 20,is_stmt,isa 1
        MOV       A3, V2                ; [DPU_3_PIPE] |1377| 
        CMP       A3, #0                ; [DPU_3_PIPE] |1377| 
        BNE       ||$C$L82||            ; [DPU_3_PIPE] |1377| 
        ; BRANCHCC OCCURS {||$C$L82||}   ; [] |1377| 
;* --------------------------------------------------------------------------*
||$C$L83||:    
;**	-----------------------g14:
;**  	-----------------------    if ( !(iy&1) ) goto g16;
        LDR       A3, [SP, #588]        ; [DPU_3_PIPE] 
        LSRS      A3, A3, #1            ; [DPU_3_PIPE] 
        BCC       ||$C$L84||            ; [DPU_3_PIPE] 
        ; BRANCHCC OCCURS {||$C$L84||}   ; [] 
;* --------------------------------------------------------------------------*
; Peeled loop iterations for unrolled loop:
;* 1378	-----------------------    C$3 = _umull(*tmpx, *tmpy);
;* 1378	-----------------------    tt = (unsigned long long)c0+C$3;
;* 1378	-----------------------    c0 = tt;
;* 1378	-----------------------    tt = (unsigned long long)c1+(tt>>32);
;* 1378	-----------------------    c2 += tt>>32;
;* 1378	-----------------------    tt = (unsigned long long)c0+C$3;
;* 1378	-----------------------    c0 = tt;
;* 1378	-----------------------    tt = (unsigned long long)(unsigned)tt+(tt>>32);
;* 1378	-----------------------    c1 = tt;
;* 1378	-----------------------    c2 += tt>>32;
	.dwpsn	file "C:/wolfssl/ctaocrypt/src/tfm.c",line 1378,column 11,is_stmt,isa 1
        LDR       A3, [A2, #0]          ; [DPU_3_PIPE] |1378| 
        LDR       A4, [LR, #0]          ; [DPU_3_PIPE] |1378| 
        MOV       V2, V7                ; [DPU_3_PIPE] |1378| 
        MOV       V5, V7                ; [DPU_3_PIPE] |1378| 
        MOV       V6, V7                ; [DPU_3_PIPE] |1378| 
        UMULL     V8, V9, A4, A3        ; [DPU_3_PIPE] |1378| 
        ADDS      V1, V1, V8            ; [DPU_3_PIPE] |1378| 
        ADC       V2, V2, V9            ; [DPU_3_PIPE] |1378| 
        MOVS      A3, V2                ; [DPU_3_PIPE] |1378| 
        ADDS      A3, A3, V4            ; [DPU_3_PIPE] |1378| 
        ADC       A4, V6, V5            ; [DPU_3_PIPE] |1378| 
        LDR       V5, [SP, #580]        ; [DPU_3_PIPE] |1378| 
        MOV       A2, V7                ; [DPU_3_PIPE] |1378| 
        MOV       LR, V7                ; [DPU_3_PIPE] |1378| 
        MOVS      A4, A4                ; [DPU_3_PIPE] |1378| 
        ADDS      V1, V1, V8            ; [DPU_3_PIPE] |1378| 
        ADD       A4, A4, V5            ; [DPU_3_PIPE] |1378| 
        MOV       V8, A3                ; [DPU_3_PIPE] |1378| 
        ADC       V2, A2, V9            ; [DPU_3_PIPE] |1378| 
        MOVS      V4, V2                ; [DPU_3_PIPE] |1378| 
        ADDS      V4, V4, V8            ; [DPU_3_PIPE] |1378| 
        ADC       V5, LR, V6            ; [DPU_3_PIPE] |1378| 
        MOV       A3, V5                ; [DPU_3_PIPE] |1378| 
        ADDS      A3, A3, A4            ; [DPU_3_PIPE] |1378| 
        STR       A3, [SP, #580]        ; [DPU_3_PIPE] |1378| 
;* --------------------------------------------------------------------------*
||$C$L84||:    
;**	-----------------------g16:
;* 1382	-----------------------    if ( ix&1 ) goto g18;
        LDR       A3, [SP, #576]        ; [DPU_3_PIPE] 
	.dwpsn	file "C:/wolfssl/ctaocrypt/src/tfm.c",line 1382,column 7,is_stmt,isa 1
        LSRS      A3, A3, #1            ; [DPU_3_PIPE] |1382| 
        BCS       ||$C$L85||            ; [DPU_3_PIPE] |1382| 
        ; BRANCHCC OCCURS {||$C$L85||}   ; [] |1382| 
;* --------------------------------------------------------------------------*
;* 1384	-----------------------    C$2 = *((ix*2>>2)*4+(unsigned *)A);
;* 1384	-----------------------    t = (unsigned long long)c0+(unsigned long long)C$2*(unsigned long long)C$2;
;* 1384	-----------------------    c0 = t;
;* 1384	-----------------------    t = (unsigned long long)c1+(t>>32);
;* 1384	-----------------------    c1 = t;
;* 1384	-----------------------    c2 += t>>32;
        LDR       A3, [SP, #576]        ; [DPU_3_PIPE] 
	.dwpsn	file "C:/wolfssl/ctaocrypt/src/tfm.c",line 1384,column 11,is_stmt,isa 1
        LDR       A4, [SP, #564]        ; [DPU_3_PIPE] |1384| 
        LDR       V8, [SP, #580]        ; [DPU_3_PIPE] |1384| 
        SBFX      A3, A3, #1, #30       ; [DPU_3_PIPE] |1384| 
        LDR       A3, [A4, +A3, LSL #2] ; [DPU_3_PIPE] |1384| 
        MOV       LR, V7                ; [DPU_3_PIPE] |1384| 
        MOV       V5, V7                ; [DPU_3_PIPE] |1384| 
        MOV       V9, V7                ; [DPU_3_PIPE] |1384| 
        UMLAL     V1, LR, A3, A3        ; [DPU_3_PIPE] |1384| 
        MOV       A3, LR                ; [DPU_3_PIPE] |1384| 
        ADDS      A3, A3, V4            ; [DPU_3_PIPE] |1384| 
        MOV       V4, A3                ; [DPU_3_PIPE] |1384| 
        ADC       A4, V9, V5            ; [DPU_3_PIPE] |1384| 
        MOVS      A4, A4                ; [DPU_3_PIPE] |1384| 
        ADD       A4, A4, V8            ; [DPU_3_PIPE] |1384| 
        STR       A4, [SP, #580]        ; [DPU_3_PIPE] |1384| 
;* --------------------------------------------------------------------------*
||$C$L85||:    
;**	-----------------------g18:
;* 1388	-----------------------    *U$93++ = c0;
;* 1349	-----------------------    U$32 += 4;
;* 1349	-----------------------    ++ix;
;* 1349	-----------------------    if ( --L$1 ) goto g8;
	.dwpsn	file "C:/wolfssl/ctaocrypt/src/tfm.c",line 1349,column 16,is_stmt,isa 1
        LDR       A3, [SP, #556]        ; [DPU_3_PIPE] |1349| 
        LDR       A4, [SP, #560]        ; [DPU_3_PIPE] 
	.dwpsn	file "C:/wolfssl/ctaocrypt/src/tfm.c",line 1388,column 7,is_stmt,isa 1
        LDR       LR, [SP, #552]        ; [DPU_3_PIPE] |1388| 
	.dwpsn	file "C:/wolfssl/ctaocrypt/src/tfm.c",line 1349,column 16,is_stmt,isa 1
        LDR       V9, [SP, #576]        ; [DPU_3_PIPE] |1349| 
	.dwpsn	file "C:/wolfssl/ctaocrypt/src/tfm.c",line 1388,column 7,is_stmt,isa 1
        STR       V1, [A3], #4          ; [DPU_3_PIPE] |1388| 
        STR       A3, [SP, #556]        ; [DPU_3_PIPE] |1388| 
	.dwpsn	file "C:/wolfssl/ctaocrypt/src/tfm.c",line 1349,column 16,is_stmt,isa 1
        SUBS      A4, A4, #1            ; [DPU_3_PIPE] |1349| 
        STR       A4, [SP, #560]        ; [DPU_3_PIPE] |1349| 
        ADD       A3, LR, #4            ; [DPU_3_PIPE] |1349| 
        STR       A3, [SP, #552]        ; [DPU_3_PIPE] |1349| 
        ADD       A3, V9, #1            ; [DPU_3_PIPE] |1349| 
        STR       A3, [SP, #576]        ; [DPU_3_PIPE] |1349| 
        BNE       ||$C$L81||            ; [DPU_3_PIPE] |1349| 
        ; BRANCHCC OCCURS {||$C$L81||}   ; [] |1349| 
;* --------------------------------------------------------------------------*
||$C$L86||:    
;**	-----------------------g19:
;* 1394	-----------------------    (*dst).used = pa;
;* 1395	-----------------------    if ( !pa ) goto g29;
        LDR       A1, [SP, #572]        ; [DPU_3_PIPE] 
        LDR       A2, [SP, #584]        ; [DPU_3_PIPE] 
	.dwpsn	file "C:/wolfssl/ctaocrypt/src/tfm.c",line 1394,column 3,is_stmt,isa 1
        STR       A1, [A2, #544]        ; [DPU_3_PIPE] |1394| 
        CBZ       A1, ||$C$L90||        ; [] 
	.dwpsn	file "C:/wolfssl/ctaocrypt/src/tfm.c",line 1395,column 3,is_stmt,isa 1
        ; BRANCHCC OCCURS {||$C$L90||}   ; [] |1395| 
;* --------------------------------------------------------------------------*
;**  	-----------------------    V$0 = pa;
;* 1395	-----------------------    d$4 = V$0>>1;
;* 1395	-----------------------    d$3 = V$0&1;
;* 1395	-----------------------    if ( V$0 < 2 ) goto g25;
        CMP       A1, #2                ; [DPU_3_PIPE] |1395| 
        ASR       A4, A1, #1            ; [DPU_3_PIPE] |1395| 
        AND       V1, A1, #1            ; [DPU_3_PIPE] |1395| 
        BLT       ||$C$L88||            ; [DPU_3_PIPE] |1395| 
        ; BRANCHCC OCCURS {||$C$L88||}   ; [] |1395| 
;* --------------------------------------------------------------------------*
;**  	-----------------------    U$111 = V$0*4+(unsigned *)dst;
;**  	-----------------------    #pragma MUST_ITERATE(1, 1073741823, 1)
;**  	-----------------------    // LOOP BELOW UNROLLED BY FACTOR(2)
;**  	-----------------------    #pragma LOOP_FLAGS(4358u)
        MOV       A3, A2                ; [DPU_3_PIPE] 
        ADD       A3, A3, A1, LSL #2    ; [DPU_3_PIPE] 
;* --------------------------------------------------------------------------*
;*   BEGIN LOOP ||$C$L87||
;*
;*   Loop source line                : 1395
;*   Loop closing brace source line  : 1395
;*   Loop Unroll Multiple            : 2x
;*   Known Minimum Trip Count        : 1
;*   Known Maximum Trip Count        : 1073741823
;*   Known Max Trip Count Factor     : 1
;* --------------------------------------------------------------------------*
||$C$L87||:    
;**	-----------------------g22:
;* 1395	-----------------------    if ( *(--U$111) ) goto g28;
        LDR       V2, [A3, #-4]!        ; [DPU_3_PIPE] |1395| 
        CBNZ      V2, ||$C$L89||        ; [] 
        ; BRANCHCC OCCURS {||$C$L89||}   ; [] |1395| 
;* --------------------------------------------------------------------------*
;* 1395	-----------------------    (*dst).used = --V$0;
;* 1395	-----------------------    if ( *(--U$111) ) goto g28;
        SUBS      A1, A1, #1            ; [DPU_3_PIPE] |1395| 
        STR       A1, [A2, #544]        ; [DPU_3_PIPE] |1395| 
        LDR       V2, [A3, #-4]!        ; [DPU_3_PIPE] |1395| 
        CBNZ      V2, ||$C$L89||        ; [] 
        ; BRANCHCC OCCURS {||$C$L89||}   ; [] |1395| 
;* --------------------------------------------------------------------------*
;* 1395	-----------------------    (*dst).used = --V$0;
;* 1395	-----------------------    if ( --d$4 ) goto g22;
        SUBS      A1, A1, #1            ; [DPU_3_PIPE] |1395| 
        SUBS      A4, A4, #1            ; [DPU_3_PIPE] |1395| 
        STR       A1, [A2, #544]        ; [DPU_3_PIPE] |1395| 
        BNE       ||$C$L87||            ; [DPU_3_PIPE] |1395| 
        ; BRANCHCC OCCURS {||$C$L87||}   ; [] |1395| 
;* --------------------------------------------------------------------------*
||$C$L88||:    
;**	-----------------------g25:
;**  	-----------------------    if ( d$3 <= 0 ) goto g29;
        CMP       V1, #0                ; [DPU_3_PIPE] 
        BLE       ||$C$L90||            ; [DPU_3_PIPE] 
        ; BRANCHCC OCCURS {||$C$L90||}   ; [] 
;* --------------------------------------------------------------------------*
; Peeled loop iterations for unrolled loop:
;* 1395	-----------------------    if ( *(V$0*4+(unsigned *)dst-4) ) goto g28;
;* 1395	-----------------------    (*dst).used = --V$0;
;**  	-----------------------    goto g29;
        MOV       A3, A2                ; [DPU_3_PIPE] 
        ADD       A3, A3, A1, LSL #2    ; [DPU_3_PIPE] |1395| 
        LDR       A3, [A3, #-4]         ; [DPU_3_PIPE] |1395| 
        CMP       A3, #0                ; [DPU_3_PIPE] |1395| 
        ITT       EQ                    ; [DPU_3_PIPE] 
        SUBEQ     A1, A1, #1            ; [DPU_3_PIPE] |1395| 
        STREQ     A1, [A2, #544]        ; [DPU_3_PIPE] |1395| 
        BEQ       ||$C$L90||            ; [DPU_3_PIPE] 
        ; BRANCHCC OCCURS {||$C$L90||}   ; [] 
;* --------------------------------------------------------------------------*
||$C$L89||:    
;**	-----------------------g28:
;* 1395	-----------------------    if ( (*dst).used ) goto g30;
        MOV       A1, A2                ; [DPU_3_PIPE] 
        LDR       A1, [A1, #544]        ; [DPU_3_PIPE] |1395| 
        CBNZ      A1, ||$C$L91||        ; [] 
        ; BRANCHCC OCCURS {||$C$L91||}   ; [] |1395| 
;* --------------------------------------------------------------------------*
||$C$L90||:    
;**	-----------------------g29:
;* 1395	-----------------------    (*dst).sign = 0;
        MOVS      A3, #0                ; [DPU_3_PIPE] |1395| 
        MOV       A1, A2                ; [DPU_3_PIPE] |1395| 
        STR       A3, [A1, #548]        ; [DPU_3_PIPE] |1395| 
;* --------------------------------------------------------------------------*
||$C$L91||:    
;**	-----------------------g30:
;* 1396	-----------------------    if ( dst == B ) goto g32;
        LDR       A3, [SP, #568]        ; [DPU_3_PIPE] 
        MOV       A1, A2                ; [DPU_3_PIPE] 
	.dwpsn	file "C:/wolfssl/ctaocrypt/src/tfm.c",line 1396,column 3,is_stmt,isa 1
        CMP       A3, A1                ; [DPU_3_PIPE] |1396| 
        BEQ       ||$C$L92||            ; [DPU_3_PIPE] |1396| 
        ; BRANCHCC OCCURS {||$C$L92||}   ; [] |1396| 
;* --------------------------------------------------------------------------*
;* 1397	-----------------------    *(void *)B = *(const void *)dst;
;**	-----------------------g32:
;**  	-----------------------    return;
        MOV       A1, A3                ; [DPU_3_PIPE] 
	.dwpsn	file "C:/wolfssl/ctaocrypt/src/tfm.c",line 1397,column 6,is_stmt,isa 1
        MOV       A3, #552              ; [DPU_3_PIPE] |1397| 
$C$DW$311	.dwtag  DW_TAG_TI_branch
	.dwattr $C$DW$311, DW_AT_low_pc(0x00)
	.dwattr $C$DW$311, DW_AT_name("memcpy")
	.dwattr $C$DW$311, DW_AT_TI_call
        BL        memcpy                ; [DPU_3_PIPE] |1397| 
        ; CALL OCCURS {memcpy }          ; [] |1397| 
;* --------------------------------------------------------------------------*
||$C$L92||:    
        ADD       SP, SP, #508          ; [DPU_3_PIPE] 
	.dwcfi	cfa_offset, 148
        ADD       SP, SP, #112          ; [DPU_3_PIPE] 
	.dwcfi	cfa_offset, 36
$C$DW$312	.dwtag  DW_TAG_TI_branch
	.dwattr $C$DW$312, DW_AT_low_pc(0x00)
	.dwattr $C$DW$312, DW_AT_TI_return
        POP       {V1, V2, V3, V4, V5, V6, V7, V8, PC} ; [DPU_3_PIPE] 
	.dwcfi	cfa_offset, 0
        ; BRANCH OCCURS                  ; [] 
	.dwattr $C$DW$270, DW_AT_TI_end_file("C:/wolfssl/ctaocrypt/src/tfm.c")
	.dwattr $C$DW$270, DW_AT_TI_end_line(0x577)
	.dwattr $C$DW$270, DW_AT_TI_end_column(0x01)
	.dwendentry
	.dwendtag $C$DW$270

	.sect	".text:fp_sqr"
	.clink
	.thumbfunc fp_sqr
	.thumb
	.global	fp_sqr

$C$DW$313	.dwtag  DW_TAG_subprogram, DW_AT_name("fp_sqr")
	.dwattr $C$DW$313, DW_AT_low_pc(fp_sqr)
	.dwattr $C$DW$313, DW_AT_high_pc(0x00)
	.dwattr $C$DW$313, DW_AT_TI_symbol_name("fp_sqr")
	.dwattr $C$DW$313, DW_AT_external
	.dwattr $C$DW$313, DW_AT_TI_begin_file("C:/wolfssl/ctaocrypt/src/tfm.c")
	.dwattr $C$DW$313, DW_AT_TI_begin_line(0x4c2)
	.dwattr $C$DW$313, DW_AT_TI_begin_column(0x06)
	.dwattr $C$DW$313, DW_AT_decl_file("C:/wolfssl/ctaocrypt/src/tfm.c")
	.dwattr $C$DW$313, DW_AT_decl_line(0x4c2)
	.dwattr $C$DW$313, DW_AT_decl_column(0x06)
	.dwattr $C$DW$313, DW_AT_TI_max_frame_size(0x00)
	.dwpsn	file "C:/wolfssl/ctaocrypt/src/tfm.c",line 1219,column 1,is_stmt,address fp_sqr,isa 1

	.dwfde $C$DW$CIE, fp_sqr
$C$DW$314	.dwtag  DW_TAG_formal_parameter, DW_AT_name("A")
	.dwattr $C$DW$314, DW_AT_TI_symbol_name("A")
	.dwattr $C$DW$314, DW_AT_type(*$C$DW$T$492)
	.dwattr $C$DW$314, DW_AT_location[DW_OP_reg0]
$C$DW$315	.dwtag  DW_TAG_formal_parameter, DW_AT_name("B")
	.dwattr $C$DW$315, DW_AT_TI_symbol_name("B")
	.dwattr $C$DW$315, DW_AT_type(*$C$DW$T$492)
	.dwattr $C$DW$315, DW_AT_location[DW_OP_reg1]

;*****************************************************************************
;* FUNCTION NAME: fp_sqr                                                     *
;*                                                                           *
;*   Regs Modified     : A1,A2,A3,A4,V9,LR,SR,D0,D0_hi,D1,D1_hi,D2,D2_hi,D3, *
;*                           D3_hi,D4,D4_hi,D5,D5_hi,D6,D6_hi,D7,D7_hi,FPEXC,*
;*                           FPSCR                                           *
;*   Regs Used         : A1,A2,A3,A4,V9,SP,LR,SR,D0,D0_hi,D1,D1_hi,D2,D2_hi, *
;*                           D3,D3_hi,D4,D4_hi,D5,D5_hi,D6,D6_hi,D7,D7_hi,   *
;*                           FPEXC,FPSCR                                     *
;*   Local Frame Size  : 0 Args + 0 Auto + 0 Save = 0 byte                   *
