******************************************************************************
                  TI ARM Linker PC v5.1.6                      
******************************************************************************
>> Linked Tue Jul 01 09:55:04 2014

OUTPUT FILE NAME:   <tcpEcho_TivaTM4C1294NCPDT.out>
ENTRY POINT SYMBOL: "_c_int00"  address: 0001a385


MEMORY CONFIGURATION

         name            origin    length      used     unused   attr    fill
----------------------  --------  ---------  --------  --------  ----  --------
  FLASH                 00000000   00100000  00026b1c  000d94e4  R  X
  SRAM                  20000000   00040000  00024370  0001bc90  RW X


SEGMENT ALLOCATION MAP

run origin  load origin   length   init length attrs members
----------  ----------- ---------- ----------- ----- -------
00000000    00000000    00026b20   00026b20    r-x
  00000000    00000000    0000003c   0000003c    r-- .resetVecs
  0000003c    0000003c    0002008c   0002008c    r-x .text
  000200c8    000200c8    00006424   00006424    r-- .const
  000264f0    000264f0    00000630   00000630    r-- .cinit
20000000    20000000    00000360   00000000    rw-
  20000000    20000000    00000360   00000000    rw- .vecs
20000380    20000380    00024010   00000000    rw-
  20000380    20000380    00023308   00000000    rw- .bss
  20023688    20023688    00000908   00000000    rw- .data
  20023f90    20023f90    00000400   00000000    rw- .stack


SECTION ALLOCATION MAP

 output                                  attributes/
section   page    origin      length       input sections
--------  ----  ----------  ----------   ----------------
.bootVecs 
*          0    00000000    00000008     DSECT
                  00000000    00000008     boot.aem4f : boot.oem4f (.bootVecs)

.resetVecs 
*          0    00000000    0000003c     
                  00000000    0000003c     tcpEcho_pem4f.oem4f (.resetVecs)

xdc.meta   0    00000000    000000f3     COPY SECTION
                  00000000    000000f3     tcpEcho_pem4f.oem4f (xdc.meta)

.init_array 
*          0    00000000    00000000     UNINITIALIZED

.text      0    0000003c    0002008c     
                  0000003c    00001388     ti.net.cyassl.aem4f : sha.oem4f (.text:Transform)
                  000013c4    00000bd4     stk.aem4f : tcpin.oem4f (.text:TcpInput)
                  00001f98    000008a8               : tcpout.oem4f (.text:TcpOutput)
                  00002840    0000086c     ti.net.cyassl.aem4f : md5.oem4f (.text:Transform)
                  000030ac    0000051e                         : sha256.oem4f (.text:Transform)
                  000035ca    00000002     hal_userled_stub.aem4f : llled.oem4f (.text:LED_TOGGLE)
                  000035cc    0000050c     ti.net.cyassl.aem4f : ssl.oem4f (.text:ProcessBuffer)
                  00003ad8    00000424     sysbios.aem4f : BIOS.obj (.text:ti_sysbios_family_arm_m3_Hwi_excDumpRegs__I)
                  00003efc    00000420     ti.net.cyassl.aem4f : ssl.oem4f (.text:PemToDer)
                  0000431c    00000400                         : aes.oem4f (.text:AesSetKeyLocal)
                  0000471c    000003fc     stk.aem4f : ipout.oem4f (.text:IPTxPacket)
                  00004b18    000003d4     tcpEcho.obj (.text:tcpHandler)
                  00004eec    000003d0     ti.net.cyassl.aem4f : aes.oem4f (.text:AesDecrypt)
                  000052bc    000003d0                         : aes.oem4f (.text:AesEncrypt)
                  0000568c    000003ca                         : asn.oem4f (.text:GetName)
                  00005a56    00000002     stk.aem4f : nat.oem4f (.text:NatMsg)
                  00005a58    000003bc     ti.net.cyassl.aem4f : internal.oem4f (.text:InitSSL)
                  00005e14    00000390     stk.aem4f : ipin.oem4f (.text:IPRxPacket)
                  000061a4    00000384     ti.net.cyassl.aem4f : tfm.oem4f (.text:fp_div)
                  00006528    0000033c     ti.targets.arm.rtsarm.aem4f : System.oem4f (.text:xdc_runtime_System_doPrint__I)
                  00006864    00000318     ti.net.cyassl.aem4f : internal.oem4f (.text:DoCertificate)
                  00006b7c    00000300     sysbios.aem4f : BIOS.obj (.text:ti_sysbios_knl_Semaphore_pend__E)
                  00006e7c    000002f4     ti.net.cyassl.aem4f : internal.oem4f (.text:ProcessReply)
                  00007170    000002e8                         : tfm.oem4f (.text:fp_invmod_slow)
                  00007458    000002d4     rtsv7M4_T_le_v4SPD16_eabi.lib : trgdrv.obj (.text)
                  0000772c    000002d4     sysbios.aem4f : BIOS.obj (.text:ti_sysbios_knl_Task_Instance_finalize__E)
                  00007a00    000002bc     ti.net.cyassl.aem4f : internal.oem4f (.text:DoClientHello)
                  00007cbc    000002bc                         : internal.oem4f (.text:DoClientKeyExchange)
                  00007f78    0000026f     stk.aem4f : sock.oem4f (.text:SockSet)
                  000081e7    00000001     --HOLE-- [fill = 0]
                  000081e8    00000248               : ipfrag.oem4f (.text:IPReasm)
                  00008430    00000248     sysbios.aem4f : BIOS.obj (.text:ti_sysbios_family_arm_lm4_Timer_start__E)
                  00008678    00000248                   : BIOS.obj (.text:ti_sysbios_heaps_HeapMem_free__E)
                  000088c0    00000234     stk.aem4f : icmpin.oem4f (.text:ICMPInput)
                  00008af4    00000234     sysbios.aem4f : BIOS.obj (.text:ti_sysbios_heaps_HeapMem_alloc__E)
                  00008d28    00000226     ti.net.cyassl.aem4f : internal.oem4f (.text:SendClientKeyExchange)
                  00008f4e    00000002                         : io.oem4f (.text:TranslateReturnCode)
                  00008f50    00000224                         : internal.oem4f (.text:ProcessOldClientHello)
                  00009174    00000224                         : tfm.oem4f (.text:fp_invmod)
                  00009398    0000021c     stk.aem4f : udp.oem4f (.text:UdpInput)
                  000095b4    0000020c     sysbios.aem4f : BIOS.obj (.text:ti_sysbios_family_arm_m3_Hwi_excHandlerMax__I)
                  000097c0    00000204     Boot.aem4f : Boot_sysctl.oem4f (.text:ti_catalog_arm_cortexm4_tiva_ce_Boot_sysCtlClockFreqSetI__I)
                  000099c4    00000202     ti.net.cyassl.aem4f : asn.oem4f (.text:DecodeCertExtensions)
                  00009bc6    00000200     stk.aem4f : sock.oem4f (.text:SockRecv)
                  00009dc6    00000002     os.aem4f : task.oem4f (.text:_TaskInit)
                  00009dc8    000001fc     sysbios.aem4f : BIOS.obj (.text:ti_sysbios_knl_Task_sleep__E)
                  00009fc4    000001f8     ti.net.cyassl.aem4f : keys.oem4f (.text:SetCipherSpecs)
                  0000a1bc    000001f4     rtsv7M4_T_le_v4SPD16_eabi.lib : ull_div_t2.obj (.text)
                  0000a3b0    000001e4     sysbios.aem4f : BIOS.obj (.text:ti_sysbios_knl_Task_Instance_init__E)
                  0000a594    000001b8     emac_tivaware.aem4f : EMACSnow.oem4f (.text:EMACSnow_NIMUInit)
                  0000a74c    000001b4     stk.aem4f : lliout.oem4f (.text:LLITxIpPacket)
                  0000a900    000001ac               : lliin.oem4f (.text:LLIRxPacket)
                  0000aaac    000001a4     ti.net.cyassl.aem4f : keys.oem4f (.text:SetKeys)
                  0000ac50    00000198     os.aem4f : mem.oem4f (.text:mmAlloc)
                  0000ade8    00000194     stk.aem4f : sock.oem4f (.text:SockNew)
                  0000af7c    00000194     sysbios.aem4f : BIOS.obj (.text:ti_sysbios_knl_Task_setPri__E)
                  0000b110    00000190     stk.aem4f : igmp.oem4f (.text:IGMPInput)
                  0000b2a0    0000018c     ti.net.cyassl.aem4f : rsa.oem4f (.text:RsaFunction)
                  0000b42c    00000180                         : internal.oem4f (.text:InitSuites)
                  0000b5ac    0000017a                         : internal.oem4f (.text:SendClientHello)
                  0000b726    00000176                         : internal.oem4f (.text:DoHandShakeMsgType)
                  0000b89c    00000174                         : internal.oem4f (.text:DoServerHello)
                  0000ba10    00000174                         : tfm.oem4f (.text:fp_sqr_comba)
                  0000bb84    00000170     stk.aem4f : rtc.oem4f (.text:RTCReport)
                  0000bcf4    0000016e     ti.net.cyassl.aem4f : ssl.oem4f (.text:CyaSSL_accept)
                  0000be62    0000016c                         : internal.oem4f (.text:CipherRequires)
                  0000bfce    00000002     os.aem4f : task.oem4f (.text:_TaskShutdown)
                  0000bfd0    00000168     ti.net.cyassl.aem4f : internal.oem4f (.text:SendCertificateVerify)
                  0000c138    00000168     sysbios.aem4f : BIOS.obj (.text:ti_sysbios_family_arm_m3_Hwi_excBusFault__I)
                  0000c2a0    00000166     stk.aem4f : sb.oem4f (.text:SBRead)
                  0000c406    00000002     hal_ser_stub.aem4f : llserstb.oem4f (.text:_llSerialServiceCheck)
                  0000c408    00000164     stk.aem4f : sock.oem4f (.text:SockConnect)
                  0000c56c    00000160     ti.net.cyassl.aem4f : asn.oem4f (.text:ParseCertRelative)
                  0000c6cc    0000015c                         : ssl.oem4f (.text:AddSession)
                  0000c828    00000154                         : des3.oem4f (.text:DesRawProcessBlock)
                  0000c97c    0000014c                         : asn.oem4f (.text:ConfirmNameConstraints)
                  0000cac8    0000014c                         : asn.oem4f (.text:gmtime)
                  0000cc14    00000148                         : internal.oem4f (.text:SSL_hmac)
                  0000cd5c    00000148     sysbios.aem4f : BIOS.obj (.text:ti_sysbios_family_arm_m3_Hwi_dispatchC__I)
                  0000cea4    00000148                   : BIOS.obj (.text:ti_sysbios_family_arm_m3_Hwi_excUsageFault__I)
                  0000cfec    00000144     stk.aem4f : bind.oem4f (.text:BindNew)
                  0000d130    00000144     netctrl_min_ipv4.aem4f : netctrl.oem4f (.text:NC_NetStart)
                  0000d274    00000144     sysbios.aem4f : BIOS.obj (.text:ti_sysbios_knl_Semaphore_post__E)
                  0000d3b8    00000140     ti.net.cyassl.aem4f : asn.oem4f (.text:ConfirmSignature)
                  0000d4f8    00000140     stk.aem4f : tcp.oem4f (.text:TcpTimeoutCheck)
                  0000d638    00000140     sysbios.aem4f : BIOS.obj (.text:ti_sysbios_knl_Clock_workFunc__E)
                  0000d778    0000013e     stk.aem4f : sock.oem4f (.text:SockSend)
                  0000d8b6    00000002     hal_ser_stub.aem4f : llserstb.oem4f (.text:_llSerialShutdown)
                  0000d8b8    0000013c     nettool_ipv4.aem4f : config.oem4f (.text:CfgAddEntry)
                  0000d9f4    0000013c     ti.net.cyassl.aem4f : asn.oem4f (.text:SetAlgoID)
                  0000db30    00000138                         : ssl.oem4f (.text:AddCA)
                  0000dc68    00000138     sysbios.aem4f : BIOS.obj (.text:ti_sysbios_heaps_HeapMem_Instance_init__E)
                  0000dda0    00000138                   : BIOS.obj (.text:ti_sysbios_knl_Task_exit__E)
                  0000ded8    00000134                   : BIOS.obj (.text:ti_sysbios_family_arm_m3_Hwi_excMemFault__I)
                  0000e00c    00000130     ti.net.cyassl.aem4f : des3.oem4f (.text:DesSetKey)
                  0000e13c    00000130     driverlib.lib : gpio.obj (.text:GPIOPadConfigSet)
                  0000e26c    0000012e     ti.net.cyassl.aem4f : internal.oem4f (.text:BuildMessage)
                  0000e39a    0000012e                         : ssl.oem4f (.text:CyaSSL_connect)
                  0000e4c8    0000012e                         : asn.oem4f (.text:DecodeAltNames)
                  0000e5f6    00000002     hal_userled_stub.aem4f : llled.oem4f (.text:_llUserLedInit)
                  0000e5f8    0000012c     EK_TM4C1294XL.obj (.text:EK_TM4C1294XL_initEMAC)
                  0000e724    0000012c     stk.aem4f : icmp.oem4f (.text:ICMPGenPacket)
                  0000e850    0000012c     tcpEcho.obj (.text:main)
                  0000e97c    00000128     sysbios.aem4f : BIOS.obj (.text:ti_sysbios_knl_Swi_run__I)
                  0000eaa4    00000124     ti.net.cyassl.aem4f : coding.oem4f (.text:Base64_Decode)
                  0000ebc8    00000124     stk.aem4f : udp.oem4f (.text:UdpOutput)
                  0000ecec    00000124     tcpEcho_pem4f.oem4f (.text:ti_ndk_config_Global_stackThread)
                  0000ee10    00000124     sysbios.aem4f : BIOS.obj (.text:ti_sysbios_knl_Clock_Instance_init__E)
                  0000ef34    00000120     nettool_ipv4.aem4f : dhcpmain.oem4f (.text:DHCPOpen)
                  0000f054    00000120     stk.aem4f : sockpcb.oem4f (.text:SockPcbResolve)
                  0000f174    00000120     ti.net.cyassl.aem4f : tfm.oem4f (.text:fp_mul_comba)
                  0000f294    00000120     tcpEcho.obj (.text:tcpWorker)
                  0000f3b4    00000120     ti.targets.arm.rtsarm.aem4f : Error.oem4f (.text:xdc_runtime_Error_policyDefault__E)
                  0000f4d4    0000011c     stk.aem4f : tcpout.oem4f (.text:TcpGenPacket)
                  0000f5f0    0000011c     ti.net.cyassl.aem4f : tfm.oem4f (.text:fp_montgomery_reduce)
                  0000f70c    0000011a                         : internal.oem4f (.text:VerifyMac)
                  0000f826    00000002     hal_userled_stub.aem4f : llled.oem4f (.text:_llUserLedShutdown)
                  0000f828    00000118     stk.aem4f : sockint.oem4f (.text:SockNotify)
                  0000f940    00000116     ti.net.cyassl.aem4f : internal.oem4f (.text:DoCertificateVerify)
                  0000fa56    00000002     hal_ser_stub.aem4f : llserstb.oem4f (.text:llSerialService)
                  0000fa58    00000114     ti.net.cyassl.aem4f : tfm.oem4f (.text:_fp_exptmod)
                  0000fb6c    00000114     sysbios.aem4f : BIOS.obj (.text:ti_sysbios_knl_Task_schedule__I)
                  0000fc80    00000110     stk.aem4f : node.oem4f (.text:NodeTreeFree)
                  0000fd90    0000010e               : nimu.oem4f (.text:NIMUIoctl)
                  0000fe9e    00000002     tcpEcho_pem4f.oem4f (.text:ti_ndk_config_Global_NetworkClose)
                  0000fea0    0000010c     stk.aem4f : igmp.oem4f (.text:IGMPSendReply)
                  0000ffac    0000010c     ti.net.cyassl.aem4f : keys.oem4f (.text:MakeSslMasterSecret)
                  000100b8    0000010c     stk.aem4f : route.oem4f (.text:RtCreate)
                  000101c4    0000010c               : rtable.oem4f (.text:RtFind)
                  000102d0    0000010a     ti.net.cyassl.aem4f : tls.oem4f (.text:p_hash)
                  000103da    00000002     tcpEcho_pem4f.oem4f (.text:ti_ndk_config_Global_NetworkOpen)
                  000103dc    00000104     stk.aem4f : raw.oem4f (.text:RawInput)
                  000104e0    00000104     ti.targets.arm.rtsarm.aem4f : Core-mem.oem4f (.text:xdc_runtime_Core_createObject__I)
                  000105e4    00000104     tcpEcho_pem4f.oem4f (.text:xdc_runtime_System_printfExtend__I)
                  000106e8    00000102     ti.net.cyassl.aem4f : internal.oem4f (.text:DoCertificateRequest)
                  000107ea    00000002     tcpEcho_pem4f.oem4f (.text:ti_ndk_config_global_taskCreateHook)
                  000107ec    000000fc     netctrl_min_ipv4.aem4f : netctrl.oem4f (.text:NetScheduler)
                  000108e8    000000fc     sysbios.aem4f : BIOS.obj (.text:ti_sysbios_knl_Task_postInit__I)
                  000109e4    000000fc                   : BIOS.obj (.text:ti_sysbios_knl_Task_startCore__E)
                  00010ae0    000000fc     ti.targets.arm.rtsarm.aem4f : Startup.oem4f (.text:xdc_runtime_Startup_startMods__I)
                  00010bdc    000000f8     emac_tivaware.aem4f : EMACSnow.oem4f (.text:EMACSnow_emacStart)
                  00010cd4    000000f8     stk.aem4f : pipe.oem4f (.text:PipeRecv)
                  00010dcc    000000f8     ti.net.cyassl.aem4f : internal.oem4f (.text:TimingPadVerify)
                  00010ec4    000000f4     stk.aem4f : lliout.oem4f (.text:LLIGenArpPacket)
                  00010fb8    000000f4     os.aem4f : task.oem4f (.text:llEnter)
                  000110ac    000000f4     sysbios.aem4f : m3_Hwi_asm.obj (.text:ti_sysbios_family_arm_m3_Hwi_dispatch__I)
                  000111a0    000000ee     stk.aem4f : sock.oem4f (.text:SockClose)
                  0001128e    000000ec     ti.net.cyassl.aem4f : asn.oem4f (.text:DecodeCrlDist)
                  0001137a    000000ec                         : internal.oem4f (.text:SendData)
                  00011466    000000e0     nettool_ipv4.aem4f : dhcpsock.oem4f (.text:dhcpSocketOpen)
                  00011546    00000002     tcpEcho_pem4f.oem4f (.text:ti_ndk_config_global_taskExitHook)
                  00011548    000000dc     ti.net.cyassl.aem4f : ssl.oem4f (.text:GetSession)
                  00011624    000000dc     sysbios.aem4f : BIOS.obj (.text:ti_sysbios_knl_Swi_Instance_init__E)
                  00011700    000000d8     ti.net.cyassl.aem4f : internal.oem4f (.text:InitSSL_Ctx)
                  000117d8    000000d8     stk.aem4f : node.oem4f (.text:NodeAdd)
                  000118b0    000000d8               : sb.oem4f (.text:SBWrite)
                  00011988    000000d8               : sockpcb.oem4f (.text:SockPcbBind)
                  00011a60    000000d8     nettool_ipv4.aem4f : dhcppkt.oem4f (.text:dhcpPacketProcess)
                  00011b38    000000d8                        : dhcpsm.oem4f (.text:dhcpState)
                  00011c10    000000d6     ti.net.cyassl.aem4f : keys.oem4f (.text:DeriveKeys)
                  00011ce6    000000d6                         : internal.oem4f (.text:SendServerHello)
                  00011dbc    000000d5     stk.aem4f : nimu.oem4f (.text:NIMUReceivePacket)
                  00011e91    00000001     --HOLE-- [fill = 0]
                  00011e92    00000002     tcpEcho_pem4f.oem4f (.text:ti_sysbios_BIOS_nullFunc__I)
                  00011e94    000000d4     emac_tivaware.aem4f : EMACSnow.oem4f (.text:EMACSnow_handleRx)
                  00011f68    000000d4     ti.net.cyassl.aem4f : internal.oem4f (.text:SendFinished)
                  0001203c    000000d4     stk.aem4f : tcpprot.oem4f (.text:TcpPrSetOption)
                  00012110    000000d4               : tcptime.oem4f (.text:TcpTimeoutRexmt)
                  000121e4    000000d4     ti.net.cyassl.aem4f : tls.oem4f (.text:doPRF)
                  000122b8    000000d4     sysbios.aem4f : BIOS.obj (.text:ti_sysbios_family_arm_lm4_TimestampProvider_get32__E)
                  0001238c    000000d4                   : BIOS.obj (.text:ti_sysbios_family_arm_m3_Hwi_postInit__I)
                  00012460    000000d2     ti.net.cyassl.aem4f : asn.oem4f (.text:ValidateDate)
                  00012532    000000ce                         : internal.oem4f (.text:SendCertificate)
                  00012600    000000cc     stk.aem4f : rawethsock.oem4f (.text:RawEthSockNew)
                  000126cc    000000cc     nettool_ipv4.aem4f : dhcpbild.oem4f (.text:dhcpBuildHeader)
                  00012798    000000cc                        : dhcpsm.oem4f (.text:dhcpIPAdd)
                  00012864    000000cc     ti.targets.arm.rtsarm.aem4f : Core-smem.oem4f (.text:xdc_runtime_Core_constructObject__I)
                  00012930    000000ca     nettool_ipv4.aem4f : dhcppkt.oem4f (.text:dhcpVerifyMessage)
                  000129fa    000000c8     ti.net.cyassl.aem4f : asn.oem4f (.text:RsaPrivateKeyDecode)
                  00012ac2    00000002     sysbios.aem4f : BIOS.obj (.text:ti_sysbios_gates_GateHwi_Instance_init__E)
                  00012ac4    000000c4     emac_tivaware.aem4f : EMACSnow.oem4f (.text:EMACSnow_InitDMADescriptors)
                  00012b88    000000c4     ti.net.cyassl.aem4f : asn.oem4f (.text:GetDate)
                  00012c4c    000000c4     stk.aem4f : icmp.oem4f (.text:ICMPSendRtAdv)
                  00012d10    000000c4               : igmp.oem4f (.text:IGMPJoinHostGroup)
                  00012dd4    000000c4     netctrl_min_ipv4.aem4f : netsrv.oem4f (.text:SPIpNet)
                  00012e98    000000c4     ti.net.cyassl.aem4f : tfm.oem4f (.text:s_fp_sub)
                  00012f5c    000000c4     sysbios.aem4f : BIOS.obj (.text:ti_sysbios_knl_Task_unblockI__E)
                  00013020    000000c0     nettool_ipv4.aem4f : dhcpsm.oem4f (.text:StateBound)
                  000130e0    000000bc     ti.net.cyassl.aem4f : hmac.oem4f (.text:HmacFinal)
                  0001319c    000000bc     stk.aem4f : sockpcb.oem4f (.text:SockPcbFind)
                  00013258    000000bc     os.aem4f : task.oem4f (.text:TaskGetEnv)
                  00013314    000000ba     ti.net.cyassl.aem4f : internal.oem4f (.text:DoHelloRequest)
                  000133ce    000000ba     stk.aem4f : icmpin.oem4f (.text:ICMPRevSrcRoute)
                  00013488    000000b8     EK_TM4C1294XL.obj (.text:EK_TM4C1294XL_initGeneral)
                  00013540    000000b8     ti.net.cyassl.aem4f : internal.oem4f (.text:SendCertificateRequest)
                  000135f8    000000b8     os.aem4f : task.oem4f (.text:TaskSetEnv)
                  000136b0    000000b8     ti.net.cyassl.aem4f : tfm.oem4f (.text:s_fp_add)
                  00013768    000000b6                         : asn.oem4f (.text:InitDecodedCert)
                  0001381e    000000b6                         : internal.oem4f (.text:VerifyServerSuite)
                  000138d4    000000b4                         : hmac.oem4f (.text:HmacSetKey)
                  00013988    000000b4                         : asn.oem4f (.text:MatchBaseName)
                  00013a3c    000000b4     sysbios.aem4f : BIOS.obj (.text:ti_sysbios_family_arm_lm4_Timer_enableTiva__I)
                  00013af0    000000b4                   : BIOS.obj (.text:ti_sysbios_gates_GateMutex_enter__E)
                  00013ba4    000000b4                   : BIOS.obj (.text:ti_sysbios_knl_Swi_post__E)
                  00013c58    000000b4                   : BIOS.obj (.text:ti_sysbios_knl_Task_checkStacks__E)
                  00013d0c    000000b2     ti.net.cyassl.aem4f : internal.oem4f (.text:SSL_ResourceFree)
                  00013dbe    000000b0                         : asn.oem4f (.text:GetCertHeader)
                  00013e6e    000000b0     stk.aem4f : rawethsock.oem4f (.text:RawEthSockSet)
                  00013f1e    000000b0     ti.net.cyassl.aem4f : sha256.oem4f (.text:Sha256Final)
                  00013fce    00000002     tcpEcho_pem4f.oem4f (.text:xdc_runtime_Startup_reset__I)
                  00013fd0    000000b0     stk.aem4f : sockint.oem4f (.text:SockCreatePacket)
                  00014080    000000b0               : lli.oem4f (.text:_LLITimeoutCheck)
                  00014130    000000b0     sysbios.aem4f : BIOS.obj (.text:ti_sysbios_family_arm_lm4_Timer_Module_startup__E)
                  000141e0    000000b0                   : BIOS.obj (.text:ti_sysbios_family_arm_lm4_Timer_enableTimers__I)
                  00014290    000000b0                   : BIOS.obj (.text:ti_sysbios_family_arm_m3_Hwi_excHardFault__I)
                  00014340    000000ae     ti.net.cyassl.aem4f : tfm.oem4f (.text:fp_div_2d)
                  000143ee    00000002     --HOLE-- [fill = 0]
                  000143f0    000000ac     stk.aem4f : rtable.oem4f (.text:RtTimeoutCheck)
                  0001449c    000000aa     ti.net.cyassl.aem4f : internal.oem4f (.text:SendAlert)
                  00014546    000000aa                         : sha.oem4f (.text:ShaFinal)
                  000145f0    000000a8                         : internal.oem4f (.text:GetInputData)
                  00014698    000000a8     stk.aem4f : tcptime.oem4f (.text:TcpTimeoutKeep)
                  00014740    000000a8     sysbios.aem4f : BIOS.obj (.text:ti_sysbios_knl_Task_blockI__E)
                  000147e8    000000a6     ti.net.cyassl.aem4f : internal.oem4f (.text:BuildCertHashes)
                  0001488e    000000a6                         : internal.oem4f (.text:ReceiveData)
                  00014934    000000a6                         : internal.oem4f (.text:SendServerKeyExchange)
                  000149da    00000002     --HOLE-- [fill = 0]
                  000149dc    000000a4     stk.aem4f : vlan.oem4f (.text:VLANDeinit)
                  00014a80    000000a4     sysbios.aem4f : BIOS.obj (.text:ti_sysbios_family_arm_m3_Hwi_excDebugMon__I)
                  00014b24    000000a2     ti.net.cyassl.aem4f : asn.oem4f (.text:GetAlgoId)
                  00014bc6    00000002     --HOLE-- [fill = 0]
                  00014bc8    000000a0     auto_init.aem4f : auto_init.oem4f (.text)
                  00014c68    000000a0     sysbios.aem4f : BIOS.obj (.text:ti_sysbios_family_arm_m3_Hwi_Instance_init__E)
                  00014d08    0000009e     ti.net.cyassl.aem4f : internal.oem4f (.text:MatchSuite)
                  00014da6    00000002     --HOLE-- [fill = 0]
                  00014da8    0000009c     stk.aem4f : exec.oem4f (.text:ExecOpen)
                  00014e44    0000009c     ti.net.cyassl.aem4f : internal.oem4f (.text:MatchDomainName)
                  00014ee0    0000009c     netctrl_min_ipv4.aem4f : netsrv.oem4f (.text:ServiceScan)
                  00014f7c    0000009c     rtsv7M4_T_le_v4SPD16_eabi.lib : memcpy_t2.obj (.text)
                  00015018    0000009c     sysbios.aem4f : BIOS.obj (.text:ti_sysbios_family_arm_lm4_Timer_setNextTick__E)
                  000150b4    0000009c                   : BIOS.obj (.text:ti_sysbios_knl_Semaphore_Instance_init__E)
                  00015150    0000009a     ti.net.cyassl.aem4f : keys.oem4f (.text:StoreKeys)
                  000151ea    0000009a                         : asn.oem4f (.text:ToTraditional)
                  00015284    0000009a     ti.targets.arm.rtsarm.aem4f : Text.oem4f (.text:xdc_runtime_Text_putSite__E)
                  0001531e    00000002     --HOLE-- [fill = 0]
                  00015320    00000099     stk.aem4f : nimu.oem4f (.text:NIMUAddEthernetHeader)
                  000153b9    00000001     --HOLE-- [fill = 0]
                  000153ba    00000098     ti.net.cyassl.aem4f : asn.oem4f (.text:DecodeAuthInfo)
                  00015452    00000002     --HOLE-- [fill = 0]
                  00015454    00000098     stk.aem4f : ip.oem4f (.text:IPGetRoute)
                  000154ec    00000098     netctrl_min_ipv4.aem4f : netctrl.oem4f (.text:NC_SystemOpen)
                  00015584    00000098     sysbios.aem4f : BIOS.obj (.text:ti_sysbios_knl_Clock_startI__E)
                  0001561c    00000094     nettool_ipv4.aem4f : config.oem4f (.text:CfgExecute)
                  000156b0    00000094                        : config.oem4f (.text:CfgRemoveEntry)
                  00015744    00000094     ti.net.cyassl.aem4f : asn.oem4f (.text:GetKey)
                  000157d8    00000094     Boot.aem4f : Boot.oem4f (.text:ti_catalog_arm_cortexm4_tiva_ce_Boot_sysCtlClockFreqSet__E)
                  0001586c    00000094     ti.targets.arm.rtsarm.aem4f : Text.oem4f (.text:xdc_runtime_Text_putMod__E)
                  00015900    00000092     ti.net.cyassl.aem4f : internal.oem4f (.text:BuildFinished)
                  00015992    00000002     --HOLE-- [fill = 0]
                  00015994    00000090                         : tls.oem4f (.text:BuildTlsFinished)
                  00015a24    00000090     stk.aem4f : igmp.oem4f (.text:IGMPMsg)
                  00015ab4    00000090     nettool_ipv4.aem4f : mytime.oem4f (.text:MYTIME_init)
                  00015b44    00000090     stk.aem4f : sockpcb.oem4f (.text:SockPcbCtlError)
                  00015bd4    00000090     os.aem4f : mem.oem4f (.text:_mmInit)
                  00015c64    00000090     nettool_ipv4.aem4f : dhcpbild.oem4f (.text:dhcpBuildRequest)
                  00015cf4    0000008e     ti.net.cyassl.aem4f : asn.oem4f (.text:DecodeSubtree)
                  00015d82    0000008e                         : tfm.oem4f (.text:fp_mul_2d)
                  00015e10    0000008c                         : des3.oem4f (.text:FPERM)
                  00015e9c    0000008c                         : des3.oem4f (.text:IPERM)
                  00015f28    0000008c                         : md5.oem4f (.text:Md5Final)
                  00015fb4    0000008c                         : internal.oem4f (.text:SendBuffered)
                  00016040    0000008c     os.aem4f : mem.oem4f (.text:mmBulkAlloc)
                  000160cc    0000008c              : mem.oem4f (.text:mmInitPage)
                  00016158    0000008c     sysbios.aem4f : m3_TaskSupport_asm.obj (.text:ti_sysbios_family_arm_m3_TaskSupport_buildTaskStack)
                  000161e4    0000008a     ti.net.cyassl.aem4f : internal.oem4f (.text:GrowInputBuffer)
                  0001626e    0000008a     netctrl_min_ipv4.aem4f : netsrv.oem4f (.text:SPRoute)
                  000162f8    0000008a     ti.net.cyassl.aem4f : tfm.oem4f (.text:fp_div_2)
                  00016382    0000008a                         : tfm.oem4f (.text:fp_mod_2d)
                  0001640c    0000008a                         : tfm.oem4f (.text:fp_mul_d)
                  00016496    00000088                         : asn.oem4f (.text:DecodeAuthKeyId)
                  0001651e    00000088                         : internal.oem4f (.text:DoServerKeyExchange)
                  000165a6    00000088                         : internal.oem4f (.text:GrowOutputBuffer)
                  0001662e    00000088                         : rsa.oem4f (.text:RsaPad)
                  000166b6    00000002     --HOLE-- [fill = 0]
                  000166b8    00000088     sysbios.aem4f : BIOS.obj (.text:ti_sysbios_family_arm_m3_Hwi_initNVIC__E)
                  00016740    00000086     nettool_ipv4.aem4f : dhcpsm.oem4f (.text:StateRequesting)
                  000167c6    00000084     ti.net.cyassl.aem4f : internal.oem4f (.text:DoFinished)
                  0001684a    00000002     --HOLE-- [fill = 0]
                  0001684c    00000084     stk.aem4f : tcpprot.oem4f (.text:TcpPrAttach)
                  000168d0    00000084     os.aem4f : mem.oem4f (.text:mmBulkFree)
                  00016954    00000084     sysbios.aem4f : BIOS.obj (.text:ti_sysbios_knl_Task_Module_startup__E)
                  000169d8    00000082     ti.net.cyassl.aem4f : asn.oem4f (.text:DateGreaterThan)
                  00016a5a    00000082     stk.aem4f : fileuser.oem4f (.text:fdClose)
                  00016adc    00000080     ti.net.cyassl.aem4f : asn.oem4f (.text:DecodeNameConstraints)
                  00016b5c    00000080                         : internal.oem4f (.text:GetRecordHeader)
                  00016bdc    00000080     netctrl_min_ipv4.aem4f : netsrv.oem4f (.text:NS_BootTask)
                  00016c5c    00000080     stk.aem4f : pbm.oem4f (.text:PBM_alloc)
                  00016cdc    00000080               : raw.oem4f (.text:RawOutput)
                  00016d5c    00000080     netctrl_min_ipv4.aem4f : netsrv.oem4f (.text:ServiceSpawn)
                  00016ddc    00000080     nettool_ipv4.aem4f : dhcpsm.oem4f (.text:StateRenewRebind)
                  00016e5c    00000080     os.aem4f : mem.oem4f (.text:mmFree)
                  00016edc    0000007f     ti.net.cyassl.aem4f : keys.oem4f (.text:SetPrefix)
                  00016f5b    00000001     --HOLE-- [fill = 0]
                  00016f5c    0000007f     tcpEcho_pem4f.oem4f (.text:ti_ndk_config_Global_NetworkIPAddr)
                  00016fdb    00000001     --HOLE-- [fill = 0]
                  00016fdc    0000007e     os.aem4f : semaphore.oem4f (.text:SemCreateBinary)
                  0001705a    00000002     --HOLE-- [fill = 0]
                  0001705c    0000007c     nettool_ipv4.aem4f : config.oem4f (.text:CfgGetEntry)
                  000170d8    0000007c                        : config.oem4f (.text:CfgGetNextEntry)
                  00017154    0000007c     emac_tivaware.aem4f : EMACSnow.oem4f (.text:EMACSnow_processPendingTx)
                  000171d0    0000007c                         : EMACSnow.oem4f (.text:EMACSnow_processPhyInterrupt)
                  0001724c    0000007c     stk.aem4f : ip.oem4f (.text:IPMsg)
                  000172c8    0000007c               : pbm.oem4f (.text:PBM_free)
                  00017344    0000007a     ti.net.cyassl.aem4f : asn.oem4f (.text:GetInt)
                  000173be    0000007a     stk.aem4f : socket.oem4f (.text:NDK_send)
                  00017438    00000078     ti.net.cyassl.aem4f : asn.oem4f (.text:DecodeExtKeyUsage)
                  000174b0    00000078     driverlib.lib : emac.obj (.text:EMACInit)
                  00017528    00000078     stk.aem4f : lli.oem4f (.text:LLINew)
                  000175a0    00000078               : socket.oem4f (.text:NDK_sendto)
                  00017618    00000078               : nimu.oem4f (.text:NIMURegister)
                  00017690    00000078               : sock.oem4f (.text:SockAccept)
                  00017708    00000078     rtsv7M4_T_le_v4SPD16_eabi.lib : memset_t2.obj (.text)
                  00017780    00000077     stk.aem4f : fileuser.oem4f (.text:fdOpenSession)
                  000177f7    00000001     --HOLE-- [fill = 0]
                  000177f8    00000076               : igmp.oem4f (.text:IGMPDoMCast)
                  0001786e    00000076               : socket.oem4f (.text:NDK_setsockopt)
                  000178e4    00000076     ti.net.cyassl.aem4f : tls.oem4f (.text:PRF)
                  0001795a    00000002     --HOLE-- [fill = 0]
                  0001795c    00000074                         : internal.oem4f (.text:BuildSHA)
                  000179d0    00000074                         : des3.oem4f (.text:Des3ProcessBlock)
                  00017a44    00000074     stk.aem4f : socket.oem4f (.text:NDK_recv)
                  00017ab8    00000074               : pipe.oem4f (.text:PipeSend)
                  00017b2c    00000074               : raweth.oem4f (.text:RawEthRxPacket)
                  00017ba0    00000074               : sockpcb.oem4f (.text:SockPcbConnect)
                  00017c14    00000074               : tcptime.oem4f (.text:TcpXmitTimer)
                  00017c88    00000074     nettool_ipv4.aem4f : dhcptags.oem4f (.text:dhcpDecodeType)
                  00017cfc    00000072     ti.net.cyassl.aem4f : asn.oem4f (.text:GetSignature)
                  00017d6e    00000072     stk.aem4f : igmp.oem4f (.text:IGMPJoin)
                  00017de0    00000072               : rtable.oem4f (.text:RtWalkNext)
                  00017e52    00000002     --HOLE-- [fill = 0]
                  00017e54    00000070     ti.net.cyassl.aem4f : internal.oem4f (.text:BuildMD5)
                  00017ec4    00000070                         : tls.oem4f (.text:DeriveTlsKeys)
                  00017f34    00000070     emac_tivaware.aem4f : EMACSnow.oem4f (.text:EMACSnow_hwiIntFxn)
                  00017fa4    00000070     stk.aem4f : igmp.oem4f (.text:IGMPLeaveHostGroup)
                  00018014    00000070               : rtable.oem4f (.text:RtFlush)
                  00018084    00000070               : sock.oem4f (.text:SockShutdown)
                  000180f4    00000070     ti.net.cyassl.aem4f : tls.oem4f (.text:TLS_hmac)
                  00018164    00000070                         : tfm.oem4f (.text:fp_exptmod)
                  000181d4    00000070     os.aem4f : task.oem4f (.text:llExit)
                  00018244    00000070     ti.targets.arm.rtsarm.aem4f : Memory.oem4f (.text:xdc_runtime_Memory_alloc__E)
                  000182b4    0000006e     stk.aem4f : socket.oem4f (.text:NDK_socket)
                  00018322    0000006e     ti.net.cyassl.aem4f : sha256.oem4f (.text:Sha256Update)
                  00018390    0000006e                         : tfm.oem4f (.text:fp_rshd)
                  000183fe    00000002     --HOLE-- [fill = 0]
                  00018400    0000006c                         : ssl.oem4f (.text:CyaSSL_Cleanup)
                  0001846c    0000006c     os.aem4f : ossys.oem4f (.text:DbgPrintf)
                  000184d8    0000006c     emac_tivaware.aem4f : EMACSnow.oem4f (.text:EMACSnow_emacStop)
                  00018544    0000006c     stk.aem4f : nimu.oem4f (.text:NIMUShutdown)
                  000185b0    0000006c               : node.oem4f (.text:NodeTreeNew)
                  0001861c    0000006c               : raweth.oem4f (.text:RawEthTxPacket)
                  00018688    0000006c               : sock.oem4f (.text:SockListen)
                  000186f4    0000006c               : rtable.oem4f (.text:_RtNodeInsert)
                  00018760    0000006c     tcpEcho_pem4f.oem4f (.text:ti_ndk_config_ip_init)
                  000187cc    0000006c     tcpEcho_pem4f.oem4f (.text:ti_sysbios_family_arm_m3_Hwi_Object__create__S)
                  00018838    0000006c     sysbios.aem4f : BIOS.obj (.text:ti_sysbios_knl_Clock_start__E)
                  000188a4    0000006c     ti.targets.arm.rtsarm.aem4f : Error.oem4f (.text:xdc_runtime_Error_print__E)
                  00018910    0000006a     ti.net.cyassl.aem4f : asn.oem4f (.text:DecodeSubjKeyId)
                  0001897a    0000006a     stk.aem4f : socket.oem4f (.text:NDK_accept)
                  000189e4    0000006a               : tcpprot.oem4f (.text:TcpPrInherit)
                  00018a4e    0000006a     ti.net.cyassl.aem4f : tfm.oem4f (.text:fp_lshd)
                  00018ab8    0000006a                         : tfm.oem4f (.text:fp_mul_2)
                  00018b22    00000002     --HOLE-- [fill = 0]
                  00018b24    00000069     stk.aem4f : node.oem4f (.text:NodeNew)
                  00018b8d    00000003     --HOLE-- [fill = 0]
                  00018b90    00000068     ti.net.cyassl.aem4f : internal.oem4f (.text:BuildSHA_CertVerify)
                  00018bf8    00000068     nettool_ipv4.aem4f : config.oem4f (.text:CfgFree)
                  00018c60    00000068     ti.net.cyassl.aem4f : io.oem4f (.text:EmbedReceive)
                  00018cc8    00000068                         : tls.oem4f (.text:MakeTlsMasterSecret)
                  00018d30    00000068     stk.aem4f : pbm.oem4f (.text:PBM_open)
                  00018d98    00000068     netctrl_min_ipv4.aem4f : netsrv.oem4f (.text:SPConfig)
                  00018e00    00000068     ti.net.cyassl.aem4f : sha.oem4f (.text:ShaUpdate)
                  00018e68    00000068     stk.aem4f : sockpcb.oem4f (.text:SockPcbFindRaw)
                  00018ed0    00000068               : udp.oem4f (.text:UdpChecksum)
                  00018f38    00000068     ti.net.cyassl.aem4f : tfm.oem4f (.text:fp_montgomery_calc_normalization)
                  00018fa0    00000068     tcpEcho_pem4f.oem4f (.text:ti_sysbios_knl_Task_Object__create__S)
                  00019008    00000066     ti.net.cyassl.aem4f : internal.oem4f (.text:DoApplicationData)
                  0001906e    00000066                         : ssl.oem4f (.text:ProcessChainBuffer)
                  000190d4    00000066     ti.targets.arm.rtsarm.aem4f : Core-mem.oem4f (.text:xdc_runtime_Core_deleteObject__I)
                  0001913a    00000002     --HOLE-- [fill = 0]
                  0001913c    00000065     stk.aem4f : tcptime.oem4f (.text:TcpTimeoutSackRexmt)
                  000191a1    00000003     --HOLE-- [fill = 0]
                  000191a4    00000064     ti.net.cyassl.aem4f : internal.oem4f (.text:BuildMD5_CertVerify)
                  00019208    00000064     stk.aem4f : file.oem4f (.text:FdWaitEvent)
                  0001926c    00000064               : pbm.oem4f (.text:PBMQ_enq)
                  000192d0    00000064     ti.net.cyassl.aem4f : asn.oem4f (.text:ParseCert)
                  00019334    00000064                         : rsa.oem4f (.text:RsaPublicEncrypt)
                  00019398    00000064                         : rsa.oem4f (.text:RsaSSL_Sign)
                  000193fc    00000064     os.aem4f : semaphore.oem4f (.text:SemCreate)
                  00019460    00000064     ti.net.cyassl.aem4f : tfm.oem4f (.text:fp_read_unsigned_bin)
                  000194c4    00000064     hal_timer_bios.aem4f : lltimer.oem4f (.text:llTimerTick)
                  00019528    00000064     sysbios.aem4f : BIOS.obj (.text:ti_sysbios_family_arm_lm4_Timer_isrStub__E)
                  0001958c    00000064     tcpEcho_pem4f.oem4f (.text:ti_sysbios_hal_Hwi_create)
                  000195f0    00000062     stk.aem4f : ipin.oem4f (.text:IPRouteIP)
                  00019652    00000002     --HOLE-- [fill = 0]
                  00019654    00000062               : sb.oem4f (.text:SBNew)
                  000196b6    00000002     --HOLE-- [fill = 0]
                  000196b8    00000060     nettool_ipv4.aem4f : config.oem4f (.text:CfgGetEntryCnt)
                  00019718    00000060     ti.net.cyassl.aem4f : asn.oem4f (.text:DecodeToKey)
                  00019778    00000060                         : internal.oem4f (.text:FreeHandshakeResources)
                  000197d8    00000060     stk.aem4f : nimu.oem4f (.text:NIMUUnregister)
                  00019838    00000060               : node.oem4f (.text:NodeFind)
                  00019898    00000060               : rtc.oem4f (.text:RTCMsg)
                  000198f8    00000060     ti.net.cyassl.aem4f : rsa.oem4f (.text:RsaUnPad)
                  00019958    00000060     nettool_ipv4.aem4f : dhcptags.oem4f (.text:dhcpBuildOptions)
                  000199b8    00000060     rtsv7M4_T_le_v4SPD16_eabi.lib : trgmsg.obj (.text)
                  00019a18    00000060     tcpEcho_pem4f.oem4f (.text:ti_ndk_config_Global_serviceReport)
                  00019a78    00000060     sysbios.aem4f : BIOS.obj (.text:ti_sysbios_knl_Clock_logTick__E)
                  00019ad8    00000060                   : BIOS.obj (.text:ti_sysbios_knl_Swi_schedule__I)
                  00019b38    00000060     ti.targets.arm.rtsarm.aem4f : System.oem4f (.text:xdc_runtime_System_formatNum__I)
                  00019b98    0000005e     ti.net.cyassl.aem4f : asn.oem4f (.text:DecodeKeyUsage)
                  00019bf6    0000005e                         : asn.oem4f (.text:EncodeSignature)
                  00019c54    0000005e                         : asn.oem4f (.text:GetObjectId)
                  00019cb2    0000005e     stk.aem4f : route.oem4f (.text:RtRemove)
                  00019d10    0000005e     nettool_ipv4.aem4f : dhcpsm.oem4f (.text:StateSelecting)
                  00019d6e    0000005e     rtsv7M4_T_le_v4SPD16_eabi.lib : copy_decompress_rle.obj (.text)
                  00019dcc    0000005c     nettool_ipv4.aem4f : config.oem4f (.text:CfgSetExecuteOrder)
                  00019e28    0000005c     stk.aem4f : nimu.oem4f (.text:NIMUIoctlSpecialCmd)
                  00019e84    0000005c     ti.net.cyassl.aem4f : internal.oem4f (.text:Receive)
                  00019ee0    0000005c     stk.aem4f : route.oem4f (.text:RtRedirect)
                  00019f3c    0000005c     ti.net.cyassl.aem4f : internal.oem4f (.text:ShrinkInputBuffer)
                  00019f98    0000005c     stk.aem4f : sockint.oem4f (.text:SockSpawnAbort)
                  00019ff4    0000005c               : tcp.oem4f (.text:TcpChecksum)
                  0001a050    0000005c               : vlan.oem4f (.text:VLANReceivePacket)
                  0001a0ac    0000005c     tcpEcho_pem4f.oem4f (.text:ti_sysbios_knl_Swi_create)
                  0001a108    0000005c     tcpEcho_pem4f.oem4f (.text:ti_sysbios_knl_Task_create)
                  0001a164    0000005c     stk.aem4f : lliin.oem4f (.text:updateRtTable)
                  0001a1c0    0000005b     ti.targets.arm.rtsarm.aem4f : Text.oem4f (.text:xdc_runtime_Text_putLab__E)
                  0001a21b    00000001     --HOLE-- [fill = 0]
                  0001a21c    0000005a     stk.aem4f : tcpprot.oem4f (.text:TcpValidateMetrics)
                  0001a276    0000005a     nettool_ipv4.aem4f : dhcpbild.oem4f (.text:dhcpBuildDecline)
                  0001a2d0    0000005a     tcpEcho_pem4f.oem4f (.text:ti_ndk_config_tcp_init)
                  0001a32a    00000002     --HOLE-- [fill = 0]
                  0001a32c    00000058     stk.aem4f : bind.oem4f (.text:BindFree)
                  0001a384    00000058     boot.aem4f : boot.oem4f (.text)
                  0001a3dc    00000058     ti.net.cyassl.aem4f : ssl.oem4f (.text:CyaSSL_Init)
                  0001a434    00000058                         : asn.oem4f (.text:DecodeBasicCaConstraint)
                  0001a48c    00000058     driverlib.lib : emac.obj (.text:EMACPHYConfigSet)
                  0001a4e4    00000058     stk.aem4f : igmp.oem4f (.text:IGMPTimer)
                  0001a53c    00000058     ti.net.cyassl.aem4f : sha256.oem4f (.text:InitSha256)
                  0001a594    00000058                         : md5.oem4f (.text:Md5Update)
                  0001a5ec    00000058     netctrl_min_ipv4.aem4f : netsrv.oem4f (.text:SPService)
                  0001a644    00000058     ti.net.cyassl.aem4f : asn.oem4f (.text:StoreRsaKey)
                  0001a69c    00000058                         : tfm.oem4f (.text:fp_mod)
                  0001a6f4    00000058     sysbios.aem4f : m3_Hwi_asm_switch.obj (.text:ti_sysbios_family_arm_m3_Hwi_initStacks__E)
                  0001a74c    00000058                   : BIOS.obj (.text:ti_sysbios_knl_Swi_restoreHwi__E)
                  0001a7a4    00000054     ti.net.cyassl.aem4f : arc4.oem4f (.text:Arc4SetKey)
                  0001a7f8    00000054     nettool_ipv4.aem4f : config.oem4f (.text:CfgEntryDeRef)
                  0001a84c    00000054     ti.net.cyassl.aem4f : keys.oem4f (.text:CleanPreMaster)
                  0001a8a0    00000054                         : des3.oem4f (.text:Des3_SetKey)
                  0001a8f4    00000054                         : asn.oem4f (.text:GetValidity)
                  0001a948    00000054     stk.aem4f : igmp.oem4f (.text:IGMPLeave)
                  0001a99c    00000054               : rawethsock_pcb.oem4f (.text:RawEthSockPcbAttach)
                  0001a9f0    00000054     ti.net.cyassl.aem4f : asn.oem4f (.text:RsaPublicKeyDecode)
                  0001aa44    00000054     os.aem4f : mem.oem4f (.text:mmCopy)
                  0001aa98    00000054     sysbios.aem4f : BIOS.obj (.text:ti_sysbios_family_arm_m3_Hwi_Instance_finalize__E)
                  0001aaec    00000054                   : BIOS.obj (.text:ti_sysbios_family_arm_m3_Hwi_Module_startup__E)
                  0001ab40    00000054                   : BIOS.obj (.text:ti_sysbios_knl_Swi_Instance_finalize__E)
                  0001ab94    00000052     ti.net.cyassl.aem4f : internal.oem4f (.text:DoAlert)
                  0001abe6    00000050                         : ssl.oem4f (.text:GetCAByName)
                  0001ac36    00000050     stk.aem4f : socket.oem4f (.text:NDK_bind)
                  0001ac86    00000002     --HOLE-- [fill = 0]
                  0001ac88    00000050               : route.oem4f (.text:RtNew)
                  0001acd8    00000050     driverlib.lib : sysctl.obj (.text:SysCtlPeripheralReset)
                  0001ad28    00000050     stk.aem4f : tcpprot.oem4f (.text:TcpPrDetach)
                  0001ad78    00000050     Boot.aem4f : Boot_sysctl.oem4f (.text:_SysCtlFrequencyGet)
                  0001adc8    00000050     sysbios.aem4f : BIOS.obj (.text:ti_sysbios_knl_Task_deleteTerminatedTasksFunc__I)
                  0001ae18    00000050     ti.targets.arm.rtsarm.aem4f : Startup.oem4f (.text:xdc_runtime_Startup_exec__E)
                  0001ae68    00000050                                 : Text.oem4f (.text:xdc_runtime_Text_visitRope2__I)
                  0001aeb8    0000004e     ti.net.cyassl.aem4f : aes.oem4f (.text:AesCbcDecrypt)
                  0001af06    0000004e                         : des3.oem4f (.text:Des3_CbcDecrypt)
                  0001af54    0000004e     stk.aem4f : node.oem4f (.text:NodeDeRef)
                  0001afa2    0000004c     ti.net.cyassl.aem4f : ssl.oem4f (.text:GetCA)
                  0001afee    0000004c                         : hmac.oem4f (.text:HmacUpdate)
                  0001b03a    00000002     --HOLE-- [fill = 0]
                  0001b03c    0000004c     nettool_ipv4.aem4f : ipaddr.oem4f (.text:NtAddNetwork)
                  0001b088    0000004c     stk.aem4f : sockint.oem4f (.text:SockValidateRoute)
                  0001b0d4    0000004c     rtsv7M4_T_le_v4SPD16_eabi.lib : rand.obj (.text)
                  0001b120    0000004c     sysbios.aem4f : BIOS.obj (.text:ti_sysbios_knl_Swi_runLoop__I)
                  0001b16c    0000004c                   : BIOS.obj (.text:ti_sysbios_knl_Task_allBlockedFunction__I)
                  0001b1b8    0000004a     ti.net.cyassl.aem4f : hmac.oem4f (.text:HmacKeyInnerHash)
                  0001b202    0000004a     stk.aem4f : sock.oem4f (.text:SockDisconnect)
                  0001b24c    0000004a     nettool_ipv4.aem4f : config.oem4f (.text:_CfgEntryScan)
                  0001b296    0000004a     ti.net.cyassl.aem4f : tfm.oem4f (.text:fp_sub)
                  0001b2e0    0000004a                         : tfm.oem4f (.text:fp_to_unsigned_bin)
                  0001b32a    00000048                         : ssl.oem4f (.text:AlreadySigner)
                  0001b372    00000048     nettool_ipv4.aem4f : config.oem4f (.text:CfgNew)
                  0001b3ba    00000002     --HOLE-- [fill = 0]
                  0001b3bc    00000048     emac_tivaware.aem4f : EMACSnow.oem4f (.text:EMACSnow_processTransmitted)
                  0001b404    00000048     driverlib.lib : gpio.obj (.text:GPIOPinConfigure)
                  0001b44c    00000048     ti.net.cyassl.aem4f : hmac.oem4f (.text:InitHmac)
                  0001b494    00000048     stk.aem4f : lli.oem4f (.text:LLIMsg)
                  0001b4dc    00000048               : node.oem4f (.text:NodeWalk)
                  0001b524    00000048               : sockpcb.oem4f (.text:SockPcbResolveChain)
                  0001b56c    00000048               : tcpprot.oem4f (.text:TcpDrop)
                  0001b5b4    00000048               : tcptime.oem4f (.text:TcpTimeoutPersist)
                  0001b5fc    00000048               : lli.oem4f (.text:_LLIExpListInsert)
                  0001b644    00000048               : rtable.oem4f (.text:_RtExpListInsert)
                  0001b68c    00000048               : file.oem4f (.text:fdint_lockfd)
                  0001b6d4    00000048     sysbios.aem4f : BIOS.obj (.text:ti_sysbios_family_arm_m3_Hwi_excReserved__I)
                  0001b71c    00000048                   : BIOS.obj (.text:ti_sysbios_heaps_HeapMem_getStats__E)
                  0001b764    00000048     ti.targets.arm.rtsarm.aem4f : Assert.oem4f (.text:xdc_runtime_Assert_raise__I)
                  0001b7ac    00000046     ti.net.cyassl.aem4f : tls.oem4f (.text:CyaSSL_SetTlsHmacInner)
                  0001b7f2    00000046     nettool_ipv4.aem4f : ipaddr.oem4f (.text:NtIfIdx2Ip)
                  0001b838    00000046     stk.aem4f : rawethsock.oem4f (.text:RawEthSockSend)
                  0001b87e    00000046     ti.net.cyassl.aem4f : internal.oem4f (.text:SendChangeCipher)
                  0001b8c4    00000046                         : internal.oem4f (.text:SendServerHelloDone)
                  0001b90a    00000002     --HOLE-- [fill = 0]
                  0001b90c    00000046     stk.aem4f : timer.oem4f (.text:TimerNew)
                  0001b952    00000046     ti.net.cyassl.aem4f : tfm.oem4f (.text:fp_add)
                  0001b998    00000046     ti.targets.arm.rtsarm.aem4f : Core-params.oem4f (.text:xdc_runtime_Core_assignParams__I)
                  0001b9de    00000002     --HOLE-- [fill = 0]
                  0001b9e0    00000044     ti.net.cyassl.aem4f : ssl.oem4f (.text:CyaSSL_CTX_new)
                  0001ba24    00000044                         : random.oem4f (.text:GenerateSeed)
                  0001ba68    00000044                         : asn.oem4f (.text:GetLength)
                  0001baac    00000044     stk.aem4f : ipfrag.oem4f (.text:IPReasmFree)
                  0001baf0    00000044               : lli.oem4f (.text:LLIGetValidTime)
                  0001bb34    00000044               : rawethsock_pcb.oem4f (.text:RawEthSockPcbDetach)
                  0001bb78    00000044               : rtable.oem4f (.text:RouteMsg)
                  0001bbbc    00000044               : rtable.oem4f (.text:RtWalkEnd)
                  0001bc00    00000044     ti.net.cyassl.aem4f : asn.oem4f (.text:SetLength)
                  0001bc44    00000044     stk.aem4f : timer.oem4f (.text:TimerListInsert)
                  0001bc88    00000044     ti.net.cyassl.aem4f : tfm.oem4f (.text:fp_cmp_mag)
                  0001bccc    00000044     hal_timer_bios.aem4f : lltimer.oem4f (.text:llTimerGetTime)
                  0001bd10    00000044     rtsv7M4_T_le_v4SPD16_eabi.lib : cpy_tbl.obj (.text)
                  0001bd54    00000044                                   : exit.obj (.text)
                  0001bd98    00000044     sysbios.aem4f : BIOS.obj (.text:ti_sysbios_family_arm_m3_Hwi_disableInterrupt__E)
                  0001bddc    00000044                   : BIOS.obj (.text:ti_sysbios_family_arm_m3_Hwi_enableInterrupt__E)
                  0001be20    00000044     ti.targets.arm.rtsarm.aem4f : Error.oem4f (.text:xdc_runtime_Error_setX__E)
                  0001be64    00000044                                 : SysMin.oem4f (.text:xdc_runtime_SysMin_flush__E)
                  0001bea8    00000042     ti.net.cyassl.aem4f : des3.oem4f (.text:Des3_CbcEncrypt)
                  0001beea    00000042                         : io.oem4f (.text:EmbedSend)
                  0001bf2c    00000042                         : asn.oem4f (.text:FreeDecodedCert)
                  0001bf6e    00000042     stk.aem4f : socket.oem4f (.text:NDK_listen)
                  0001bfb0    00000042     ti.net.cyassl.aem4f : internal.oem4f (.text:SanityCheckCipherText)
                  0001bff2    00000042     netctrl_min_ipv4.aem4f : netsrv.oem4f (.text:ServiceKill)
                  0001c034    00000042     os.aem4f : task.oem4f (.text:TaskCreate)
                  0001c076    00000042     stk.aem4f : fileuser.oem4f (.text:fdCloseSession)
                  0001c0b8    00000042     rtsv7M4_T_le_v4SPD16_eabi.lib : u_divt2.obj (.text)
                  0001c0fa    00000040     stk.aem4f : pbm.oem4f (.text:PBM_copy)
                  0001c13a    00000002     --HOLE-- [fill = 0]
                  0001c13c    00000040               : sockpcb.oem4f (.text:SockPcbDetach)
                  0001c17c    00000040               : sockpcb.oem4f (.text:SockPcbRtChange)
                  0001c1bc    00000040               : tcpprot.oem4f (.text:TcpPrDisconnect)
                  0001c1fc    00000040               : tcpprot.oem4f (.text:TcpPrSendOOB)
                  0001c23c    00000040     os.aem4f : mem.oem4f (.text:mmZeroInit)
                  0001c27c    00000040     ti.net.cyassl.aem4f : ssl.oem4f (.text:mystrnstr)
                  0001c2bc    00000040     sysbios.aem4f : BIOS.obj (.text:ti_sysbios_family_arm_lm4_Timer_getCurrentTick__E)
                  0001c2fc    00000040                   : BIOS.obj (.text:ti_sysbios_family_arm_lm4_Timer_startup__E)
                  0001c33c    00000040                   : BIOS.obj (.text:ti_sysbios_knl_Swi_enable__E)
                  0001c37c    00000040                   : BIOS.obj (.text:ti_sysbios_knl_Swi_startup__E)
                  0001c3bc    00000040                   : BIOS.obj (.text:ti_sysbios_knl_Task_processVitalTaskFlag__I)
                  0001c3fc    0000003e     ti.net.cyassl.aem4f : aes.oem4f (.text:AesCbcEncrypt)
                  0001c43a    0000003e     nettool_ipv4.aem4f : dhcpmain.oem4f (.text:DHCPClose)
                  0001c478    0000003e     stk.aem4f : nimu.oem4f (.text:NIMUAllocateName)
                  0001c4b6    0000003e     ti.net.cyassl.aem4f : internal.oem4f (.text:PickHashSigAlgo)
                  0001c4f4    0000003e     stk.aem4f : tcpprot.oem4f (.text:TcpPrCtlError)
                  0001c532    0000003e               : file.oem4f (.text:fdint_unlockfd)
                  0001c570    0000003c     ti.net.cyassl.aem4f : arc4.oem4f (.text:Arc4Process)
                  0001c5ac    0000003c     nettool_ipv4.aem4f : config.oem4f (.text:CfgEntryGetData)
                  0001c5e8    0000003c     ti.net.cyassl.aem4f : internal.oem4f (.text:DoHelloVerifyRequest)
                  0001c624    0000003c     driverlib.lib : emac.obj (.text:EMACIntDisable)
                  0001c660    0000003c     ti.net.cyassl.aem4f : internal.oem4f (.text:FreeSSL_Ctx)
                  0001c69c    0000003c                         : internal.oem4f (.text:GetRounds)
                  0001c6d8    0000003c                         : internal.oem4f (.text:HashInput)
                  0001c714    0000003c                         : internal.oem4f (.text:HashOutput)
                  0001c750    0000003c     stk.aem4f : lliin.oem4f (.text:LLIValidateRoute)
                  0001c78c    0000003c               : node.oem4f (.text:NodeUpdatePL)
                  0001c7c8    0000003c               : rtable.oem4f (.text:RtWalkBegin)
                  0001c804    0000003c     ti.net.cyassl.aem4f : internal.oem4f (.text:SSL_CtxResourceFree)
                  0001c840    0000003c     stk.aem4f : rtc.oem4f (.text:_RTCSendRtAdv)
                  0001c87c    0000003c     ti.net.cyassl.aem4f : tfm.oem4f (.text:fp_rshb)
                  0001c8b8    0000003c     sysbios.aem4f : BIOS.obj (.text:ti_sysbios_family_arm_m3_Hwi_excSvCall__I)
                  0001c8f4    0000003c                   : BIOS.obj (.text:ti_sysbios_family_arm_m3_TaskSupport_start__E)
                  0001c930    0000003c                   : BIOS.obj (.text:ti_sysbios_heaps_HeapMem_init__I)
                  0001c96c    0000003c     tcpEcho_pem4f.oem4f (.text:ti_sysbios_knl_Clock_Object__create__S)
                  0001c9a8    0000003c     tcpEcho_pem4f.oem4f (.text:ti_sysbios_knl_Clock_create)
                  0001c9e4    0000003c     ti.targets.arm.rtsarm.aem4f : Text.oem4f (.text:xdc_runtime_Text_xprintf__I)
                  0001ca20    0000003a     ti.net.cyassl.aem4f : internal.oem4f (.text:DoHandShakeMsg)
                  0001ca5a    0000003a     driverlib.lib : emac.obj (.text:EMACIntEnable)
                  0001ca94    0000003a     stk.aem4f : icmp.oem4f (.text:ICMPChecksum)
                  0001cace    0000003a               : rtable.oem4f (.text:_RtNodeRemove)
                  0001cb08    00000038     ti.net.cyassl.aem4f : internal.oem4f (.text:Decrypt)
                  0001cb40    00000038     driverlib.lib : emac.obj (.text:EMACConfigGet)
                  0001cb78    00000038     stk.aem4f : ipfrag.oem4f (.text:IPReasmTimeout)
                  0001cbb0    00000038     ti.net.cyassl.aem4f : sha.oem4f (.text:InitSha)
                  0001cbe8    00000038     stk.aem4f : node.oem4f (.text:NodeGetRt)
                  0001cc20    00000038     driverlib.lib : sysctl.obj (.text:SysCtlPeripheralReady)
                  0001cc58    00000038     stk.aem4f : tcpprot.oem4f (.text:TcpClose)
                  0001cc90    00000038               : tcpprot.oem4f (.text:TcpPrConnect)
                  0001ccc8    00000038               : tcptime.oem4f (.text:TcpSetPersist)
                  0001cd00    00000038     hal_timer_bios.aem4f : lltimer.oem4f (.text:_llTimerInit)
                  0001cd38    00000038     nettool_ipv4.aem4f : dhcpbild.oem4f (.text:dhcpBuildDiscover)
                  0001cd70    00000038                        : dhcptags.oem4f (.text:dhcpOptionsClear)
                  0001cda8    00000038     stk.aem4f : file.oem4f (.text:fdint_waitevent)
                  0001cde0    00000038     ti.net.cyassl.aem4f : tfm.oem4f (.text:fp_mulmod)
                  0001ce18    00000038     sysbios.aem4f : BIOS.obj (.text:ti_sysbios_family_arm_m3_Hwi_excNoIsr__I)
                  0001ce50    00000038                   : BIOS.obj (.text:ti_sysbios_family_arm_m3_Hwi_getStackInfo__E)
                  0001ce88    00000038                   : BIOS.obj (.text:ti_sysbios_knl_Clock_getTicks__E)
                  0001cec0    00000038     tcpEcho_pem4f.oem4f (.text:ti_sysbios_knl_Semaphore_Object__create__S)
                  0001cef8    00000038     sysbios.aem4f : BIOS.obj (.text:ti_sysbios_knl_Semaphore_pendTimeout__I)
                  0001cf30    00000038     ti.targets.arm.rtsarm.aem4f : SysMin.oem4f (.text:xdc_runtime_SysMin_putch__E)
                  0001cf68    00000038                                 : System.oem4f (.text:xdc_runtime_System_atexit__E)
                  0001cfa0    00000036     ti.net.cyassl.aem4f : internal.oem4f (.text:Encrypt)
                  0001cfd6    00000036                         : internal.oem4f (.text:FreeCiphers)
                  0001d00c    00000036                         : asn.oem4f (.text:GetSequence)
                  0001d042    00000036                         : asn.oem4f (.text:GetSet)
                  0001d078    00000036                         : tfm.oem4f (.text:fp_cmp)
                  0001d0ae    00000002     --HOLE-- [fill = 0]
                  0001d0b0    00000034     nettool_ipv4.aem4f : config.oem4f (.text:CfgSetService)
                  0001d0e4    00000034     driverlib.lib : emac.obj (.text:EMACConfigSet)
                  0001d118    00000034                   : emac.obj (.text:EMACIntClear)
                  0001d14c    00000034     emac_tivaware.aem4f : EMAC.oem4f (.text:EMAC_init)
                  0001d180    00000034     stk.aem4f : nimu.oem4f (.text:NIMUFindByName)
                  0001d1b4    00000034               : nimu.oem4f (.text:NIMUInit)
                  0001d1e8    00000034               : sock.oem4f (.text:SockGetName)
                  0001d21c    00000034     driverlib.lib : sysctl.obj (.text:SysCtlPeripheralEnable)
                  0001d250    00000034     stk.aem4f : tcpprot.oem4f (.text:TcpPrSend)
                  0001d284    00000034               : timer.oem4f (.text:TimerHSTick)
                  0001d2b8    00000034     ti.net.cyassl.aem4f : tfm.oem4f (.text:fp_2expt)
                  0001d2ec    00000034                         : tfm.oem4f (.text:fp_montgomery_setup)
                  0001d320    00000034     sysbios.aem4f : BIOS.obj (.text:ti_sysbios_family_arm_m3_Hwi_excNmi__I)
                  0001d354    00000034                   : BIOS.obj (.text:ti_sysbios_hal_Hwi_checkStack)
                  0001d388    00000034     tcpEcho_pem4f.oem4f (.text:ti_sysbios_knl_Semaphore_create)
                  0001d3bc    00000034     sysbios.aem4f : BIOS.obj (.text:ti_sysbios_knl_Task_restore__E)
                  0001d3f0    00000034     ti.targets.arm.rtsarm.aem4f : Core-label.oem4f (.text:xdc_runtime_Core_assignLabel__I)
                  0001d424    00000033                                 : Text.oem4f (.text:xdc_runtime_Text_printVisFxn__I)
                  0001d457    00000001     --HOLE-- [fill = 0]
                  0001d458    00000032     nettool_ipv4.aem4f : config.oem4f (.text:CfgGetImmediate)
                  0001d48a    00000032     ti.net.cyassl.aem4f : ssl.oem4f (.text:CyaSSL_read_internal)
                  0001d4bc    00000032     stk.aem4f : route.oem4f (.text:RtDeRef)
                  0001d4ee    00000032               : sb.oem4f (.text:SBSetMax)
                  0001d520    00000032               : sock.oem4f (.text:SockIntAbort)
                  0001d552    00000032     nettool_ipv4.aem4f : config.oem4f (.text:_CfgAcquire)
                  0001d584    00000030     driverlib.lib : emac.obj (.text:EMACAddrSet)
                  0001d5b4    00000030     emac_tivaware.aem4f : EMACSnow.oem4f (.text:EMACSnow_handlePackets)
                  0001d5e4    00000030     stk.aem4f : ip.oem4f (.text:IPChecksum)
                  0001d614    00000030     netctrl_min_ipv4.aem4f : netsrv.oem4f (.text:NS_PreBoot)
                  0001d644    00000030     stk.aem4f : sb.oem4f (.text:SBFlush)
                  0001d674    00000030               : sock.oem4f (.text:SockBind)
                  0001d6a4    00000030               : sockpcb.oem4f (.text:SockCleanPcb)
                  0001d6d4    00000030               : sockprot.oem4f (.text:SockPrCtlError)
                  0001d704    00000030     nettool_ipv4.aem4f : dhcpsm.oem4f (.text:dhcpIPRemove)
                  0001d734    00000030                        : dhcpsock.oem4f (.text:dhcpPacketSend)
                  0001d764    00000030     ti.net.cyassl.aem4f : tfm.oem4f (.text:fp_cmp_d)
                  0001d794    00000030     stk.aem4f : listlib.oem4f (.text:list_remove_node)
                  0001d7c4    00000030     os.aem4f : mem.oem4f (.text:mmUnInitPage)
                  0001d7f4    00000030     rtsv7M4_T_le_v4SPD16_eabi.lib : strncpy.obj (.text)
                  0001d824    00000030     tcpEcho_pem4f.oem4f (.text:ti_sysbios_BIOS_atExitFunc__I)
                  0001d854    00000030     tcpEcho_pem4f.oem4f (.text:ti_sysbios_gates_GateHwi_Object__create__S)
                  0001d884    00000030     tcpEcho_pem4f.oem4f (.text:ti_sysbios_gates_GateMutex_Object__create__S)
                  0001d8b4    00000030     tcpEcho_pem4f.oem4f (.text:ti_sysbios_heaps_HeapMem_Object__create__S)
                  0001d8e4    00000030     tcpEcho_pem4f.oem4f (.text:ti_sysbios_knl_Semaphore_construct)
                  0001d914    00000030     ti.targets.arm.rtsarm.aem4f : SysMin.oem4f (.text:xdc_runtime_SysMin_abort__E)
                  0001d944    00000030                                 : System.oem4f (.text:xdc_runtime_System_processAtExit__E)
                  0001d974    0000002e     ti.net.cyassl.aem4f : internal.oem4f (.text:CheckAltNames)
                  0001d9a2    0000002e                         : tls.oem4f (.text:CyaSSL_GetHmacType)
                  0001d9d0    0000002e                         : ssl.oem4f (.text:CyaSSL_new)
                  0001d9fe    0000002e                         : internal.oem4f (.text:FreeArrays)
                  0001da2c    0000002e                         : asn.oem4f (.text:FreeSigner)
                  0001da5a    0000002e                         : asn.oem4f (.text:GetTime)
                  0001da88    0000002e                         : arc4.oem4f (.text:MakeByte)
                  0001dab6    0000002e     stk.aem4f : rawethsock.oem4f (.text:RawEthSockNotify)
                  0001dae4    0000002e               : route.oem4f (.text:RtSetFailure)
                  0001db12    0000002e               : sb.oem4f (.text:SBFree)
                  0001db40    0000002e     ti.net.cyassl.aem4f : internal.oem4f (.text:ShrinkOutputBuffer)
                  0001db6e    0000002e     tcpEcho_pem4f.oem4f (.text:malloc)
                  0001db9c    0000002c     ti.net.cyassl.aem4f : ssl.oem4f (.text:CyaSSL_CertManagerNew)
                  0001dbc8    0000002c     EK_TM4C1294XL.obj (.text:EK_TM4C1294XL_initGPIO)
                  0001dbf4    0000002c     driverlib.lib : emac.obj (.text:EMACIntStatus)
                  0001dc20    0000002c     stk.aem4f : file.oem4f (.text:FdSignalEvent)
                  0001dc4c    0000002c     ti.net.cyassl.aem4f : asn.oem4f (.text:GetMyVersion)
                  0001dc78    0000002c                         : ssl.oem4f (.text:HashSession)
                  0001dca4    0000002c                         : md5.oem4f (.text:InitMd5)
                  0001dcd0    0000002c                         : wc_port.oem4f (.text:InitMutex)
                  0001dcfc    0000002c                         : random.oem4f (.text:InitRng)
                  0001dd28    0000002c     os.aem4f : task.oem4f (.text:NDK_hookCreate)
                  0001dd54    0000002c     stk.aem4f : nimu.oem4f (.text:NIMUAllocateIndex)
                  0001dd80    0000002c               : pipe.oem4f (.text:PipeClose)
                  0001ddac    0000002c     ti.net.cyassl.aem4f : rsa.oem4f (.text:RsaSSL_VerifyInline)
                  0001ddd8    0000002c     stk.aem4f : sockpcb.oem4f (.text:SockPcbAttach)
                  0001de04    0000002c     Boot.aem4f : Boot_sysctl.oem4f (.text:_SysCtlMemTimingGet)
                  0001de30    0000002c     sysbios.aem4f : BIOS.obj (.text:ti_sysbios_hal_Hwi_initStack)
                  0001de5c    0000002c                   : BIOS.obj (.text:ti_sysbios_knl_Clock_Module_startup__E)
                  0001de88    0000002c     tcpEcho_pem4f.oem4f (.text:ti_sysbios_knl_Clock_doTick__I)
                  0001deb4    0000002c     tcpEcho_pem4f.oem4f (.text:ti_sysbios_knl_Queue_construct)
                  0001dee0    0000002c     ti.targets.arm.rtsarm.aem4f : Text.oem4f (.text:xdc_runtime_Text_cordText__E)
                  0001df0c    0000002c     ti.net.cyassl.aem4f : aes.oem4f (.text:xorbuf)
                  0001df38    0000002c                         : des3.oem4f (.text:xorbuf)
                  0001df64    0000002a                         : internal.oem4f (.text:ConstantCompare)
                  0001df8e    0000002a                         : ssl.oem4f (.text:CyaSSL_CTX_load_verify_buffer)
                  0001dfb8    0000002a                         : internal.oem4f (.text:DoRounds)
                  0001dfe2    0000002a     driverlib.lib : gpio.obj (.text:GPIODirModeSet)
                  0001e00c    0000002a     stk.aem4f : pbm.oem4f (.text:PBMQ_deq)
                  0001e036    0000002a     ti.net.cyassl.aem4f : rsa.oem4f (.text:RsaPrivateDecryptInline)
                  0001e060    0000002a     nettool_ipv4.aem4f : config.oem4f (.text:_CfgRelease)
                  0001e08a    0000002a     ti.targets.arm.rtsarm.aem4f : System.oem4f (.text:xdc_runtime_System_putchar__I)
                  0001e0b4    00000028     stk.aem4f : bind.oem4f (.text:BindFindByNet)
                  0001e0dc    00000028     emac_tivaware.aem4f : EMACSnow.oem4f (.text:EMACSnow_isLinkUp)
                  0001e104    00000028                         : EMACSnow.oem4f (.text:EMACSnow_pkt_service)
                  0001e12c    00000028     stk.aem4f : igmp.oem4f (.text:IGMPTestGroup)
                  0001e154    00000028     ti.net.cyassl.aem4f : internal.oem4f (.text:Md5Rounds)
                  0001e17c    00000028     netctrl_min_ipv4.aem4f : netctrl.oem4f (.text:NC_SystemClose)
                  0001e1a4    00000028     stk.aem4f : nimu.oem4f (.text:NIMUCreatePacket)
                  0001e1cc    00000028               : nimu.oem4f (.text:NIMUPacketServiceCheck)
                  0001e1f4    00000028     ti.net.cyassl.aem4f : internal.oem4f (.text:Sha256Rounds)
                  0001e21c    00000028                         : internal.oem4f (.text:ShaRounds)
                  0001e244    00000028     stk.aem4f : tcpin.oem4f (.text:TcpEnterTimeWait)
                  0001e26c    00000028               : vlan.oem4f (.text:VLANFindSourceInterface)
                  0001e294    00000028               : vlan.oem4f (.text:VLANInit)
                  0001e2bc    00000028               : lli.oem4f (.text:_LLIExpListRemove)
                  0001e2e4    00000028               : lli.oem4f (.text:_LLITimeoutFlush)
                  0001e30c    00000028               : rtable.oem4f (.text:_RtExpListRemove)
                  0001e334    00000028     nettool_ipv4.aem4f : dhcpsock.oem4f (.text:dhcpPacketReceive)
                  0001e35c    00000028     sysbios.aem4f : BIOS.obj (.text:ti_sysbios_hal_Hwi_Instance_init__E)
                  0001e384    00000026     ti.net.cyassl.aem4f : aes.oem4f (.text:AesSetIV)
                  0001e3aa    00000026                         : tls.oem4f (.text:CyaTLSv1_server_method)
                  0001e3d0    00000026     driverlib.lib : emac.obj (.text:EMACPHYRead)
                  0001e3f6    00000026                   : emac.obj (.text:EMACPHYWrite)
                  0001e41c    00000026     ti.net.cyassl.aem4f : asn.oem4f (.text:FreeSignerTable)
                  0001e442    00000026                         : internal.oem4f (.text:PadCheck)
                  0001e468    00000026     stk.aem4f : rawethsock.oem4f (.text:RawEthSockClose)
                  0001e48e    00000026               : route.oem4f (.text:RtSetTimeout)
                  0001e4b4    00000026     netctrl_min_ipv4.aem4f : netsrv.oem4f (.text:ServiceCallback)
                  0001e4da    00000026     ti.net.cyassl.aem4f : tfm.oem4f (.text:fp_count_bits)
                  0001e500    00000026                         : tfm.oem4f (.text:fp_reverse)
                  0001e526    00000026     rtsv7M4_T_le_v4SPD16_eabi.lib : strncmp.obj (.text)
                  0001e54c    00000026     tcpEcho_pem4f.oem4f (.text:ti_ndk_config_udp_init)
                  0001e572    00000026     sysbios.aem4f : m3_Hwi_asm.obj (.text:ti_sysbios_family_arm_m3_Hwi_pendSV__I)
                  0001e598    00000026     ti.targets.arm.rtsarm.aem4f : System.oem4f (.text:xdc_runtime_System_avprintf__E)
                  0001e5be    00000024     stk.aem4f : bind.oem4f (.text:BindGetIFByDBCast)
                  0001e5e2    00000024     ti.net.cyassl.aem4f : ssl.oem4f (.text:CyaSSL_negotiate)
                  0001e606    00000024                         : des3.oem4f (.text:Des3_SetIV)
                  0001e62a    00000002     --HOLE-- [fill = 0]
                  0001e62c    00000024     emac_tivaware.aem4f : EMACSnow.oem4f (.text:EMACSnow_emacPoll)
                  0001e650    00000024                         : EMACSnow.oem4f (.text:EMACSnow_primeRx)
                  0001e674    00000024     stk.aem4f : exec.oem4f (.text:ExecTimer)
                  0001e698    00000024     gpio_tivaware.aem4f : GPIO.oem4f (.text:GPIO_init)
                  0001e6bc    00000024     stk.aem4f : nimu.oem4f (.text:NIMUFindByIndex)
                  0001e6e0    00000024               : nimu.oem4f (.text:NIMUPacketService)
                  0001e704    00000024               : rawethsock_pcb.oem4f (.text:RawEthSockPcbFind)
                  0001e728    00000024               : route.oem4f (.text:RtFree)
                  0001e74c    00000024               : sockpcb.oem4f (.text:SockPcbCleanup)
                  0001e770    00000024               : tcpprot.oem4f (.text:TcpPrListen)
                  0001e794    00000024               : tcptime.oem4f (.text:TcpTimeoutWait2)
                  0001e7b8    00000024               : timer.oem4f (.text:TimerListRemove)
                  0001e7dc    00000024     nettool_ipv4.aem4f : config.oem4f (.text:_CfgEntryProcess)
                  0001e800    00000024     rtsv7M4_T_le_v4SPD16_eabi.lib : memmov.obj (.text)
                  0001e824    00000024     tcpEcho_pem4f.oem4f (.text:ti_sysbios_BIOS_errorRaiseHook__I)
                  0001e848    00000024     tcpEcho_pem4f.oem4f (.text:ti_sysbios_BIOS_registerRTSLock__I)
                  0001e86c    00000024     tcpEcho_pem4f.oem4f (.text:ti_sysbios_BIOS_removeRTSLock__I)
                  0001e890    00000024     tcpEcho_pem4f.oem4f (.text:ti_sysbios_BIOS_startFunc__I)
                  0001e8b4    00000024     sysbios.aem4f : BIOS.obj (.text:ti_sysbios_family_arm_m3_Hwi_doTaskRestore__I)
                  0001e8d8    00000024     tcpEcho_pem4f.oem4f (.text:ti_sysbios_gates_GateMutex_Object__delete__S)
                  0001e8fc    00000024     tcpEcho_pem4f.oem4f (.text:ti_sysbios_knl_Semaphore_Object__delete__S)
                  0001e920    00000024     sysbios.aem4f : BIOS.obj (.text:ti_sysbios_knl_Swi_Module_startup__E)
                  0001e944    00000024     ti.targets.arm.rtsarm.aem4f : System.oem4f (.text:xdc_runtime_System_vprintf__E)
                  0001e968    00000022     ti.net.cyassl.aem4f : internal.oem4f (.text:AddHeaders)
                  0001e98a    00000022     nettool_ipv4.aem4f : config.oem4f (.text:CfgEntryInfo)
                  0001e9ac    00000022                        : config.oem4f (.text:CfgEntryRef)
                  0001e9ce    00000022     ti.net.cyassl.aem4f : internal.oem4f (.text:CheckAvailableSize)
                  0001e9f0    00000022                         : random.oem4f (.text:RNG_GenerateBlock)
                  0001ea12    00000022     stk.aem4f : vlan.oem4f (.text:VLANFindNode)
                  0001ea34    00000022     ti.net.cyassl.aem4f : internal.oem4f (.text:VerifyClientSuite)
                  0001ea56    00000022     rtsv7M4_T_le_v4SPD16_eabi.lib : memcmp.obj (.text)
                  0001ea78    00000022     tcpEcho.obj (.text:setsockopt)
                  0001ea9a    00000022     tcpEcho_pem4f.oem4f (.text:xdc_runtime_SysMin_output__I)
                  0001eabc    00000020     stk.aem4f : bind.oem4f (.text:BindFindByHost)
                  0001eadc    00000020     ti.net.cyassl.aem4f : ssl.oem4f (.text:CyaSSL_GetMacSecret)
                  0001eafc    00000020                         : asn.oem4f (.text:FreeAltNames)
                  0001eb1c    00000020                         : asn.oem4f (.text:FreeNameSubtrees)
                  0001eb3c    00000020     netctrl_min_ipv4.aem4f : netctrl.oem4f (.text:NC_BootComplete)
                  0001eb5c    00000020     stk.aem4f : nimu.oem4f (.text:NIMUGetNumOfObject)
                  0001eb7c    00000020               : rtc.oem4f (.text:RTCAddHook)
                  0001eb9c    00000020               : rtc.oem4f (.text:RTCRemoveHook)
                  0001ebbc    00000020     ti.net.cyassl.aem4f : tfm.oem4f (.text:fp_set)
                  0001ebdc    00000020     tcpEcho_pem4f.oem4f (.text:ti_sysbios_family_arm_m3_Hwi_Object__delete__S)
                  0001ebfc    00000020     sysbios.aem4f : m3_Hwi_asm.obj (.text:ti_sysbios_family_arm_m3_Hwi_excHandlerAsm__I)
                  0001ec1c    00000020                   : BIOS.obj (.text:ti_sysbios_family_arm_m3_Hwi_excHandler__I)
                  0001ec3c    00000020     tcpEcho_pem4f.oem4f (.text:ti_sysbios_gates_GateHwi_Object__delete__S)
                  0001ec5c    00000020     tcpEcho_pem4f.oem4f (.text:ti_sysbios_hal_Hwi_Object__delete__S)
                  0001ec7c    00000020     tcpEcho_pem4f.oem4f (.text:ti_sysbios_heaps_HeapMem_Object__delete__S)
                  0001ec9c    00000020     sysbios.aem4f : BIOS.obj (.text:ti_sysbios_knl_Idle_run__E)
                  0001ecbc    00000020     tcpEcho_pem4f.oem4f (.text:ti_sysbios_knl_Semaphore_Object__destruct__S)
                  0001ecdc    00000020     tcpEcho_pem4f.oem4f (.text:ti_sysbios_knl_Swi_Object__delete__S)
                  0001ecfc    00000020     tcpEcho_pem4f.oem4f (.text:ti_sysbios_knl_Task_Object__delete__S)
                  0001ed1c    00000020     sysbios.aem4f : BIOS.obj (.text:ti_sysbios_knl_Task_enter__I)
                  0001ed3c    00000020                   : BIOS.obj (.text:ti_sysbios_knl_Task_sleepTimeout__I)
                  0001ed5c    00000020     ti.targets.arm.rtsarm.aem4f : Registry.oem4f (.text:xdc_runtime_Registry_findById__E)
                  0001ed7c    00000020                                 : SysMin.oem4f (.text:xdc_runtime_SysMin_Module_startup__E)
                  0001ed9c    0000001e     ti.net.cyassl.aem4f : aes.oem4f (.text:AesSetKey)
                  0001edba    0000001e                         : ssl.oem4f (.text:CyaSSL_CertManagerFree)
                  0001edd8    0000001e                         : ssl.oem4f (.text:CyaSSL_set_fd)
                  0001edf6    0000001e                         : ssl.oem4f (.text:CyaSSL_write)
                  0001ee14    0000001e                         : internal.oem4f (.text:IsAtLeastTLSv1_2)
                  0001ee32    0000001e     stk.aem4f : lli.oem4f (.text:LLIFree)
                  0001ee50    0000001e     ti.net.cyassl.aem4f : asn.oem4f (.text:MakeSigner)
                  0001ee6e    0000001e     stk.aem4f : fileuser.oem4f (.text:fdError)
                  0001ee8c    0000001e     ti.net.cyassl.aem4f : tfm.oem4f (.text:fp_unsigned_bin_size)
                  0001eeaa    0000001e     stk.aem4f : listlib.oem4f (.text:list_remove)
                  0001eec8    0000001e     sysbios.aem4f : m3_Hwi_asm_switch.obj (.text:ti_sysbios_family_xxx_Hwi_switchAndRunFunc)
                  0001eee6    0000001e     tcpEcho_pem4f.oem4f (.text:ti_sysbios_hal_Hwi_HwiProxy_create)
                  0001ef04    0000001c     ti.net.cyassl.aem4f : internal.oem4f (.text:AddRecordHeader)
                  0001ef20    0000001c     stk.aem4f : bind.oem4f (.text:BindFindByIF)
                  0001ef3c    0000001c     ti.net.cyassl.aem4f : aes.oem4f (.text:ByteReverseWords)
                  0001ef58    0000001c                         : sha.oem4f (.text:ByteReverseWords)
                  0001ef74    0000001c                         : sha256.oem4f (.text:ByteReverseWords)
                  0001ef90    0000001c     emac_tivaware.aem4f : EMACSnow.oem4f (.text:EMACSnow_init)
                  0001efac    0000001c     stk.aem4f : exec.oem4f (.text:ExecBroadcast)
                  0001efc8    0000001c               : exec.oem4f (.text:ExecClose)
                  0001efe4    0000001c     ti.net.cyassl.aem4f : internal.oem4f (.text:GetHandShakeHeader)
                  0001f000    0000001c                         : internal.oem4f (.text:GetSEQIncrement)
                  0001f01c    0000001c                         : tls.oem4f (.text:GetSEQIncrement)
                  0001f038    0000001c     os.aem4f : ossys.oem4f (.text:NDK_sprintf)
                  0001f054    0000001c     stk.aem4f : nimu.oem4f (.text:NIMUAddHeader)
                  0001f070    0000001c               : sockprot.oem4f (.text:SockPrDetach)
                  0001f08c    0000001c     os.aem4f : task.oem4f (.text:TaskDestroy)
                  0001f0a8    0000001c     stk.aem4f : tcp.oem4f (.text:TcpTimeoutRemove)
                  0001f0c4    0000001c     tcpEcho.obj (.text:exitApp)
                  0001f0e0    0000001c     tcpEcho_pem4f.oem4f (.text:ti_sysbios_BIOS_rtsLock__I)
                  0001f0fc    0000001c     sysbios.aem4f : BIOS.obj (.text:ti_sysbios_gates_GateMutex_Instance_init__E)
                  0001f118    0000001c     tcpEcho_pem4f.oem4f (.text:ti_sysbios_knl_Queue_Object__destruct__S)
                  0001f134    0000001c     ti.targets.arm.rtsarm.aem4f : Error.oem4f (.text:xdc_runtime_Error_raiseX__E)
                  0001f150    0000001c                                 : Memory.oem4f (.text:xdc_runtime_Memory_valloc__E)
                  0001f16c    0000001c                                 : SysMin.oem4f (.text:xdc_runtime_SysMin_exit__E)
                  0001f188    0000001c                                 : System.oem4f (.text:xdc_runtime_System_abort__E)
                  0001f1a4    0000001a     ti.net.cyassl.aem4f : ssl.oem4f (.text:CyaSSL_CTX_use_PrivateKey_buffer)
                  0001f1be    0000001a                         : internal.oem4f (.text:FreeSSL)
                  0001f1d8    0000001a                         : asn.oem4f (.text:GetExplicitVersion)
                  0001f1f2    0000001a                         : internal.oem4f (.text:InitCipherSpecs)
                  0001f20c    0000001a                         : internal.oem4f (.text:InitSSL_Method)
                  0001f226    0000001a                         : asn.oem4f (.text:SetDigest)
                  0001f240    0000001a     stk.aem4f : sockint.oem4f (.text:SockSetOOBMark)
                  0001f25a    0000001a               : file.oem4f (.text:fdint_getfdt)
                  0001f274    0000001a     ti.net.cyassl.aem4f : tls.oem4f (.text:get_xor)
                  0001f28e    0000001a     tcpEcho_pem4f.oem4f (.text:ti_sysbios_family_arm_m3_Hwi_Handle__label__S)
                  0001f2a8    0000001a     tcpEcho_pem4f.oem4f (.text:ti_sysbios_gates_GateHwi_Handle__label__S)
                  0001f2c2    0000001a     tcpEcho_pem4f.oem4f (.text:ti_sysbios_gates_GateMutex_Handle__label__S)
                  0001f2dc    0000001a     tcpEcho_pem4f.oem4f (.text:ti_sysbios_heaps_HeapMem_Handle__label__S)
                  0001f2f6    0000001a     tcpEcho_pem4f.oem4f (.text:ti_sysbios_knl_Swi_Handle__label__S)
                  0001f310    0000001a     tcpEcho_pem4f.oem4f (.text:ti_sysbios_knl_Task_Handle__label__S)
                  0001f32a    0000001a     tcpEcho_pem4f.oem4f (.text:xdc_runtime_System_aprintf__E)
                  0001f344    0000001a     tcpEcho_pem4f.oem4f (.text:xdc_runtime_System_printf__E)
                  0001f35e    00000002     --HOLE-- [fill = 0]
                  0001f360    00000018     ti.net.cyassl.aem4f : memory.oem4f (.text:CyaSSL_Free)
                  0001f378    00000018                         : memory.oem4f (.text:CyaSSL_Malloc)
                  0001f390    00000018     emac_tivaware.aem4f : EMACSnow.oem4f (.text:EMACSnow_emacSend)
                  0001f3a8    00000018     driverlib.lib : gpio.obj (.text:GPIOPinTypeGPIOOutput)
                  0001f3c0    00000018     stk.aem4f : ip.oem4f (.text:IPRtChange)
                  0001f3d8    00000018     ti.net.cyassl.aem4f : rsa.oem4f (.text:InitRsaKey)
                  0001f3f0    00000018                         : tls.oem4f (.text:MakeTLSv1)
                  0001f408    00000018     stk.aem4f : rawethsock_pcb.oem4f (.text:RawEthSockPcbCleanup)
                  0001f420    00000018     nettool_ipv4.aem4f : ipaddr.oem4f (.text:RouteHook)
                  0001f438    00000018     stk.aem4f : tcpin.oem4f (.text:SEQ_GEQ)
                  0001f450    00000018               : tcpout.oem4f (.text:SEQ_GEQ)
                  0001f468    00000018               : tcpin.oem4f (.text:SEQ_GT)
                  0001f480    00000018               : tcpout.oem4f (.text:SEQ_GT)
                  0001f498    00000018               : tcpin.oem4f (.text:SEQ_LEQ)
                  0001f4b0    00000018               : tcpout.oem4f (.text:SEQ_LEQ)
                  0001f4c8    00000018               : tcpin.oem4f (.text:SEQ_LT)
                  0001f4e0    00000018               : tcpout.oem4f (.text:SEQ_LT)
                  0001f4f8    00000018               : tcp.oem4f (.text:TcpTimeoutAdd)
                  0001f510    00000018     ti.net.cyassl.aem4f : aes.oem4f (.text:XorWords)
                  0001f528    00000018                         : des3.oem4f (.text:XorWords)
                  0001f540    00000018     nettool_ipv4.aem4f : dhcpsock.oem4f (.text:dhcpSocketClose)
                  0001f558    00000018     tcpEcho_pem4f.oem4f (.text:free)
                  0001f570    00000018     stk.aem4f : listlib.oem4f (.text:list_add)
                  0001f588    00000018     rtsv7M4_T_le_v4SPD16_eabi.lib : args_main.obj (.text)
                  0001f5a0    00000018                                   : strcmp.obj (.text)
                  0001f5b8    00000018     tcpEcho_pem4f.oem4f (.text:ti_sysbios_BIOS_rtsUnlock__I)
                  0001f5d0    00000018     tcpEcho_pem4f.oem4f (.text:ti_sysbios_family_arm_lm4_Timer_Module__startupDone__F)
                  0001f5e8    00000018     tcpEcho_pem4f.oem4f (.text:ti_sysbios_family_arm_m3_Hwi_Module__startupDone__F)
                  0001f600    00000018     sysbios.aem4f : m3_TaskSupport_asm.obj (.text:ti_sysbios_family_arm_m3_TaskSupport_swap__E)
                  0001f618    00000018                   : BIOS.obj (.text:ti_sysbios_gates_GateMutex_leave__E)
                  0001f630    00000018                   : BIOS.obj (.text:ti_sysbios_knl_Semaphore_reset__E)
                  0001f648    00000018     nettool_ipv4.aem4f : mytime.oem4f (.text:tick)
                  0001f660    00000018     ti.targets.arm.rtsarm.aem4f : Error.oem4f (.text:xdc_runtime_Error_check__E)
                  0001f678    00000018                                 : System.oem4f (.text:xdc_runtime_System_exit__E)
                  0001f690    00000018                                 : Text.oem4f (.text:xdc_runtime_Text_ropeText__E)
                  0001f6a8    00000016     stk.aem4f : bind.oem4f (.text:BindGetIP)
                  0001f6be    00000016     ti.net.cyassl.aem4f : asn.oem4f (.text:BytePrecision)
                  0001f6d4    00000016                         : aes.oem4f (.text:ByteReverseWord32)
                  0001f6ea    00000016                         : des3.oem4f (.text:ByteReverseWord32)
                  0001f700    00000016                         : sha.oem4f (.text:ByteReverseWord32)
                  0001f716    00000016                         : sha256.oem4f (.text:ByteReverseWord32)
                  0001f72c    00000016     driverlib.lib : emac.obj (.text:EMACReset)
                  0001f742    00000016                   : emac.obj (.text:EMACRxEnable)
                  0001f758    00000016                   : emac.obj (.text:EMACTxEnable)
                  0001f76e    00000016     ti.net.cyassl.aem4f : internal.oem4f (.text:InitCiphers)
                  0001f784    00000016                         : ssl.oem4f (.text:MakeWordFromHash)
                  0001f79a    00000016     stk.aem4f : file.oem4f (.text:fdint_freefdt)
                  0001f7b0    00000016     tcpEcho_pem4f.oem4f (.text:ti_sysbios_BIOS_exitFunc__I)
                  0001f7c6    00000016     tcpEcho.obj (.text:ti_sysbios_knl_Task_Params_init)
                  0001f7dc    00000016     ti.targets.arm.rtsarm.aem4f : System.oem4f (.text:xdc_runtime_System_vsprintf__E)
                  0001f7f2    00000014     stk.aem4f : bind.oem4f (.text:BindIPHost2IF)
                  0001f806    00000014     ti.net.cyassl.aem4f : ssl.oem4f (.text:CyaSSL_CTX_use_certificate_buffer)
                  0001f81a    00000002     --HOLE-- [fill = 0]
                  0001f81c    00000014     driverlib.lib : flash.obj (.text:FlashUserGet)
                  0001f830    00000014     ti.net.cyassl.aem4f : internal.oem4f (.text:IsTLS)
                  0001f844    00000014     netctrl_min_ipv4.aem4f : netctrl.oem4f (.text:NC_NetStop)
                  0001f858    00000014     os.aem4f : task.oem4f (.text:NDK_hookExit)
                  0001f86c    00000014     stk.aem4f : nimu.oem4f (.text:NIMUSendPacket)
                  0001f880    00000014     nettool_ipv4.aem4f : ipaddr.oem4f (.text:NtRemoveNetwork)
                  0001f894    00000014     stk.aem4f : rawethsock_pcb.oem4f (.text:RawEthSockPcbInit)
                  0001f8a8    00000014               : timer.oem4f (.text:TimerFree)
                  0001f8bc    00000014     tcpEcho.obj (.text:accept)
                  0001f8d0    00000014     tcpEcho.obj (.text:bind)
                  0001f8e4    00000014     rtsv7M4_T_le_v4SPD16_eabi.lib : _lock.obj (.text)
                  0001f8f8    00000014                                   : strlen.obj (.text)
                  0001f90c    00000014     tcpEcho.obj (.text:socket)
                  0001f920    00000014     tcpEcho_pem4f.oem4f (.text:ti_sysbios_family_arm_m3_Hwi_Object__get__S)
                  0001f934    00000014     sysbios.aem4f : BIOS.obj (.text:ti_sysbios_family_arm_m3_Hwi_disableFxn__E)
                  0001f948    00000014                   : BIOS.obj (.text:ti_sysbios_family_arm_m3_Hwi_switchFromBootStack__E)
                  0001f95c    00000014                   : BIOS.obj (.text:ti_sysbios_gates_GateHwi_enter__E)
                  0001f970    00000014     tcpEcho_pem4f.oem4f (.text:ti_sysbios_heaps_HeapMem_Object__get__S)
                  0001f984    00000014     tcpEcho_pem4f.oem4f (.text:ti_sysbios_knl_Swi_Object__get__S)
                  0001f998    00000014     tcpEcho_pem4f.oem4f (.text:ti_sysbios_knl_Task_Object__first__S)
                  0001f9ac    00000014     tcpEcho_pem4f.oem4f (.text:ti_sysbios_knl_Task_Object__next__S)
                  0001f9c0    00000012     ti.net.cyassl.aem4f : md5.oem4f (.text:AddLength)
                  0001f9d2    00000012                         : sha.oem4f (.text:AddLength)
                  0001f9e4    00000012                         : sha256.oem4f (.text:AddLength)
                  0001f9f6    00000012     driverlib.lib : gpio.obj (.text:GPIOPinTypeEthernetLED)
                  0001fa08    00000012                   : gpio.obj (.text:GPIOPinTypeGPIOInput)
                  0001fa1a    00000012     ti.net.cyassl.aem4f : ssl.oem4f (.text:HashSigner)
                  0001fa2c    00000012                         : asn.oem4f (.text:SetSequence)
                  0001fa3e    00000012     stk.aem4f : sockprot.oem4f (.text:SockPrAttach)
                  0001fa50    00000012               : sockint.oem4f (.text:SockSetOOBData)
                  0001fa62    00000012     ti.net.cyassl.aem4f : internal.oem4f (.text:c24to32)
                  0001fa74    00000012     rtsv7M4_T_le_v4SPD16_eabi.lib : copy_zero_init.obj (.text:decompress:ZI)
                  0001fa86    00000012     ti.net.cyassl.aem4f : tfm.oem4f (.text:mp_init)
                  0001fa98    00000012     sysbios.aem4f : BIOS.obj (.text:ti_sysbios_hal_Hwi_Module_startup__E)
                  0001faaa    00000012     tcpEcho_pem4f.oem4f (.text:xdc_runtime_Startup_exec__I)
                  0001fabc    00000010     tcpEcho_pem4f.oem4f (.text:.bootCodeSection:ti_catalog_arm_cortexm4_tiva_ce_Boot_init__I)
                  0001facc    00000010     stk.aem4f : bind.oem4f (.text:BindIF2IPHost)
                  0001fadc    00000010               : bind.oem4f (.text:BindIFNet2IPHost)
                  0001faec    00000010     driverlib.lib : emac.obj (.text:EMACFrameFilterSet)
                  0001fafc    00000010     stk.aem4f : exec.oem4f (.text:ExecHRef)
                  0001fb0c    00000010     ti.net.cyassl.aem4f : wc_port.oem4f (.text:LockMutex)
                  0001fb1c    00000010     netctrl_min_ipv4.aem4f : netctrl.oem4f (.text:NC_IPUpdate)
                  0001fb2c    00000010     stk.aem4f : nimu.oem4f (.text:NIMUGetRsvdSizeInfo)
                  0001fb3c    00000010     ti.net.cyassl.aem4f : internal.oem4f (.text:c32toa)
                  0001fb4c    00000010                         : tls.oem4f (.text:c32toa)
                  0001fb5c    00000010     tcpEcho.obj (.text:listen)
                  0001fb6c    00000010     rtsv7M4_T_le_v4SPD16_eabi.lib : strcpy.obj (.text)
                  0001fb7c    00000010     sysbios.aem4f : BIOS.obj (.text:ti_sysbios_BIOS_exit__E)
                  0001fb8c    00000010                   : BIOS.obj (.text:ti_sysbios_BIOS_getCpuFreq__E)
                  0001fb9c    00000010                   : BIOS.obj (.text:ti_sysbios_BIOS_setThreadType__E)
                  0001fbac    00000010                   : BIOS.obj (.text:ti_sysbios_BIOS_start__E)
                  0001fbbc    00000010                   : BIOS.obj (.text:ti_sysbios_family_arm_lm4_TimestampProvider_rolloverFunc__E)
                  0001fbcc    00000010                   : m3_TaskSupport_asm.obj (.text:ti_sysbios_family_arm_m3_TaskSupport_glue)
                  0001fbdc    00000010                   : BIOS.obj (.text:ti_sysbios_gates_GateMutex_Instance_finalize__E)
                  0001fbec    00000010     tcpEcho_pem4f.oem4f (.text:ti_sysbios_hal_Hwi_HwiProxy_Object__create__S)
                  0001fbfc    00000010     sysbios.aem4f : BIOS.obj (.text:ti_sysbios_knl_Semaphore_Instance_finalize__E)
                  0001fc0c    00000010                   : BIOS.obj (.text:ti_sysbios_knl_Swi_disable__E)
                  0001fc1c    00000010     tcpEcho_pem4f.oem4f (.text:ti_sysbios_knl_Task_Object__get__S)
                  0001fc2c    00000010     sysbios.aem4f : BIOS.obj (.text:ti_sysbios_knl_Task_disable__E)
                  0001fc3c    00000010     ti.targets.arm.rtsarm.aem4f : Gate.oem4f (.text:xdc_runtime_Gate_leaveSystem__E)
                  0001fc4c    00000010                                 : Memory.oem4f (.text:xdc_runtime_Memory_free__E)
                  0001fc5c    00000010                                 : SysMin.oem4f (.text:xdc_runtime_SysMin_ready__E)
                  0001fc6c    00000010                                 : System.oem4f (.text:xdc_runtime_System_vsnprintf__E)
                  0001fc7c    00000010     tcpEcho_pem4f.oem4f (.text:xdc_runtime_Text_visitRope__I)
                  0001fc8c    0000000e     ti.net.cyassl.aem4f : internal.oem4f (.text:CompressRounds)
                  0001fc9a    0000000e     emac_tivaware.aem4f : EMACSnow.oem4f (.text:EMACSnow_emacioctl)
                  0001fca8    0000000e     stk.aem4f : exec.oem4f (.text:ExecLowResource)
                  0001fcb6    0000000e     ti.net.cyassl.aem4f : keys.oem4f (.text:MakeMasterSecret)
                  0001fcc4    0000000e                         : asn.oem4f (.text:XTIME)
                  0001fcd2    0000000e     rtsv7M4_T_le_v4SPD16_eabi.lib : copy_decompress_none.obj (.text:decompress:none)
                  0001fce0    0000000e     sysbios.aem4f : BIOS.obj (.text:ti_sysbios_knl_Queue_empty__E)
                  0001fcee    0000000c     ti.net.cyassl.aem4f : internal.oem4f (.text:AddHandShakeHeader)
                  0001fcfa    00000002     --HOLE-- [fill = 0]
                  0001fcfc    0000000c     stk.aem4f : bind.oem4f (.text:BindGetFirst)
                  0001fd08    0000000c     nettool_ipv4.aem4f : config.oem4f (.text:CfgSetDefault)
                  0001fd14    0000000c                        : mytime.oem4f (.text:MYTIME_gettime)
                  0001fd20    0000000c                        : mytime.oem4f (.text:MYTIME_settime)
                  0001fd2c    0000000c     os.aem4f : task.oem4f (.text:NDK_hookInit)
                  0001fd38    0000000c     stk.aem4f : nimu.oem4f (.text:NIMUSetRsvdSizeInfo)
                  0001fd44    0000000c     os.aem4f : task.oem4f (.text:NotifyLowResource)
                  0001fd50    0000000c     stk.aem4f : pbm.oem4f (.text:PBM_close)
                  0001fd5c    0000000c     os.aem4f : semaphore.oem4f (.text:SemDelete)
                  0001fd68    0000000c     ti.net.cyassl.aem4f : wc_port.oem4f (.text:UnLockMutex)
                  0001fd74    0000000c     hal_timer_bios.aem4f : lltimer.oem4f (.text:_llTimerShutdown)
                  0001fd80    0000000c     ti.net.cyassl.aem4f : internal.oem4f (.text:ato16)
                  0001fd8c    0000000c                         : internal.oem4f (.text:c32to24)
                  0001fd98    0000000c     hal_timer_bios.aem4f : lltimer.oem4f (.text:llTimerGetStartTime)
                  0001fda4    0000000c     sysbios.aem4f : BIOS.obj (.text:ti_sysbios_family_arm_lm4_Timer_getMaxTicks__E)
                  0001fdb0    0000000c                   : BIOS.obj (.text:ti_sysbios_family_arm_lm4_TimestampProvider_startTimer__E)
                  0001fdbc    0000000c                   : BIOS.obj (.text:ti_sysbios_family_arm_m3_TaskSupport_checkStack__E)
                  0001fdc8    0000000c                   : BIOS.obj (.text:ti_sysbios_family_arm_m3_TaskSupport_getStackAlignment__E)
                  0001fdd4    0000000c     tcpEcho_pem4f.oem4f (.text:ti_sysbios_knl_Clock_Params__init__S)
                  0001fde0    0000000c     tcpEcho_pem4f.oem4f (.text:ti_sysbios_knl_Queue_Object__get__S)
                  0001fdec    0000000c     tcpEcho_pem4f.oem4f (.text:ti_sysbios_knl_Semaphore_Params__init__S)
                  0001fdf8    0000000c     tcpEcho_pem4f.oem4f (.text:ti_sysbios_knl_Task_Params__init__S)
                  0001fe04    0000000c     sysbios.aem4f : BIOS.obj (.text:ti_sysbios_knl_Task_self__E)
                  0001fe10    0000000c     ti.targets.arm.rtsarm.aem4f : Error.oem4f (.text:xdc_runtime_Error_init__E)
                  0001fe1c    0000000c                                 : Gate.oem4f (.text:xdc_runtime_Gate_enterSystem__E)
                  0001fe28    0000000c                                 : Memory.oem4f (.text:xdc_runtime_Memory_calloc__E)
                  0001fe34    0000000c                                 : Memory.oem4f (.text:xdc_runtime_Memory_getMaxDefaultTypeAlign__E)
                  0001fe40    0000000a     ti.net.cyassl.aem4f : asn.oem4f (.text:DateLessThan)
                  0001fe4a    0000000a                         : wc_port.oem4f (.text:FreeMutex)
                  0001fe54    0000000a                         : des3.oem4f (.text:Reverse)
                  0001fe5e    0000000a     stk.aem4f : file.oem4f (.text:fdint_signalevent)
                  0001fe68    0000000a               : file.oem4f (.text:fdint_signaltimeout)
                  0001fe72    0000000a     ti.net.cyassl.aem4f : tfm.oem4f (.text:mp_add)
                  0001fe7c    0000000a                         : tfm.oem4f (.text:mp_clear)
                  0001fe86    0000000a                         : tfm.oem4f (.text:mp_mul)
                  0001fe90    0000000a                         : tfm.oem4f (.text:mp_read_unsigned_bin)
                  0001fe9a    0000000a                         : tfm.oem4f (.text:mp_sub)
                  0001fea4    0000000a                         : tfm.oem4f (.text:mp_to_unsigned_bin)
                  0001feae    0000000a     sysbios.aem4f : BIOS.obj (.text:ti_sysbios_hal_Hwi_Instance_finalize__E)
                  0001feb8    0000000a     tcpEcho_pem4f.oem4f (.text:xdc_runtime_IHeap_alloc)
                  0001fec2    0000000a     tcpEcho_pem4f.oem4f (.text:xdc_runtime_IHeap_free)
                  0001fecc    00000008     ti.net.cyassl.aem4f : ssl.oem4f (.text:CyaSSL_CTX_free)
                  0001fed4    00000008                         : ssl.oem4f (.text:CyaSSL_free)
                  0001fedc    00000008     driverlib.lib : emac.obj (.text:EMACTxDMAPollDemand)
                  0001fee4    00000008     stk.aem4f : node.oem4f (.text:NodeFree)
                  0001feec    00000008     os.aem4f : task.oem4f (.text:TaskBlock)
                  0001fef4    00000008     ti.net.cyassl.aem4f : internal.oem4f (.text:c16toa)
                  0001fefc    00000008                         : tls.oem4f (.text:c16toa)
                  0001ff04    00000008                         : internal.oem4f (.text:min)
                  0001ff0c    00000008                         : md5.oem4f (.text:min)
                  0001ff14    00000008                         : sha.oem4f (.text:min)
                  0001ff1c    00000008                         : sha256.oem4f (.text:min)
                  0001ff24    00000008                         : ssl.oem4f (.text:min)
                  0001ff2c    00000008                         : tls.oem4f (.text:min)
                  0001ff34    00000008                         : aes.oem4f (.text:rotlFixed)
                  0001ff3c    00000008                         : des3.oem4f (.text:rotlFixed)
                  0001ff44    00000008                         : md5.oem4f (.text:rotlFixed)
                  0001ff4c    00000008                         : sha.oem4f (.text:rotlFixed)
                  0001ff54    00000008                         : sha256.oem4f (.text:rotlFixed)
                  0001ff5c    00000008     sysbios.aem4f : BIOS.obj (.text:ti_sysbios_family_arm_lm4_Timer_masterDisable__I)
                  0001ff64    00000008                   : BIOS.obj (.text:ti_sysbios_family_arm_m3_Hwi_doSwiRestore__I)
                  0001ff6c    00000008                   : BIOS.obj (.text:ti_sysbios_family_arm_m3_Hwi_startup__E)
                  0001ff74    00000008                   : BIOS.obj (.text:ti_sysbios_knl_Idle_loop__E)
                  0001ff7c    00000008                   : BIOS.obj (.text:ti_sysbios_knl_Task_getHookContext__E)
                  0001ff84    00000008                   : BIOS.obj (.text:ti_sysbios_knl_Task_setHookContext__E)
                  0001ff8c    00000006     ti.net.cyassl.aem4f : ssl.oem4f (.text:CyaSSL_dtls)
                  0001ff92    00000006                         : ssl.oem4f (.text:CyaSSL_get_fd)
                  0001ff98    00000006                         : ssl.oem4f (.text:CyaSSL_get_using_nonblock)
                  0001ff9e    00000006                         : ssl.oem4f (.text:CyaSSL_read)
                  0001ffa4    00000006     driverlib.lib : emac.obj (.text:EMACRxDMADescriptorListSet)
                  0001ffaa    00000006                   : emac.obj (.text:EMACTxDMADescriptorListSet)
                  0001ffb0    00000006                   : sysctl.obj (.text:SysCtlDelay)
                  0001ffb6    00000006     stk.aem4f : tcpprot.oem4f (.text:TcpPrRecv)
                  0001ffbc    00000006     ti.targets.arm.rtsarm.aem4f : xdc_noinit.oem4f (.text:__xdc__init)
                  0001ffc2    00000006     rtsv7M4_T_le_v4SPD16_eabi.lib : copy_decompress_rle.obj (.text:decompress:rle24)
                  0001ffc8    00000006     sysbios.aem4f : BIOS.obj (.text:ti_sysbios_family_arm_lm4_TimestampProvider_Module_startup__E)
                  0001ffce    00000006                   : BIOS.obj (.text:ti_sysbios_family_arm_m3_Hwi_restoreFxn__E)
                  0001ffd4    00000006                   : BIOS.obj (.text:ti_sysbios_gates_GateHwi_leave__E)
                  0001ffda    00000006                   : BIOS.obj (.text:ti_sysbios_heaps_HeapMem_isBlocking__E)
                  0001ffe0    00000006                   : BIOS.obj (.text:ti_sysbios_knl_Queue_Instance_init__E)
                  0001ffe6    00000006     ti.targets.arm.rtsarm.aem4f : System.oem4f (.text:xdc_runtime_System_Module_startup__E)
                  0001ffec    00000004     stk.aem4f : bind.oem4f (.text:BindGetIF)
                  0001fff0    00000004               : bind.oem4f (.text:BindGetNext)
                  0001fff4    00000004     ti.net.cyassl.aem4f : rsa.oem4f (.text:FreeRsaKey)
                  0001fff8    00000004                         : io.oem4f (.text:LastError)
                  0001fffc    00000004     os.aem4f : ossys.oem4f (.text:NDK_vsprintf)
                  00020000    00000004     stk.aem4f : node.oem4f (.text:NodeSetRt)
                  00020004    00000004               : rawethsock_prot.oem4f (.text:RawEthSockPrAttach)
                  00020008    00000004               : rawethsock_prot.oem4f (.text:RawEthSockPrDetach)
                  0002000c    00000004     ti.net.cyassl.aem4f : rsa.oem4f (.text:RsaEncryptSize)
                  00020010    00000004     os.aem4f : semaphore.oem4f (.text:SemPend)
                  00020014    00000004              : semaphore.oem4f (.text:SemPost)
                  00020018    00000004              : semaphore.oem4f (.text:SemReset)
                  0002001c    00000004              : task.oem4f (.text:TaskSelf)
                  00020020    00000004              : task.oem4f (.text:TaskSetPri)
                  00020024    00000004     hal_ser_stub.aem4f : llserstb.oem4f (.text:_llSerialInit)
                  00020028    00000004     ti.net.cyassl.aem4f : asn.oem4f (.text:btoi)
                  0002002c    00000004                         : tfm.oem4f (.text:fp_mul)
                  00020030    00000004                         : tfm.oem4f (.text:fp_sqr)
                  00020034    00000004     stk.aem4f : listlib.oem4f (.text:list_get_head)
                  00020038    00000004               : listlib.oem4f (.text:list_get_next)
                  0002003c    00000004     ti.net.cyassl.aem4f : des3.oem4f (.text:rotrFixed)
                  00020040    00000004                         : sha256.oem4f (.text:rotrFixed)
                  00020044    00000004     tcpEcho_pem4f.oem4f (.text:ti_sysbios_BIOS_RtsGateProxy_enter__E)
                  00020048    00000004     tcpEcho_pem4f.oem4f (.text:ti_sysbios_BIOS_RtsGateProxy_leave__E)
                  0002004c    00000004     sysbios.aem4f : BIOS.obj (.text:ti_sysbios_family_arm_lm4_Timer_getPeriod__E)
                  00020050    00000004                   : BIOS.obj (.text:ti_sysbios_family_arm_lm4_Timer_masterEnable__I)
                  00020054    00000004     tcpEcho_pem4f.oem4f (.text:ti_sysbios_family_arm_m3_TaskSupport_Module__startupDone__S)
                  00020058    00000004     sysbios.aem4f : BIOS.obj (.text:ti_sysbios_gates_GateHwi_query__E)
                  0002005c    00000004                   : BIOS.obj (.text:ti_sysbios_gates_GateMutex_query__E)
                  00020060    00000004     tcpEcho_pem4f.oem4f (.text:ti_sysbios_hal_Hwi_HwiProxy_Module__startupDone__S)
                  00020064    00000004     tcpEcho_pem4f.oem4f (.text:ti_sysbios_hal_Hwi_HwiProxy_Object__delete__S)
                  00020068    00000004     tcpEcho_pem4f.oem4f (.text:ti_sysbios_hal_Hwi_HwiProxy_delete)
                  0002006c    00000004     tcpEcho_pem4f.oem4f (.text:ti_sysbios_hal_Hwi_delete)
                  00020070    00000004     tcpEcho_pem4f.oem4f (.text:ti_sysbios_heaps_HeapMem_Module_GateProxy_enter__E)
                  00020074    00000004     tcpEcho_pem4f.oem4f (.text:ti_sysbios_heaps_HeapMem_Module_GateProxy_leave__E)
                  00020078    00000004     tcpEcho_pem4f.oem4f (.text:ti_sysbios_knl_Clock_TimerProxy_Module__startupDone__S)
                  0002007c    00000004     tcpEcho_pem4f.oem4f (.text:ti_sysbios_knl_Clock_TimerProxy_getCurrentTick__E)
                  00020080    00000004     tcpEcho_pem4f.oem4f (.text:ti_sysbios_knl_Clock_TimerProxy_getMaxTicks__E)
                  00020084    00000004     tcpEcho_pem4f.oem4f (.text:ti_sysbios_knl_Clock_TimerProxy_getPeriod__E)
                  00020088    00000004     tcpEcho_pem4f.oem4f (.text:ti_sysbios_knl_Clock_TimerProxy_setNextTick__E)
                  0002008c    00000004     tcpEcho_pem4f.oem4f (.text:ti_sysbios_knl_Queue_destruct)
                  00020090    00000004     tcpEcho_pem4f.oem4f (.text:ti_sysbios_knl_Semaphore_delete)
                  00020094    00000004     tcpEcho_pem4f.oem4f (.text:ti_sysbios_knl_Semaphore_destruct)
                  00020098    00000004     tcpEcho_pem4f.oem4f (.text:ti_sysbios_knl_Swi_delete)
                  0002009c    00000004     tcpEcho_pem4f.oem4f (.text:ti_sysbios_knl_Task_SupportProxy_Module__startupDone__S)
                  000200a0    00000004     tcpEcho_pem4f.oem4f (.text:ti_sysbios_knl_Task_delete)
                  000200a4    00000004     sysbios.aem4f : BIOS.obj (.text:ti_sysbios_knl_Task_startup__E)
                  000200a8    00000004     ti.targets.arm.rtsarm.aem4f : Error.oem4f (.text:xdc_runtime_Error_getMsg__E)
                  000200ac    00000004                                 : Error.oem4f (.text:xdc_runtime_Error_getSite__E)
                  000200b0    00000004     tcpEcho_pem4f.oem4f (.text:xdc_runtime_Memory_HeapProxy_alloc__E)
                  000200b4    00000004     tcpEcho_pem4f.oem4f (.text:xdc_runtime_Memory_HeapProxy_free__E)
                  000200b8    00000004     tcpEcho_pem4f.oem4f (.text:xdc_runtime_System_Module_GateProxy_enter__E)
                  000200bc    00000004     tcpEcho_pem4f.oem4f (.text:xdc_runtime_System_Module_GateProxy_leave__E)
                  000200c0    00000004     ti.targets.arm.rtsarm.aem4f : System.oem4f (.text:xdc_runtime_System_aprintf_va__F)
                  000200c4    00000004                                 : System.oem4f (.text:xdc_runtime_System_printf_va__F)

.const     0    000200c8    00006424     
                  000200c8    00001745     tcpEcho_pem4f.oem4f (.const:xdc_runtime_Text_charTab__A)
                  0002180d    00000001     tcpEcho_pem4f.oem4f (.const:ti_sysbios_knl_Clock_tickMode__C)
                  0002180e    00000002     tcpEcho_pem4f.oem4f (.const:ti_catalog_arm_cortexm4_tiva_ce_Boot_Module__id__C)
                  00021810    00001400     ti.net.cyassl.aem4f : aes.oem4f (.const:Td)
                  00022c10    00001400                         : aes.oem4f (.const:Te)
                  00024010    00000800                         : des3.oem4f (.const:Spbox)
                  00024810    000004a9     tcpEcho.obj (.const:.string:server_key_der_2048)
                  00024cb9    000004a2     tcpEcho.obj (.const:.string:ca_cert_der_2048)
                  0002515b    00000394     tcpEcho.obj (.const:.string:server_cert_der_2048)
                  000254ef    00000001     tcpEcho_pem4f.oem4f (.const:ti_sysbios_knl_Clock_tickSource__C)
                  000254f0    00000120     Boot.aem4f : Boot_sysctl.oem4f (.const:g_pppui32XTALtoVCO)
                  00025610    00000100     ti.net.cyassl.aem4f : sha256.oem4f (.const:K)
                  00025710    000000d8     tcpEcho_pem4f.oem4f (.const:xdc_runtime_Text_nodeTab__A)
                  000257e8    000000d0     tcpEcho_pem4f.oem4f (.const:.string)
                  000258b8    000000a2     ti.net.cyassl.aem4f : internal.oem4f (.const:.string)
                  0002595a    00000002     tcpEcho_pem4f.oem4f (.const:ti_sysbios_family_arm_lm4_TimestampProvider_useClockTimer__C)
                  0002595c    00000090     driverlib.lib : gpio.obj (.const:g_pui32GPIOBaseAddrs)
                  000259ec    0000008b     ti.net.cyassl.aem4f : asn.oem4f (.const:.string)
                  00025a77    00000001     tcpEcho_pem4f.oem4f (.const:xdc_runtime_Error_policy__C)
                  00025a78    0000006c     Boot.aem4f : Boot_sysctl.oem4f (.const:g_pui32Xtals)
                  00025ae4    00000060     ti.net.cyassl.aem4f : asn.oem4f (.const:_ytab$1)
                  00025b44    00000054     stk.aem4f : sockprot.oem4f (.const:Code2Err)
                  00025b98    00000050     ti.net.cyassl.aem4f : coding.oem4f (.const:.string:base64Decode)
                  00025be8    00000040                         : tls.oem4f (.const:.string)
                  00025c28    0000003d     stk.aem4f : rtc.oem4f (.const:.string)
                  00025c65    00000001     --HOLE-- [fill = 0]
                  00025c66    00000002     tcpEcho_pem4f.oem4f (.const:ti_sysbios_family_arm_m3_Hwi_Module__id__C)
                  00025c68    0000003c     tcpEcho_pem4f.oem4f (.const:ti_sysbios_knl_Task_Object__PARAMS__C)
                  00025ca4    00000038     ti.net.cyassl.aem4f : des3.oem4f (.const:.string:pc1)
                  00025cdc    00000038     EK_TM4C1294XL.obj (.const)
                  00025d14    00000030     ti.net.cyassl.aem4f : internal.oem4f (.const:.string:PAD1)
                  00025d44    00000030                         : internal.oem4f (.const:.string:PAD2)
                  00025d74    00000030                         : des3.oem4f (.const:.string:pc2)
                  00025da4    00000030     Boot.aem4f : Boot_sysctl.oem4f (.const:g_sXTALtoMEMTIM)
                  00025dd4    00000030     EK_TM4C1294XL.obj (.const:gpioHWAttrs)
                  00025e04    00000030     tcpEcho_pem4f.oem4f (.const:ti_sysbios_family_arm_m3_Hwi_Object__PARAMS__C)
                  00025e34    0000002c     tcpEcho_pem4f.oem4f (.const:ti_sysbios_hal_Hwi_Object__PARAMS__C)
                  00025e60    00000028     ti.net.cyassl.aem4f : ssl.oem4f (.const:.string)
                  00025e88    00000028                         : aes.oem4f (.const:rcon)
                  00025eb0    00000028     tcpEcho_pem4f.oem4f (.const:ti_sysbios_heaps_HeapMem_Module__FXNS__C)
                  00025ed8    00000028     tcpEcho_pem4f.oem4f (.const:ti_sysbios_knl_Swi_Object__PARAMS__C)
                  00025f00    00000024     tcpEcho_pem4f.oem4f (.const:ti_sysbios_gates_GateHwi_Module__FXNS__C)
                  00025f24    00000024     tcpEcho_pem4f.oem4f (.const:ti_sysbios_gates_GateMutex_Module__FXNS__C)
                  00025f48    00000024     tcpEcho_pem4f.oem4f (.const:ti_sysbios_heaps_HeapMem_Object__PARAMS__C)
                  00025f6c    00000024     tcpEcho_pem4f.oem4f (.const:ti_sysbios_knl_Clock_Object__PARAMS__C)
                  00025f90    00000024     tcpEcho_pem4f.oem4f (.const:ti_sysbios_knl_Semaphore_Object__PARAMS__C)
                  00025fb4    00000024     tcpEcho_pem4f.oem4f (.const:xdc_runtime_Startup_sfxnTab__A)
                  00025fd8    00000020     ti.net.cyassl.aem4f : des3.oem4f (.const)
                  00025ff8    00000020     tcpEcho_pem4f.oem4f (.const:ti_sysbios_family_arm_m3_Hwi_Object__DESC__C)
                  00026018    00000020     tcpEcho_pem4f.oem4f (.const:ti_sysbios_gates_GateHwi_Object__DESC__C)
                  00026038    00000020     tcpEcho_pem4f.oem4f (.const:ti_sysbios_gates_GateMutex_Object__DESC__C)
                  00026058    00000020     tcpEcho_pem4f.oem4f (.const:ti_sysbios_hal_Hwi_Object__DESC__C)
                  00026078    00000020     tcpEcho_pem4f.oem4f (.const:ti_sysbios_heaps_HeapMem_Object__DESC__C)
                  00026098    00000020     tcpEcho_pem4f.oem4f (.const:ti_sysbios_knl_Clock_Object__DESC__C)
                  000260b8    00000020     tcpEcho_pem4f.oem4f (.const:ti_sysbios_knl_Queue_Object__DESC__C)
                  000260d8    00000020     tcpEcho_pem4f.oem4f (.const:ti_sysbios_knl_Semaphore_Object__DESC__C)
                  000260f8    00000020     tcpEcho_pem4f.oem4f (.const:ti_sysbios_knl_Swi_Object__DESC__C)
                  00026118    00000020     tcpEcho_pem4f.oem4f (.const:ti_sysbios_knl_Task_Object__DESC__C)
                  00026138    00000018     driverlib.lib : emac.obj (.const)
                  00026150    00000018     tcpEcho_pem4f.oem4f (.const)
                  00026168    00000018     tcpEcho_pem4f.oem4f (.const:ti_sysbios_gates_GateHwi_Object__PARAMS__C)
                  00026180    00000018     tcpEcho_pem4f.oem4f (.const:ti_sysbios_gates_GateMutex_Object__PARAMS__C)
                  00026198    00000018     tcpEcho_pem4f.oem4f (.const:ti_sysbios_knl_Queue_Object__PARAMS__C)
                  000261b0    00000018     tcpEcho_pem4f.oem4f (.const:ti_sysbios_knl_Task_hooks__A)
                  000261c8    00000014     tcpEcho_pem4f.oem4f (.const:xdc_runtime_Startup_firstFxns__A)
                  000261dc    00000012     tcpEcho_pem4f.oem4f (.const:xdc_runtime_Startup_sfxnRts__A)
                  000261ee    00000011     ti.targets.arm.rtsarm.aem4f : System.oem4f (.const:.string)
                  000261ff    00000010     ti.net.cyassl.aem4f : des3.oem4f (.const:.string)
                  0002620f    00000001     --HOLE-- [fill = 0]
                  00026210    00000008     Boot.aem4f : Boot_sysctl.oem4f (.const)
                  00026218    00000008     emac_tivaware.aem4f : EMACSnow.oem4f (.const)
                  00026220    00000008     tcpEcho_pem4f.oem4f (.const:ti_sysbios_family_arm_m3_Hwi_excHookFuncs__A)
                  00026228    00000008     tcpEcho_pem4f.oem4f (.const:ti_sysbios_knl_Idle_funcList__A)
                  00026230    00000008     tcpEcho_pem4f.oem4f (.const:ti_sysbios_knl_Idle_funcList__C)
                  00026238    00000008     tcpEcho_pem4f.oem4f (.const:ti_sysbios_knl_Task_hooks__C)
                  00026240    00000008     tcpEcho_pem4f.oem4f (.const:xdc_runtime_Startup_firstFxns__C)
                  00026248    00000008     tcpEcho_pem4f.oem4f (.const:xdc_runtime_Startup_lastFxns__C)
                  00026250    00000004     tcpEcho_pem4f.oem4f (.const:ti_catalog_arm_cortexm4_tiva_ce_Boot_A_mustNotUseEnhancedClockMode__C)
                  00026254    00000004     tcpEcho_pem4f.oem4f (.const:ti_catalog_arm_cortexm4_tiva_ce_Boot_Module__diagsEnabled__C)
                  00026258    00000004     tcpEcho_pem4f.oem4f (.const:ti_catalog_arm_cortexm4_tiva_ce_Boot_Module__diagsIncluded__C)
                  0002625c    00000004     tcpEcho_pem4f.oem4f (.const:ti_catalog_arm_cortexm4_tiva_ce_Boot_Module__diagsMask__C)
                  00026260    00000004     tcpEcho_pem4f.oem4f (.const:ti_sysbios_family_arm_lm4_Timer_enableFunc__C)
                  00026264    00000004     tcpEcho_pem4f.oem4f (.const:ti_sysbios_family_arm_lm4_Timer_numTimerDevices__C)
                  00026268    00000004     tcpEcho_pem4f.oem4f (.const:ti_sysbios_family_arm_lm4_Timer_startupNeeded__C)
                  0002626c    00000004     tcpEcho_pem4f.oem4f (.const:ti_sysbios_family_arm_m3_Hwi_E_NMI__C)
                  00026270    00000004     tcpEcho_pem4f.oem4f (.const:ti_sysbios_family_arm_m3_Hwi_E_alreadyDefined__C)
                  00026274    00000004     tcpEcho_pem4f.oem4f (.const:ti_sysbios_family_arm_m3_Hwi_E_busFault__C)
                  00026278    00000004     tcpEcho_pem4f.oem4f (.const:ti_sysbios_family_arm_m3_Hwi_E_debugMon__C)
                  0002627c    00000004     tcpEcho_pem4f.oem4f (.const:ti_sysbios_family_arm_m3_Hwi_E_hardFault__C)
                  00026280    00000004     tcpEcho_pem4f.oem4f (.const:ti_sysbios_family_arm_m3_Hwi_E_hwiLimitExceeded__C)
                  00026284    00000004     tcpEcho_pem4f.oem4f (.const:ti_sysbios_family_arm_m3_Hwi_E_memFault__C)
                  00026288    00000004     tcpEcho_pem4f.oem4f (.const:ti_sysbios_family_arm_m3_Hwi_E_noIsr__C)
                  0002628c    00000004     tcpEcho_pem4f.oem4f (.const:ti_sysbios_family_arm_m3_Hwi_E_reserved__C)
                  00026290    00000004     tcpEcho_pem4f.oem4f (.const:ti_sysbios_family_arm_m3_Hwi_E_svCall__C)
                  00026294    00000004     tcpEcho_pem4f.oem4f (.const:ti_sysbios_family_arm_m3_Hwi_E_usageFault__C)
                  00026298    00000004     tcpEcho_pem4f.oem4f (.const:ti_sysbios_family_arm_m3_Hwi_LD_end__C)
                  0002629c    00000004     tcpEcho_pem4f.oem4f (.const:ti_sysbios_family_arm_m3_Hwi_LM_begin__C)
                  000262a0    00000004     tcpEcho_pem4f.oem4f (.const:ti_sysbios_family_arm_m3_Hwi_Module__diagsEnabled__C)
                  000262a4    00000004     tcpEcho_pem4f.oem4f (.const:ti_sysbios_family_arm_m3_Hwi_Module__diagsIncluded__C)
                  000262a8    00000004     tcpEcho_pem4f.oem4f (.const:ti_sysbios_family_arm_m3_Hwi_Module__diagsMask__C)
                  000262ac    00000004     tcpEcho_pem4f.oem4f (.const:ti_sysbios_family_arm_m3_Hwi_Module__loggerFxn1__C)
                  000262b0    00000004     tcpEcho_pem4f.oem4f (.const:ti_sysbios_family_arm_m3_Hwi_Module__loggerFxn8__C)
                  000262b4    00000004     tcpEcho_pem4f.oem4f (.const:ti_sysbios_family_arm_m3_Hwi_Module__loggerObj__C)
                  000262b8    00000004     tcpEcho_pem4f.oem4f (.const:ti_sysbios_family_arm_m3_Hwi_NUM_INTERRUPTS__C)
                  000262bc    00000004     tcpEcho_pem4f.oem4f (.const:ti_sysbios_family_arm_m3_Hwi_Object__count__C)
                  000262c0    00000004     tcpEcho_pem4f.oem4f (.const:ti_sysbios_family_arm_m3_Hwi_ccr__C)
                  000262c4    00000004     tcpEcho_pem4f.oem4f (.const:ti_sysbios_family_arm_m3_Hwi_disablePriority__C)
                  000262c8    00000004     tcpEcho_pem4f.oem4f (.const:ti_sysbios_family_arm_m3_Hwi_excHandlerFunc__C)
                  000262cc    00000004     tcpEcho_pem4f.oem4f (.const:ti_sysbios_family_arm_m3_Hwi_excHookFuncs__C)
                  000262d0    00000004     tcpEcho_pem4f.oem4f (.const:ti_sysbios_family_arm_m3_Hwi_nullIsrFunc__C)
                  000262d4    00000004     tcpEcho_pem4f.oem4f (.const:ti_sysbios_family_arm_m3_Hwi_numSparseInterrupts__C)
                  000262d8    00000004     tcpEcho_pem4f.oem4f (.const:ti_sysbios_family_arm_m3_Hwi_priGroup__C)
                  000262dc    00000004     tcpEcho_pem4f.oem4f (.const:ti_sysbios_family_arm_m3_TaskSupport_stackAlignment__C)
                  000262e0    00000004     tcpEcho_pem4f.oem4f (.const:ti_sysbios_gates_GateMutex_A_badContext__C)
                  000262e4    00000004     tcpEcho_pem4f.oem4f (.const:ti_sysbios_gates_GateMutex_Instance_State_sem__O)
                  000262e8    00000004     tcpEcho_pem4f.oem4f (.const:ti_sysbios_gates_GateMutex_Module__diagsEnabled__C)
                  000262ec    00000004     tcpEcho_pem4f.oem4f (.const:ti_sysbios_gates_GateMutex_Module__diagsIncluded__C)
                  000262f0    00000004     tcpEcho_pem4f.oem4f (.const:ti_sysbios_gates_GateMutex_Module__diagsMask__C)
                  000262f4    00000004     tcpEcho_pem4f.oem4f (.const:ti_sysbios_hal_Hwi_E_stackOverflow__C)
                  000262f8    00000004     tcpEcho_pem4f.oem4f (.const:ti_sysbios_heaps_HeapMem_A_align__C)
                  000262fc    00000004     tcpEcho_pem4f.oem4f (.const:ti_sysbios_heaps_HeapMem_A_heapSize__C)
                  00026300    00000004     tcpEcho_pem4f.oem4f (.const:ti_sysbios_heaps_HeapMem_A_invalidFree__C)
                  00026304    00000004     tcpEcho_pem4f.oem4f (.const:ti_sysbios_heaps_HeapMem_A_zeroBlock__C)
                  00026308    00000004     tcpEcho_pem4f.oem4f (.const:ti_sysbios_heaps_HeapMem_E_memory__C)
                  0002630c    00000004     tcpEcho_pem4f.oem4f (.const:ti_sysbios_heaps_HeapMem_Module__diagsEnabled__C)
                  00026310    00000004     tcpEcho_pem4f.oem4f (.const:ti_sysbios_heaps_HeapMem_Module__diagsIncluded__C)
                  00026314    00000004     tcpEcho_pem4f.oem4f (.const:ti_sysbios_heaps_HeapMem_Module__diagsMask__C)
                  00026318    00000004     tcpEcho_pem4f.oem4f (.const:ti_sysbios_heaps_HeapMem_Module__gateObj__C)
                  0002631c    00000004     tcpEcho_pem4f.oem4f (.const:ti_sysbios_heaps_HeapMem_Object__count__C)
                  00026320    00000004     tcpEcho_pem4f.oem4f (.const:ti_sysbios_heaps_HeapMem_reqAlign__C)
                  00026324    00000004     tcpEcho_pem4f.oem4f (.const:ti_sysbios_knl_Clock_A_badThreadType__C)
                  00026328    00000004     tcpEcho_pem4f.oem4f (.const:ti_sysbios_knl_Clock_LM_begin__C)
                  0002632c    00000004     tcpEcho_pem4f.oem4f (.const:ti_sysbios_knl_Clock_LM_tick__C)
                  00026330    00000004     tcpEcho_pem4f.oem4f (.const:ti_sysbios_knl_Clock_LW_delayed__C)
                  00026334    00000004     tcpEcho_pem4f.oem4f (.const:ti_sysbios_knl_Clock_Module_State_clockQ__O)
                  00026338    00000004     tcpEcho_pem4f.oem4f (.const:ti_sysbios_knl_Clock_Module__diagsEnabled__C)
                  0002633c    00000004     tcpEcho_pem4f.oem4f (.const:ti_sysbios_knl_Clock_Module__diagsIncluded__C)
                  00026340    00000004     tcpEcho_pem4f.oem4f (.const:ti_sysbios_knl_Clock_Module__diagsMask__C)
                  00026344    00000004     tcpEcho_pem4f.oem4f (.const:ti_sysbios_knl_Clock_Module__loggerFxn1__C)
                  00026348    00000004     tcpEcho_pem4f.oem4f (.const:ti_sysbios_knl_Clock_Module__loggerFxn2__C)
                  0002634c    00000004     tcpEcho_pem4f.oem4f (.const:ti_sysbios_knl_Clock_Module__loggerObj__C)
                  00026350    00000004     tcpEcho_pem4f.oem4f (.const:ti_sysbios_knl_Semaphore_A_badContext__C)
                  00026354    00000004     tcpEcho_pem4f.oem4f (.const:ti_sysbios_knl_Semaphore_A_noEvents__C)
                  00026358    00000004     tcpEcho_pem4f.oem4f (.const:ti_sysbios_knl_Semaphore_A_overflow__C)
                  0002635c    00000004     tcpEcho_pem4f.oem4f (.const:ti_sysbios_knl_Semaphore_A_pendTaskDisabled__C)
                  00026360    00000004     tcpEcho_pem4f.oem4f (.const:ti_sysbios_knl_Semaphore_Instance_State_pendQ__O)
                  00026364    00000004     tcpEcho_pem4f.oem4f (.const:ti_sysbios_knl_Semaphore_LM_pend__C)
                  00026368    00000004     tcpEcho_pem4f.oem4f (.const:ti_sysbios_knl_Semaphore_LM_post__C)
                  0002636c    00000004     tcpEcho_pem4f.oem4f (.const:ti_sysbios_knl_Semaphore_Module__diagsEnabled__C)
                  00026370    00000004     tcpEcho_pem4f.oem4f (.const:ti_sysbios_knl_Semaphore_Module__diagsIncluded__C)
                  00026374    00000004     tcpEcho_pem4f.oem4f (.const:ti_sysbios_knl_Semaphore_Module__diagsMask__C)
                  00026378    00000004     tcpEcho_pem4f.oem4f (.const:ti_sysbios_knl_Semaphore_Module__loggerFxn2__C)
                  0002637c    00000004     tcpEcho_pem4f.oem4f (.const:ti_sysbios_knl_Semaphore_Module__loggerFxn4__C)
                  00026380    00000004     tcpEcho_pem4f.oem4f (.const:ti_sysbios_knl_Semaphore_Module__loggerObj__C)
                  00026384    00000004     tcpEcho_pem4f.oem4f (.const:ti_sysbios_knl_Swi_A_badPriority__C)
                  00026388    00000004     tcpEcho_pem4f.oem4f (.const:ti_sysbios_knl_Swi_LD_end__C)
                  0002638c    00000004     tcpEcho_pem4f.oem4f (.const:ti_sysbios_knl_Swi_LM_begin__C)
                  00026390    00000004     tcpEcho_pem4f.oem4f (.const:ti_sysbios_knl_Swi_LM_post__C)
                  00026394    00000004     tcpEcho_pem4f.oem4f (.const:ti_sysbios_knl_Swi_Module__diagsEnabled__C)
                  00026398    00000004     tcpEcho_pem4f.oem4f (.const:ti_sysbios_knl_Swi_Module__diagsIncluded__C)
                  0002639c    00000004     tcpEcho_pem4f.oem4f (.const:ti_sysbios_knl_Swi_Module__diagsMask__C)
                  000263a0    00000004     tcpEcho_pem4f.oem4f (.const:ti_sysbios_knl_Swi_Module__loggerFxn1__C)
                  000263a4    00000004     tcpEcho_pem4f.oem4f (.const:ti_sysbios_knl_Swi_Module__loggerFxn4__C)
                  000263a8    00000004     tcpEcho_pem4f.oem4f (.const:ti_sysbios_knl_Swi_Module__loggerObj__C)
                  000263ac    00000004     tcpEcho_pem4f.oem4f (.const:ti_sysbios_knl_Swi_Object__count__C)
                  000263b0    00000004     tcpEcho_pem4f.oem4f (.const:ti_sysbios_knl_Swi_numPriorities__C)
                  000263b4    00000004     tcpEcho_pem4f.oem4f (.const:ti_sysbios_knl_Task_A_badPriority__C)
                  000263b8    00000004     tcpEcho_pem4f.oem4f (.const:ti_sysbios_knl_Task_A_badTaskState__C)
                  000263bc    00000004     tcpEcho_pem4f.oem4f (.const:ti_sysbios_knl_Task_A_badThreadType__C)
                  000263c0    00000004     tcpEcho_pem4f.oem4f (.const:ti_sysbios_knl_Task_A_badTimeout__C)
                  000263c4    00000004     tcpEcho_pem4f.oem4f (.const:ti_sysbios_knl_Task_A_noPendElem__C)
                  000263c8    00000004     tcpEcho_pem4f.oem4f (.const:ti_sysbios_knl_Task_A_sleepTaskDisabled__C)
                  000263cc    00000004     tcpEcho_pem4f.oem4f (.const:ti_sysbios_knl_Task_E_deleteNotAllowed__C)
                  000263d0    00000004     tcpEcho_pem4f.oem4f (.const:ti_sysbios_knl_Task_E_spOutOfBounds__C)
                  000263d4    00000004     tcpEcho_pem4f.oem4f (.const:ti_sysbios_knl_Task_E_stackOverflow__C)
                  000263d8    00000004     tcpEcho_pem4f.oem4f (.const:ti_sysbios_knl_Task_LD_block__C)
                  000263dc    00000004     tcpEcho_pem4f.oem4f (.const:ti_sysbios_knl_Task_LD_exit__C)
                  000263e0    00000004     tcpEcho_pem4f.oem4f (.const:ti_sysbios_knl_Task_LD_ready__C)
                  000263e4    00000004     tcpEcho_pem4f.oem4f (.const:ti_sysbios_knl_Task_LM_setPri__C)
                  000263e8    00000004     tcpEcho_pem4f.oem4f (.const:ti_sysbios_knl_Task_LM_sleep__C)
                  000263ec    00000004     tcpEcho_pem4f.oem4f (.const:ti_sysbios_knl_Task_LM_switch__C)
                  000263f0    00000004     tcpEcho_pem4f.oem4f (.const:ti_sysbios_knl_Task_Module_State_inactiveQ__O)
                  000263f4    00000004     tcpEcho_pem4f.oem4f (.const:ti_sysbios_knl_Task_Module_State_terminatedQ__O)
                  000263f8    00000004     tcpEcho_pem4f.oem4f (.const:ti_sysbios_knl_Task_Module__diagsEnabled__C)
                  000263fc    00000004     tcpEcho_pem4f.oem4f (.const:ti_sysbios_knl_Task_Module__diagsIncluded__C)
                  00026400    00000004     tcpEcho_pem4f.oem4f (.const:ti_sysbios_knl_Task_Module__diagsMask__C)
                  00026404    00000004     tcpEcho_pem4f.oem4f (.const:ti_sysbios_knl_Task_Module__loggerFxn2__C)
                  00026408    00000004     tcpEcho_pem4f.oem4f (.const:ti_sysbios_knl_Task_Module__loggerFxn4__C)
                  0002640c    00000004     tcpEcho_pem4f.oem4f (.const:ti_sysbios_knl_Task_Module__loggerObj__C)
                  00026410    00000004     tcpEcho_pem4f.oem4f (.const:ti_sysbios_knl_Task_Object__count__C)
                  00026414    00000004     tcpEcho_pem4f.oem4f (.const:ti_sysbios_knl_Task_Object__heap__C)
                  00026418    00000004     tcpEcho_pem4f.oem4f (.const:ti_sysbios_knl_Task_allBlockedFunc__C)
                  0002641c    00000004     tcpEcho_pem4f.oem4f (.const:ti_sysbios_knl_Task_defaultStackHeap__C)
                  00026420    00000004     tcpEcho_pem4f.oem4f (.const:ti_sysbios_knl_Task_defaultStackSize__C)
                  00026424    00000004     tcpEcho_pem4f.oem4f (.const:ti_sysbios_knl_Task_numConstructedTasks__C)
                  00026428    00000004     tcpEcho_pem4f.oem4f (.const:ti_sysbios_knl_Task_numPriorities__C)
                  0002642c    00000004     tcpEcho_pem4f.oem4f (.const:xdc_runtime_Assert_E_assertFailed__C)
                  00026430    00000004     tcpEcho_pem4f.oem4f (.const:xdc_runtime_Core_A_initializedParams__C)
                  00026434    00000004     tcpEcho_pem4f.oem4f (.const:xdc_runtime_Core_Module__diagsEnabled__C)
                  00026438    00000004     tcpEcho_pem4f.oem4f (.const:xdc_runtime_Core_Module__diagsIncluded__C)
                  0002643c    00000004     tcpEcho_pem4f.oem4f (.const:xdc_runtime_Core_Module__diagsMask__C)
                  00026440    00000004     tcpEcho_pem4f.oem4f (.const:xdc_runtime_Error_E_memory__C)
                  00026444    00000004     tcpEcho_pem4f.oem4f (.const:xdc_runtime_Error_Module__diagsEnabled__C)
                  00026448    00000004     tcpEcho_pem4f.oem4f (.const:xdc_runtime_Error_Module__diagsIncluded__C)
                  0002644c    00000004     tcpEcho_pem4f.oem4f (.const:xdc_runtime_Error_Module__diagsMask__C)
                  00026450    00000004     tcpEcho_pem4f.oem4f (.const:xdc_runtime_Error_Module__loggerFxn8__C)
                  00026454    00000004     tcpEcho_pem4f.oem4f (.const:xdc_runtime_Error_Module__loggerObj__C)
                  00026458    00000004     tcpEcho_pem4f.oem4f (.const:xdc_runtime_Error_policyFxn__C)
                  0002645c    00000004     tcpEcho_pem4f.oem4f (.const:xdc_runtime_Error_raiseHook__C)
                  00026460    00000004     tcpEcho_pem4f.oem4f (.const:xdc_runtime_IGateProvider_Interface__BASE__C)
                  00026464    00000004     tcpEcho_pem4f.oem4f (.const:xdc_runtime_IHeap_Interface__BASE__C)
                  00026468    00000004     tcpEcho_pem4f.oem4f (.const:xdc_runtime_IModule_Interface__BASE__C)
                  0002646c    00000004     tcpEcho_pem4f.oem4f (.const:xdc_runtime_Log_L_error__C)
                  00026470    00000004     tcpEcho_pem4f.oem4f (.const:xdc_runtime_Memory_defaultHeapInstance__C)
                  00026474    00000004     tcpEcho_pem4f.oem4f (.const:xdc_runtime_Startup_execImpl__C)
                  00026478    00000004     tcpEcho_pem4f.oem4f (.const:xdc_runtime_Startup_lastFxns__A)
                  0002647c    00000004     tcpEcho_pem4f.oem4f (.const:xdc_runtime_Startup_maxPasses__C)
                  00026480    00000004     tcpEcho_pem4f.oem4f (.const:xdc_runtime_Startup_sfxnRts__C)
                  00026484    00000004     tcpEcho_pem4f.oem4f (.const:xdc_runtime_Startup_sfxnTab__C)
                  00026488    00000004     tcpEcho_pem4f.oem4f (.const:xdc_runtime_SysMin_bufSize__C)
                  0002648c    00000004     tcpEcho_pem4f.oem4f (.const:xdc_runtime_SysMin_outputFunc__C)
                  00026490    00000004     tcpEcho_pem4f.oem4f (.const:xdc_runtime_System_Module__gateObj__C)
                  00026494    00000004     tcpEcho_pem4f.oem4f (.const:xdc_runtime_System_abortFxn__C)
                  00026498    00000004     tcpEcho_pem4f.oem4f (.const:xdc_runtime_System_exitFxn__C)
                  0002649c    00000004     tcpEcho_pem4f.oem4f (.const:xdc_runtime_System_extendFxn__C)
                  000264a0    00000004     tcpEcho_pem4f.oem4f (.const:xdc_runtime_System_maxAtexitHandlers__C)
                  000264a4    00000004     tcpEcho_pem4f.oem4f (.const:xdc_runtime_Text_charTab__C)
                  000264a8    00000004     tcpEcho_pem4f.oem4f (.const:xdc_runtime_Text_nameEmpty__C)
                  000264ac    00000004     tcpEcho_pem4f.oem4f (.const:xdc_runtime_Text_nameStatic__C)
                  000264b0    00000004     tcpEcho_pem4f.oem4f (.const:xdc_runtime_Text_nameUnknown__C)
                  000264b4    00000004     tcpEcho_pem4f.oem4f (.const:xdc_runtime_Text_nodeTab__C)
                  000264b8    00000004     tcpEcho_pem4f.oem4f (.const:xdc_runtime_Text_visitRopeFxn__C)
                  000264bc    00000002     tcpEcho_pem4f.oem4f (.const:ti_sysbios_family_arm_m3_Hwi_Module__loggerDefined__C)
                  000264be    00000002     tcpEcho_pem4f.oem4f (.const:ti_sysbios_gates_GateMutex_Module__id__C)
                  000264c0    00000002     tcpEcho_pem4f.oem4f (.const:ti_sysbios_hal_Hwi_Module__id__C)
                  000264c2    00000002     tcpEcho_pem4f.oem4f (.const:ti_sysbios_heaps_HeapMem_Module__id__C)
                  000264c4    00000002     tcpEcho_pem4f.oem4f (.const:ti_sysbios_knl_Clock_Module__id__C)
                  000264c6    00000002     tcpEcho_pem4f.oem4f (.const:ti_sysbios_knl_Clock_Module__loggerDefined__C)
                  000264c8    00000002     tcpEcho_pem4f.oem4f (.const:ti_sysbios_knl_Semaphore_Module__id__C)
                  000264ca    00000002     tcpEcho_pem4f.oem4f (.const:ti_sysbios_knl_Semaphore_Module__loggerDefined__C)
                  000264cc    00000002     tcpEcho_pem4f.oem4f (.const:ti_sysbios_knl_Swi_Module__id__C)
                  000264ce    00000002     tcpEcho_pem4f.oem4f (.const:ti_sysbios_knl_Swi_Module__loggerDefined__C)
                  000264d0    00000002     tcpEcho_pem4f.oem4f (.const:ti_sysbios_knl_Task_Module__id__C)
                  000264d2    00000002     tcpEcho_pem4f.oem4f (.const:ti_sysbios_knl_Task_Module__loggerDefined__C)
                  000264d4    00000002     tcpEcho_pem4f.oem4f (.const:ti_sysbios_knl_Task_checkStackFlag__C)
                  000264d6    00000002     tcpEcho_pem4f.oem4f (.const:ti_sysbios_knl_Task_deleteTerminatedTasks__C)
                  000264d8    00000002     tcpEcho_pem4f.oem4f (.const:ti_sysbios_knl_Task_initStackFlag__C)
                  000264da    00000002     tcpEcho_pem4f.oem4f (.const:xdc_runtime_Core_Module__id__C)
                  000264dc    00000002     tcpEcho_pem4f.oem4f (.const:xdc_runtime_Error_Module__loggerDefined__C)
                  000264de    00000002     tcpEcho_pem4f.oem4f (.const:xdc_runtime_Error_maxDepth__C)
                  000264e0    00000002     tcpEcho_pem4f.oem4f (.const:xdc_runtime_Memory_Module__id__C)
                  000264e2    00000002     tcpEcho_pem4f.oem4f (.const:xdc_runtime_SysMin_flushAtExit__C)
                  000264e4    00000002     tcpEcho_pem4f.oem4f (.const:xdc_runtime_Text_charCnt__C)
                  000264e6    00000002     tcpEcho_pem4f.oem4f (.const:xdc_runtime_Text_isLoaded__C)
                  000264e8    00000002     tcpEcho_pem4f.oem4f (.const:xdc_runtime_Text_registryModsLastId__C)
                  000264ea    00000002     tcpEcho_pem4f.oem4f (.const:xdc_runtime_Text_unnamedModsLastId__C)

.cinit     0    000264f0    00000630     
                  000264f0    000005fa     (.cinit..data.load) [load image, compression = rle]
                  00026aea    00000002     --HOLE-- [fill = 0]
                  00026aec    0000000c     (__TI_handler_table)
                  00026af8    00000008     (.cinit..bss.load) [load image, compression = zero_init]
                  00026b00    00000008     (.cinit..vecs.load) [load image, compression = zero_init]
                  00026b08    00000018     (__TI_cinit_table)

.vecs      0    20000000    00000360     UNINITIALIZED
                  20000000    00000360     tcpEcho_pem4f.oem4f (.vecs)

.bss       0    20000380    00023308     UNINITIALIZED
                  20000380    000186a0     tcpEcho_pem4f.oem4f (.bss:ti_sysbios_heaps_HeapMem_Instance_State_0_buf__A)
                  20018a20    000048a8     tcpEcho_pem4f.oem4f (.bss:NDK_MMBUFFER)
                  2001d2c8    0000002c     ti.net.cyassl.aem4f : asn.oem4f (.bss:st_time$2)
                  2001d2f4    0000000c     stk.aem4f : pbm.oem4f (.bss)
                  2001d300    00003ef8     tcpEcho_pem4f.oem4f (.bss:NDK_PACKETMEM)
                  200211f8    00000ec8     ti.net.cyassl.aem4f : ssl.oem4f (.bss:SessionCache)
                  200220c0    00000900     tcpEcho_pem4f.oem4f (.bss:taskStackSection)
                  200229c0    00000360     tcpEcho_pem4f.oem4f (.bss:ti_sysbios_family_arm_m3_Hwi_dispatchTable)
                  20022d20    00000120     rtsv7M4_T_le_v4SPD16_eabi.lib : trgmsg.obj (.bss:__CIOBUF_)
                  20022e40    00000100     stk.aem4f : igmp.oem4f (.bss:igmp)
                  20022f40    000000dc     ti.net.cyassl.aem4f : ssl.oem4f (.bss:ClientCache)
                  2002301c    000000b8     stk.aem4f : tcp.oem4f (.bss:tcps)
                  200230d4    000000b4     netctrl_min_ipv4.aem4f : netsrv.oem4f (.bss:ipcfgcopy)
                  20023188    00000090     emac_tivaware.aem4f : EMACSnow.oem4f (.bss:g_pRxDescriptors)
                  20023218    00000090                         : EMACSnow.oem4f (.bss:g_pTxDescriptors)
                  200232a8    00000080     tcpEcho_pem4f.oem4f (.bss:xdc_runtime_SysMin_Module_State_0_outbuf__A)
                  20023328    00000070     os.aem4f : mem.oem4f (.bss)
                  20023398    00000068     stk.aem4f : ip.oem4f (.bss:ips)
                  20023400    00000060               : nimu.oem4f (.bss:nimu_mcb)
                  20023460    0000004c               : icmp.oem4f (.bss:_ICMPIn)
                  200234ac    0000004c               : icmp.oem4f (.bss:_ICMPOut)
                  200234f8    00000040     emac_tivaware.aem4f : EMACSnow.oem4f (.bss:EMACSnow_private)
                  20023538    00000028     stk.aem4f : vlan.oem4f (.bss:vlan_mcb)
                  20023560    00000024     netctrl_min_ipv4.aem4f : netsrv.oem4f (.bss:oscfgcopy)
                  20023584    00000024     stk.aem4f : igmp.oem4f (.bss)
                  200235a8    00000024               : udp.oem4f (.bss:udps)
                  200235cc    00000020     netctrl_min_ipv4.aem4f : netctrl.oem4f (.bss)
                  200235ec    00000018     hal_timer_bios.aem4f : lltimer.oem4f (.bss)
                  20023604    00000014     stk.aem4f : rtc.oem4f (.bss)
                  20023618    00000010               : raw.oem4f (.bss)
                  20023628    00000010               : raweth.oem4f (.bss)
                  20023638    0000000c               : tcp.oem4f (.bss)
                  20023644    0000000c               : udp.oem4f (.bss)
                  20023650    00000008               : ip.oem4f (.bss)
                  20023658    00000008     (.common:emacObjects)
                  20023660    00000008     (.common:parmbuf)
                  20023668    00000004     nettool_ipv4.aem4f : ipaddr.oem4f (.bss)
                  2002366c    00000004     stk.aem4f : rawethsock_pcb.oem4f (.bss)
                  20023670    00000004               : rtable.oem4f (.bss)
                  20023674    00000004     (.common:count_mutex)
                  20023678    00000004     (.common:g_ulStatus)
                  2002367c    00000004     (.common:session_mutex)
                  20023680    00000004     (.common:ti_sysbios_knl_Task_Instance_State_0_hookEnv__A)
                  20023684    00000004     (.common:ti_sysbios_knl_Task_Instance_State_1_hookEnv__A)

.data      0    20023688    00000908     UNINITIALIZED
                  20023688    0000018c     tcpEcho_pem4f.oem4f (.data)
                  20023814    000000b4     stk.aem4f : exec.oem4f (.data:_ipcfg)
                  200238c8    00000098     tcpEcho_pem4f.oem4f (.data:ti_sysbios_knl_Task_Object__table__V)
                  20023960    00000080     tcpEcho_pem4f.oem4f (.data:ti_sysbios_family_arm_lm4_Timer_Object__table__V)
                  200239e0    00000080     tcpEcho_pem4f.oem4f (.data:ti_sysbios_knl_Swi_Module_State_0_readyQ__A)
                  20023a60    00000080     tcpEcho_pem4f.oem4f (.data:ti_sysbios_knl_Task_Module_State_0_readyQ__A)
                  20023ae0    0000004d     nettool_ipv4.aem4f : dhcptags.oem4f (.data:DHCPTypeCode)
                  20023b2d    00000003     --HOLE--
                  20023b30    00000044     tcpEcho_pem4f.oem4f (.data:ti_sysbios_knl_Task_Module__state__V)
                  20023b74    00000040     netctrl_min_ipv4.aem4f : netsrv.oem4f (.data:CloseOrder)
                  20023bb4    00000040                            : netsrv.oem4f (.data:OpenOrder)
                  20023bf4    00000040     tcpEcho_pem4f.oem4f (.data:ti_sysbios_family_arm_lm4_Timer_Module_State_0_device__A)
                  20023c34    00000038     tcpEcho_pem4f.oem4f (.data:ti_sysbios_gates_GateMutex_Object__table__V)
                  20023c6c    00000034     stk.aem4f : tcptime.oem4f (.data:tcp_backoff)
                  20023ca0    00000034     tcpEcho_pem4f.oem4f (.data:ti_sysbios_family_arm_m3_Hwi_Module__state__V)
                  20023cd4    00000031     emac_tivaware.aem4f : EMACSnow.oem4f (.data)
                  20023d05    00000003     --HOLE--
                  20023d08    00000030     stk.aem4f : exec.oem4f (.data:tasks)
                  20023d38    00000030     tcpEcho_pem4f.oem4f (.data:ti_sysbios_family_arm_m3_Hwi_Object__table__V)
                  20023d68    00000030     tcpEcho_pem4f.oem4f (.data:ti_sysbios_knl_Swi_Object__table__V)
                  20023d98    0000002c     tcpEcho_pem4f.oem4f (.data:ti_sysbios_knl_Clock_Module__state__V)
                  20023dc4    00000028     stk.aem4f : rtc.oem4f (.data)
                  20023dec    00000024     os.aem4f : ossys.oem4f (.data:_oscfg)
                  20023e10    00000024              : mem.oem4f (.data)
                  20023e34    00000024     tcpEcho_pem4f.oem4f (.data:ti_sysbios_BIOS_Module__state__V)
                  20023e58    0000001c     netctrl_min_ipv4.aem4f : netctrl.oem4f (.data)
                  20023e74    00000018     os.aem4f : task.oem4f (.data)
                  20023e8c    00000018     stk.aem4f : sockpcb.oem4f (.data)
                  20023ea4    00000014               : rtable.oem4f (.data)
                  20023eb8    00000012     EK_TM4C1294XL.obj (.data)
                  20023eca    00000002     --HOLE--
                  20023ecc    00000010     stk.aem4f : igmp.oem4f (.data)
                  20023edc    0000000c     nettool_ipv4.aem4f : mytime.oem4f (.data)
                  20023ee8    0000000c     ti.net.cyassl.aem4f : memory.oem4f (.data)
                  20023ef4    0000000b     stk.aem4f : tcpout.oem4f (.data)
                  20023eff    00000001     --HOLE--
                  20023f00    00000008     gpio_tivaware.aem4f : GPIO.oem4f (.data)
                  20023f08    00000008     netctrl_min_ipv4.aem4f : netsrv.oem4f (.data)
                  20023f10    00000008     rtsv7M4_T_le_v4SPD16_eabi.lib : _lock.obj (.data)
                  20023f18    00000008                                   : exit.obj (.data)
                  20023f20    00000008     stk.aem4f : exec.oem4f (.data)
                  20023f28    00000008               : icmp.oem4f (.data)
                  20023f30    00000008               : ip.oem4f (.data)
                  20023f38    00000008               : ipin.oem4f (.data)
                  20023f40    00000008               : lli.oem4f (.data)
                  20023f48    00000008               : tcp.oem4f (.data)
                  20023f50    00000008               : timer.oem4f (.data)
                  20023f58    00000008     ti.net.cyassl.aem4f : ssl.oem4f (.data)
                  20023f60    00000006     stk.aem4f : lliout.oem4f (.data)
                  20023f66    00000002     --HOLE--
                  20023f68    00000004     emac_tivaware.aem4f : EMAC.oem4f (.data)
                  20023f6c    00000004     hal_timer_bios.aem4f : lltimer.oem4f (.data)
                  20023f70    00000004     nettool_ipv4.aem4f : config.oem4f (.data)
                  20023f74    00000004     rtsv7M4_T_le_v4SPD16_eabi.lib : rand.obj (.data)
                  20023f78    00000004                                   : stkdepth_vars.obj (.data)
                  20023f7c    00000004     stk.aem4f : bind.oem4f (.data)
                  20023f80    00000004               : ipfrag.oem4f (.data)
                  20023f84    00000004               : lliin.oem4f (.data)
                  20023f88    00000004               : node.oem4f (.data)
                  20023f8c    00000004               : pbm.oem4f (.data)

.stack     0    20023f90    00000400     UNINITIALIZED
                  20023f90    00000400     --HOLE--


LINKER GENERATED COPY TABLES

__TI_cinit_table @ 00026b08 records: 3, size/record: 8, table size: 24
	.data: load addr=000264f0, load size=000005fa bytes, run addr=20023688, run size=00000908 bytes, compression=rle
	.bss: load addr=00026af8, load size=00000008 bytes, run addr=20000380, run size=00023308 bytes, compression=zero_init
	.vecs: load addr=00026b00, load size=00000008 bytes, run addr=20000000, run size=00000360 bytes, compression=zero_init


LINKER GENERATED HANDLER TABLE

__TI_handler_table @ 00026aec records: 3, size/record: 4, table size: 12
	index: 0, handler: __TI_zero_init
	index: 1, handler: __TI_decompress_rle24
	index: 2, handler: __TI_decompress_none


GLOBAL SYMBOLS: SORTED ALPHABETICALLY BY Name 

address    name
--------   ----
0000db31   AddCA
0000c6cd   AddSession
0001aeb9   AesCbcDecrypt
0001c3fd   AesCbcEncrypt
0001e385   AesSetIV
0001ed9d   AesSetKey
0001b32b   AlreadySigner
0001c571   Arc4Process
0001a7a5   Arc4SetKey
0000eaa5   Base64_Decode
0001eabd   BindFindByHost
0001ef21   BindFindByIF
0001e0b5   BindFindByNet
0001a32d   BindFree
0001fcfd   BindGetFirst
0001ffed   BindGetIF
0001e5bf   BindGetIFByDBCast
0001f6a9   BindGetIP
0001fff1   BindGetNext
0001facd   BindIF2IPHost
0001fadd   BindIFNet2IPHost
0001f7f3   BindIPHost2IF
0000cfed   BindNew
20023344   BlockCount
20023328   BlockMax
00015995   BuildTlsFinished
0001bd55   C$$EXIT
000199e3   C$$IO$$
0000d8b9   CfgAddEntry
0001a7f9   CfgEntryDeRef
0001c5ad   CfgEntryGetData
0001e98b   CfgEntryInfo
0001e9ad   CfgEntryRef
0001561d   CfgExecute
00018bf9   CfgFree
0001705d   CfgGetEntry
000196b9   CfgGetEntryCnt
0001d459   CfgGetImmediate
000170d9   CfgGetNextEntry
0001b373   CfgNew
000156b1   CfgRemoveEntry
0001fd09   CfgSetDefault
00019dcd   CfgSetExecuteOrder
0001d0b1   CfgSetService
0001e9cf   CheckAvailableSize
00025b44   Code2Err
0001fecd   CyaSSL_CTX_free
0001df8f   CyaSSL_CTX_load_verify_buffer
0001b9e1   CyaSSL_CTX_new
0001f1a5   CyaSSL_CTX_use_PrivateKey_buffer
0001f807   CyaSSL_CTX_use_certificate_buffer
0001edbb   CyaSSL_CertManagerFree
0001db9d   CyaSSL_CertManagerNew
00018401   CyaSSL_Cleanup
0001f361   CyaSSL_Free
0001d9a3   CyaSSL_GetHmacType
0001eadd   CyaSSL_GetMacSecret
0001a3dd   CyaSSL_Init
0001f379   CyaSSL_Malloc
0001b7ad   CyaSSL_SetTlsHmacInner
0000bcf5   CyaSSL_accept
0000e39b   CyaSSL_connect
0001ff8d   CyaSSL_dtls
0001fed5   CyaSSL_free
0001ff93   CyaSSL_get_fd
0001ff99   CyaSSL_get_using_nonblock
0001e5e3   CyaSSL_negotiate
0001d9d1   CyaSSL_new
0001ff9f   CyaSSL_read
0001edd9   CyaSSL_set_fd
0001edf7   CyaSSL_write
0001e3ab   CyaTLSv1_server_method
0001c43b   DHCPClose
0000ef35   DHCPOpen
0001846d   DbgPrintf
00019719   DecodeToKey
00011c11   DeriveKeys
00017ec5   DeriveTlsKeys
0001af07   Des3_CbcDecrypt
0001bea9   Des3_CbcEncrypt
0001e607   Des3_SetIV
0001a8a1   Des3_SetKey
00019009   DoApplicationData
000167c7   DoFinished
0000e5f9   EK_TM4C1294XL_initEMAC
0001dbc9   EK_TM4C1294XL_initGPIO
00013489   EK_TM4C1294XL_initGeneral
0001d585   EMACAddrSet
0001cb41   EMACConfigGet
0001d0e5   EMACConfigSet
0001faed   EMACFrameFilterSet
000174b1   EMACInit
0001d119   EMACIntClear
0001c625   EMACIntDisable
0001ca5b   EMACIntEnable
0001dbf5   EMACIntStatus
0001a48d   EMACPHYConfigSet
0001e3d1   EMACPHYRead
0001e3f7   EMACPHYWrite
0001f72d   EMACReset
0001ffa5   EMACRxDMADescriptorListSet
0001f743   EMACRxEnable
00012ac5   EMACSnow_InitDMADescriptors
0000a595   EMACSnow_NIMUInit
0001e62d   EMACSnow_emacPoll
0001f391   EMACSnow_emacSend
00010bdd   EMACSnow_emacStart
000184d9   EMACSnow_emacStop
0001fc9b   EMACSnow_emacioctl
00026218   EMACSnow_fxnTable
00017f35   EMACSnow_hwiIntFxn
0001ef91   EMACSnow_init
0001e0dd   EMACSnow_isLinkUp
0001e105   EMACSnow_pkt_service
000171d1   EMACSnow_processPhyInterrupt
0001ffab   EMACTxDMADescriptorListSet
0001fedd   EMACTxDMAPollDemand
0001f759   EMACTxEnable
00025ce8   EMAC_config
0001d14d   EMAC_init
00018c61   EmbedReceive
0001beeb   EmbedSend
00019bf7   EncodeSignature
0001efc9   ExecClose
0001fafd   ExecHRef
0001fca9   ExecLowResource
00014da9   ExecOpen
0001e675   ExecTimer
0001dc21   FdSignalEvent
00019209   FdWaitEvent
0001f81d   FlashUserGet
0001eafd   FreeAltNames
0001d9ff   FreeArrays
0001cfd7   FreeCiphers
0001bf2d   FreeDecodedCert
00019779   FreeHandshakeResources
0001fe4b   FreeMutex
0001eb1d   FreeNameSubtrees
0001fff5   FreeRsaKey
0001f1bf   FreeSSL
0001c661   FreeSSL_Ctx
0001da2d   FreeSigner
0001e41d   FreeSignerTable
0001dfe3   GPIODirModeSet
0000e13d   GPIOPadConfigSet
0001b405   GPIOPinConfigure
0001f9f7   GPIOPinTypeEthernetLED
0001fa09   GPIOPinTypeGPIOInput
0001f3a9   GPIOPinTypeGPIOOutput
00025d00   GPIO_config
0001e699   GPIO_init
0001ba25   GenerateSeed
00014b25   GetAlgoId
0001afa3   GetCA
0001abe7   GetCAByName
00017345   GetInt
0001ba69   GetLength
0001dc4d   GetMyVersion
0001d00d   GetSequence
00011549   GetSession
0001d043   GetSet
000161e5   GrowInputBuffer
000076e5   HOSTclock
000076ad   HOSTclose
0000766f   HOSTgetenv
00007613   HOSTlseek
000075c1   HOSTopen
00007575   HOSTread
00007517   HOSTrename
000074dd   HOSTtime
000074a5   HOSTunlink
00007459   HOSTwrite
000130e1   HmacFinal
000138d5   HmacSetKey
0001afef   HmacUpdate
0001ca95   ICMPChecksum
0000e725   ICMPGenPacket
000088c1   ICMPInput
00012c4d   ICMPSendRtAdv
0000b111   IGMPInput
00017d6f   IGMPJoin
0001a949   IGMPLeave
00017fa5   IGMPLeaveHostGroup
00015a25   IGMPMsg
0001e12d   IGMPTestGroup
0001d5e5   IPChecksum
00015455   IPGetRoute
0001724d   IPMsg
000081e9   IPReasm
0001baad   IPReasmFree
0001cb79   IPReasmTimeout
0001f3c1   IPRtChange
00005e15   IPRxPacket
0000471d   IPTxPacket
0001f1f3   InitCipherSpecs
0001f76f   InitCiphers
00013769   InitDecodedCert
0001dca5   InitMd5
0001dcd1   InitMutex
0001dcfd   InitRng
0001f3d9   InitRsaKey
00005a59   InitSSL
00011701   InitSSL_Ctx
0001f20d   InitSSL_Method
0001cbb1   InitSha
0001a53d   InitSha256
0000b42d   InitSuites
0001ee15   IsAtLeastTLSv1_2
0001f831   IsTLS
000035cb   LED_TOGGLE
0001ee33   LLIFree
00010ec5   LLIGenArpPacket
0001baf1   LLIGetValidTime
0001b495   LLIMsg
00017529   LLINew
0000a901   LLIRxPacket
0000a74d   LLITxIpPacket
0001c751   LLIValidateRoute
0001fb0d   LockMutex
0001fd15   LowResTimer
0001fd15   MYTIME_gettime
00015ab5   MYTIME_init
0001fd21   MYTIME_settime
0001fcb7   MakeMasterSecret
0001ee51   MakeSigner
0001f3f1   MakeTLSv1
00018cc9   MakeTlsMasterSecret
00015f29   Md5Final
0001a595   Md5Update
0001eb3d   NC_BootComplete
0001fb1d   NC_IPUpdate
0000d131   NC_NetStart
0001f845   NC_NetStop
0001e17d   NC_SystemClose
000154ed   NC_SystemOpen
0001897b   NDK_accept
0001ac37   NDK_bind
0001dd29   NDK_hookCreate
0001f859   NDK_hookExit
0001fd2d   NDK_hookInit
0001bf6f   NDK_listen
00017a45   NDK_recv
000173bf   NDK_send
000175a1   NDK_sendto
0001786f   NDK_setsockopt
000182b5   NDK_socket
0001f039   NDK_sprintf
0001fffd   NDK_vsprintf
00015321   NIMUAddEthernetHeader
0001f055   NIMUAddHeader
0001e1a5   NIMUCreatePacket
20023ebc   NIMUDeviceTable
0001e6bd   NIMUFindByIndex
0001d181   NIMUFindByName
0001fb2d   NIMUGetRsvdSizeInfo
0001d1b5   NIMUInit
0000fd91   NIMUIoctl
0001e6e1   NIMUPacketService
0001e1cd   NIMUPacketServiceCheck
00011dbd   NIMUReceivePacket
00017619   NIMURegister
0001f86d   NIMUSendPacket
0001fd39   NIMUSetRsvdSizeInfo
00018545   NIMUShutdown
000197d9   NIMUUnregister
00016bdd   NS_BootTask
0001d615   NS_PreBoot
00005a57   NatMsg
000117d9   NodeAdd
0001af55   NodeDeRef
00019839   NodeFind
0001cbe9   NodeGetRt
00020001   NodeSetRt
0000fc81   NodeTreeFree
000185b1   NodeTreeNew
0001b4dd   NodeWalk
0001fd45   NotifyLowResource
0001b03d   NtAddNetwork
0001b7f3   NtIfIdx2Ip
0001f881   NtRemoveNetwork
0001ffcf   OEMSysCritOff
0001f935   OEMSysCritOn
0001e00d   PBMQ_deq
0001926d   PBMQ_enq
2001d2f4   PBMQ_free
00016c5d   PBM_alloc
0001fd51   PBM_close
0001c0fb   PBM_copy
000172c9   PBM_free
00018d31   PBM_open
20023e10   PITCount
20023e18   PITHigh
20023e14   PITUsed
2002337c   PageCount
20023360   PageMax
000192d1   ParseCert
0000c56d   ParseCertRelative
00003efd   PemToDer
0001dd81   PipeClose
00010cd5   PipeRecv
00017ab9   PipeSend
00008f51   ProcessOldClientHello
00006e7d   ProcessReply
0001e9f1   RNG_GenerateBlock
0001eb7d   RTCAddHook
00019899   RTCMsg
0001eb9d   RTCRemoveHook
0000bb85   RTCReport
00017b2d   RawEthRxPacket
0001e469   RawEthSockClose
00012601   RawEthSockNew
0001dab7   RawEthSockNotify
0001a99d   RawEthSockPcbAttach
0001f409   RawEthSockPcbCleanup
0001bb35   RawEthSockPcbDetach
0001e705   RawEthSockPcbFind
0001f895   RawEthSockPcbInit
00020005   RawEthSockPrAttach
00020009   RawEthSockPrDetach
0001b839   RawEthSockSend
00013e6f   RawEthSockSet
0001861d   RawEthTxPacket
000103dd   RawInput
00016cdd   RawOutput
0001488f   ReceiveData
0001bb79   RouteMsg
0002000d   RsaEncryptSize
0001e037   RsaPrivateDecryptInline
000129fb   RsaPrivateKeyDecode
00019335   RsaPublicEncrypt
0001a9f1   RsaPublicKeyDecode
00019399   RsaSSL_Sign
0001ddad   RsaSSL_VerifyInline
000100b9   RtCreate
0001d4bd   RtDeRef
000101c5   RtFind
00019ee1   RtRedirect
00019cb3   RtRemove
0001dae5   RtSetFailure
0001e48f   RtSetTimeout
0001c7c9   RtWalkBegin
0001bbbd   RtWalkEnd
00017de1   RtWalkNext
0001d645   SBFlush
0001db13   SBFree
00019655   SBNew
0000c2a1   SBRead
0001d4ef   SBSetMax
000118b1   SBWrite
UNDEFED    SHT$$INIT_ARRAY$$Base
UNDEFED    SHT$$INIT_ARRAY$$Limit
0001c805   SSL_CtxResourceFree
00013d0d   SSL_ResourceFree
000193fd   SemCreate
00016fdd   SemCreateBinary
0001fd5d   SemDelete
00020011   SemPend
00020015   SemPost
00020019   SemReset
0001449d   SendAlert
00015fb5   SendBuffered
00012533   SendCertificate
00013541   SendCertificateRequest
0000bfd1   SendCertificateVerify
0001b87f   SendChangeCipher
0000b5ad   SendClientHello
00008d29   SendClientKeyExchange
0001137b   SendData
00011f69   SendFinished
00011ce7   SendServerHello
0001b8c5   SendServerHelloDone
00014935   SendServerKeyExchange
0000d9f5   SetAlgoID
00009fc5   SetCipherSpecs
0001bc01   SetLength
0001fa2d   SetSequence
00013f1f   Sha256Final
00018323   Sha256Update
00014547   ShaFinal
00018e01   ShaUpdate
00019f3d   ShrinkInputBuffer
0001db41   ShrinkOutputBuffer
00017691   SockAccept
0001d675   SockBind
0001d6a5   SockCleanPcb
000111a1   SockClose
0000c409   SockConnect
00013fd1   SockCreatePacket
0001b203   SockDisconnect
0001d1e9   SockGetName
0001d521   SockIntAbort
00018689   SockListen
0000ade9   SockNew
0000f829   SockNotify
0001ddd9   SockPcbAttach
00011989   SockPcbBind
0001e74d   SockPcbCleanup
00017ba1   SockPcbConnect
00015b45   SockPcbCtlError
0001c13d   SockPcbDetach
0000f055   SockPcbResolve
0001b525   SockPcbResolveChain
0001c17d   SockPcbRtChange
0001fa3f   SockPrAttach
0001d6d5   SockPrCtlError
0001f071   SockPrDetach
00009bc7   SockRecv
0000d779   SockSend
00007f79   SockSet
0001fa51   SockSetOOBData
0001f241   SockSetOOBMark
00018085   SockShutdown
00019f99   SockSpawnAbort
0001b089   SockValidateRoute
00015151   StoreKeys
0001ffb1   SysCtlDelay
0001d21d   SysCtlPeripheralEnable
0001cc21   SysCtlPeripheralReady
0001acd9   SysCtlPeripheralReset
000180f5   TLS_hmac
20023914   TSK_idle
0001feed   TaskBlock
0001c035   TaskCreate
0001f08d   TaskDestroy
0000dda1   TaskExit
00013259   TaskGetEnv
0002001d   TaskSelf
000135f9   TaskSetEnv
00020021   TaskSetPri
00009dc9   TaskSleep
00019ff5   TcpChecksum
0001cc59   TcpClose
0001b56d   TcpDrop
0000f4d5   TcpGenPacket
000013c5   TcpInput
00001f99   TcpOutput
0001684d   TcpPrAttach
0001cc91   TcpPrConnect
0001c4f5   TcpPrCtlError
0001ad29   TcpPrDetach
0001c1bd   TcpPrDisconnect
000189e5   TcpPrInherit
0001e771   TcpPrListen
0001ffb7   TcpPrRecv
0001d251   TcpPrSend
0001c1fd   TcpPrSendOOB
0001203d   TcpPrSetOption
0001ccc9   TcpSetPersist
0001f4f9   TcpTimeoutAdd
0000d4f9   TcpTimeoutCheck
00014699   TcpTimeoutKeep
0001b5b5   TcpTimeoutPersist
0001f0a9   TcpTimeoutRemove
00012111   TcpTimeoutRexmt
0001913d   TcpTimeoutSackRexmt
0001e795   TcpTimeoutWait2
0001a21d   TcpValidateMetrics
00017c15   TcpXmitTimer
0001f8a9   TimerFree
0001d285   TimerHSTick
0001b90d   TimerNew
000151eb   ToTraditional
00018ed1   UdpChecksum
00009399   UdpInput
0000ebc9   UdpOutput
0001fd69   UnLockMutex
000149dd   VLANDeinit
0001e295   VLANInit
0001a051   VLANReceivePacket
00012461   ValidateDate
0001ea35   VerifyClientSuite
0001fcc5   XTIME
20023460   _ICMPIn
20023f28   _ICMPInErrors
200234ac   _ICMPOut
20023f2c   _ICMPOutErrors
20023ed4   _IGMPForceVersion1
20023594   _IGMPInDiscard
20023598   _IGMPInQuery
2002359c   _IGMPInQueryGroup
200235a0   _IGMPInResponse
200235a4   _IGMPOutResponse
20023f30   _IPExecuting
20023f80   _IPReasmPtr
0001b5fd   _LLIExpListInsert
0001e2bd   _LLIExpListRemove
00014081   _LLITimeoutCheck
0001e2e5   _LLITimeoutFlush
0001b645   _RtExpListInsert
0001e30d   _RtExpListRemove
000186f5   _RtNodeInsert
0001cacf   _RtNodeRemove
00009dc7   _TaskInit
0000bfcf   _TaskShutdown
00000000   __ASM__
20022d20   __CIOBUF_
00000071   __ISA__
00000084   __PLAT__
20024390   __STACK_END
00000400   __STACK_SIZE
20024190   __STACK_TOP
000000a5   __TARG__
00026b08   __TI_CINIT_Base
00026b20   __TI_CINIT_Limit
00026aec   __TI_Handler_Table_Base
00026af8   __TI_Handler_Table_Limit
00000001   __TI_args_main
00014bc9   __TI_auto_init
20023f18   __TI_cleanup_ptr
0001fcd3   __TI_decompress_none
0001ffc3   __TI_decompress_rle24
20023f1c   __TI_dtors_ptr
000199e7   __TI_readmsg
00000000   __TI_static_base__
000199b9   __TI_writemsg
0001fa75   __TI_zero_init
000000cb   __TRDR__
00017709   __aeabi_memclr
00017709   __aeabi_memclr4
00017709   __aeabi_memclr8
00014f7d   __aeabi_memcpy
00014f7d   __aeabi_memcpy4
00014f7d   __aeabi_memcpy8
0001770b   __aeabi_memset
0001770b   __aeabi_memset4
0001770b   __aeabi_memset8
0001c0b9   __aeabi_uidivmod
0000a1bd   __aeabi_uldivmod
ffffffff   __binit__
ffffffff   __c_args__
20023f90   __stack
0001ffbd   __xdc__init
20023810   __xdc__init__addr
0001f589   _args_main
0001a385   _c_int00
20023814   _ipcfg
00020025   _llSerialInit
0000c407   _llSerialServiceCheck
0000d8b7   _llSerialShutdown
0001cd01   _llTimerInit
0001fd75   _llTimerShutdown
0000e5f7   _llUserLedInit
0000f827   _llUserLedShutdown
20023f10   _lock
00015bd5   _mmInit
0001f8f3   _nop
20023dec   _oscfg
0001f8eb   _register_lock
0001f8e5   _register_unlock
20023f14   _unlock
0001bd59   abort
ffffffff   binit
0001fd8d   c32to24
00024cb9   ca_cert_der_2048
0001bd11   copy_in
0001a277   dhcpBuildDecline
0001cd39   dhcpBuildDiscover
00019959   dhcpBuildOptions
00015c65   dhcpBuildRequest
00017c89   dhcpDecodeType
0001cd71   dhcpOptionsClear
00011a61   dhcpPacketProcess
0001e335   dhcpPacketReceive
0001d735   dhcpPacketSend
0001f541   dhcpSocketClose
00011467   dhcpSocketOpen
00011b39   dhcpState
00012931   dhcpVerifyMessage
00025cdc   emacHWAttrs
20023658   emacObjects
20023cd4   enablePrefetch
0001bd61   exit
0001f0c5   exitApp
00016a5b   fdClose
0001c077   fdCloseSession
0001ee6f   fdError
00017781   fdOpenSession
0001f79b   fdint_freefdt
0001f25b   fdint_getfdt
0001b68d   fdint_lockfd
0001fe5f   fdint_signalevent
0001fe69   fdint_signaltimeout
0001c533   fdint_unlockfd
0001cda9   fdint_waitevent
0001d2b9   fp_2expt
0001b953   fp_add
0001d079   fp_cmp
0001d765   fp_cmp_d
0001bc89   fp_cmp_mag
0001e4db   fp_count_bits
000061a5   fp_div
000162f9   fp_div_2
00014341   fp_div_2d
00018165   fp_exptmod
00009175   fp_invmod
00018a4f   fp_lshd
0001a69d   fp_mod
00016383   fp_mod_2d
00018f39   fp_montgomery_calc_normalization
0000f5f1   fp_montgomery_reduce
0001d2ed   fp_montgomery_setup
0002002d   fp_mul
00018ab9   fp_mul_2
00015d83   fp_mul_2d
0000f175   fp_mul_comba
0001640d   fp_mul_d
0001cde1   fp_mulmod
00019461   fp_read_unsigned_bin
0001e501   fp_reverse
0001c87d   fp_rshb
00018391   fp_rshd
0001ebbd   fp_set
00020031   fp_sqr
0000ba11   fp_sqr_comba
0001b297   fp_sub
0001b2e1   fp_to_unsigned_bin
0001ee8d   fp_unsigned_bin_size
0001f559   free
20023678   g_ulStatus
0000cac9   gmtime
00025dd4   gpioHWAttrs
20023398   ips
0001f571   list_add
00020035   list_get_head
00020039   list_get_next
0001eeab   list_remove
0001d795   list_remove_node
00010fb9   llEnter
000181d5   llExit
0000fa57   llSerialService
0001fd99   llTimerGetStartTime
0001bccd   llTimerGetTime
000194c5   llTimerTick
20023ec4   macAddress
0000e851   main
20023f78   main_func_sp
0001db6f   malloc
0001ea57   memcmp
00014f7d   memcpy
0001e801   memmove
00017711   memset
0000ac51   mmAlloc
00016041   mmBulkAlloc
000168d1   mmBulkFree
0001aa45   mmCopy
00016e5d   mmFree
0001c23d   mmZeroInit
0001fe73   mp_add
0001fe7d   mp_clear
0001d079   mp_cmp
0001d765   mp_cmp_d
0001e4db   mp_count_bits
00018165   mp_exptmod
0001fa87   mp_init
00009175   mp_invmod
0001a69d   mp_mod
0001fe87   mp_mul
0001cde1   mp_mulmod
0001fe91   mp_read_unsigned_bin
0001c87d   mp_rshb
0001fe9b   mp_sub
0001fea5   mp_to_unsigned_bin
0001ee8d   mp_unsigned_bin_size
0001c27d   mystrnstr
20023400   nimu_mcb
20023cd8   phyCounter
20023dc4   pstrMsgName
20023f4c   ptTimeFirst
0001b0eb   rand
2002366c   raweth_pcb
20023628   raweths
20023618   raws
000136b1   s_fp_add
00012e99   s_fp_sub
0002515b   server_cert_der_2048
00024810   server_key_der_2048
0001b0d5   srand
200235cc   stkEvent
0001f5a1   strcmp
0001fb6d   strcpy
0001f8f9   strlen
0001e527   strncmp
0001d7f5   strncpy
00004b19   tcpHandler
0000f295   tcpWorker
20023f48   tcp_iss
2002301c   tcps
00026250   ti_catalog_arm_cortexm4_tiva_ce_Boot_A_mustNotUseEnhancedClockMode__C
00026254   ti_catalog_arm_cortexm4_tiva_ce_Boot_Module__diagsEnabled__C
00026258   ti_catalog_arm_cortexm4_tiva_ce_Boot_Module__diagsIncluded__C
0002625c   ti_catalog_arm_cortexm4_tiva_ce_Boot_Module__diagsMask__C
0002180e   ti_catalog_arm_cortexm4_tiva_ce_Boot_Module__id__C
0001fabd   ti_catalog_arm_cortexm4_tiva_ce_Boot_init__I
000097c1   ti_catalog_arm_cortexm4_tiva_ce_Boot_sysCtlClockFreqSetI__I
000157d9   ti_catalog_arm_cortexm4_tiva_ce_Boot_sysCtlClockFreqSet__E
200236a4   ti_ndk_config_Global_HostName
20023688   ti_ndk_config_Global_Id2Size
0002615c   ti_ndk_config_Global_largest
00026160   ti_ndk_config_Global_numFrameBuf
2001d300   ti_ndk_config_Global_pBufMem
20020f00   ti_ndk_config_Global_pHdrMem
20018a20   ti_ndk_config_Global_pit
20018ac8   ti_ndk_config_Global_pitBuffer
00026154   ti_ndk_config_Global_rawPageCount
00026150   ti_ndk_config_Global_rawPageSize
00019a19   ti_ndk_config_Global_serviceReport
00026164   ti_ndk_config_Global_sizeFrameBuf
00026158   ti_ndk_config_Global_smallest
0000eced   ti_ndk_config_Global_stackThread
000107eb   ti_ndk_config_global_taskCreateHook
00011547   ti_ndk_config_global_taskExitHook
00018761   ti_ndk_config_ip_init
0001a2d1   ti_ndk_config_tcp_init
0001e54d   ti_ndk_config_udp_init
20023e34   ti_sysbios_BIOS_Module__state__V
00020045   ti_sysbios_BIOS_RtsGateProxy_enter__E
00020049   ti_sysbios_BIOS_RtsGateProxy_leave__E
0002005d   ti_sysbios_BIOS_RtsGateProxy_query__E
0001d825   ti_sysbios_BIOS_atExitFunc__I
0001e825   ti_sysbios_BIOS_errorRaiseHook__I
0001f7b1   ti_sysbios_BIOS_exitFunc__I
0001fb7d   ti_sysbios_BIOS_exit__E
0001fb8d   ti_sysbios_BIOS_getCpuFreq__E
00011e93   ti_sysbios_BIOS_nullFunc__I
0001e849   ti_sysbios_BIOS_registerRTSLock__I
0001e86d   ti_sysbios_BIOS_removeRTSLock__I
0001f0e1   ti_sysbios_BIOS_rtsLock__I
0001f5b9   ti_sysbios_BIOS_rtsUnlock__I
0001fb9d   ti_sysbios_BIOS_setThreadType__E
0001e891   ti_sysbios_BIOS_startFunc__I
0001fbad   ti_sysbios_BIOS_start__E
40000400   ti_sysbios_family_arm_ducati_CTM_ctm
20023bf4   ti_sysbios_family_arm_lm4_Timer_Module_State_0_device__A
200236f0   ti_sysbios_family_arm_lm4_Timer_Module_State_0_handles__A
200236e8   ti_sysbios_family_arm_lm4_Timer_Module__root__V
0001f5d1   ti_sysbios_family_arm_lm4_Timer_Module__startupDone__F
0001f5d1   ti_sysbios_family_arm_lm4_Timer_Module__startupDone__S
20023710   ti_sysbios_family_arm_lm4_Timer_Module__state__V
00014131   ti_sysbios_family_arm_lm4_Timer_Module_startup__E
20023960   ti_sysbios_family_arm_lm4_Timer_Object__table__V
00026260   ti_sysbios_family_arm_lm4_Timer_enableFunc__C
000141e1   ti_sysbios_family_arm_lm4_Timer_enableTimers__I
00013a3d   ti_sysbios_family_arm_lm4_Timer_enableTiva__I
0001c2bd   ti_sysbios_family_arm_lm4_Timer_getCurrentTick__E
0001fda5   ti_sysbios_family_arm_lm4_Timer_getMaxTicks__E
0002004d   ti_sysbios_family_arm_lm4_Timer_getPeriod__E
00019529   ti_sysbios_family_arm_lm4_Timer_isrStub__E
0001ff5d   ti_sysbios_family_arm_lm4_Timer_masterDisable__I
00020051   ti_sysbios_family_arm_lm4_Timer_masterEnable__I
00026264   ti_sysbios_family_arm_lm4_Timer_numTimerDevices__C
00015019   ti_sysbios_family_arm_lm4_Timer_setNextTick__E
00008431   ti_sysbios_family_arm_lm4_Timer_start__E
00026268   ti_sysbios_family_arm_lm4_Timer_startupNeeded__C
0001c2fd   ti_sysbios_family_arm_lm4_Timer_startup__E
2002371c   ti_sysbios_family_arm_lm4_TimestampProvider_Module__state__V
0001ffc9   ti_sysbios_family_arm_lm4_TimestampProvider_Module_startup__E
000122b9   ti_sysbios_family_arm_lm4_TimestampProvider_get32__E
0001fb8d   ti_sysbios_family_arm_lm4_TimestampProvider_getFreq__E
0001fbbd   ti_sysbios_family_arm_lm4_TimestampProvider_rolloverFunc__E
0001fdb1   ti_sysbios_family_arm_lm4_TimestampProvider_startTimer__E
0002595a   ti_sysbios_family_arm_lm4_TimestampProvider_useClockTimer__C
0002626c   ti_sysbios_family_arm_m3_Hwi_E_NMI__C
00026270   ti_sysbios_family_arm_m3_Hwi_E_alreadyDefined__C
00026274   ti_sysbios_family_arm_m3_Hwi_E_busFault__C
00026278   ti_sysbios_family_arm_m3_Hwi_E_debugMon__C
0002627c   ti_sysbios_family_arm_m3_Hwi_E_hardFault__C
00026280   ti_sysbios_family_arm_m3_Hwi_E_hwiLimitExceeded__C
00026284   ti_sysbios_family_arm_m3_Hwi_E_memFault__C
00026288   ti_sysbios_family_arm_m3_Hwi_E_noIsr__C
0002628c   ti_sysbios_family_arm_m3_Hwi_E_reserved__C
00026290   ti_sysbios_family_arm_m3_Hwi_E_svCall__C
00026294   ti_sysbios_family_arm_m3_Hwi_E_usageFault__C
0001f28f   ti_sysbios_family_arm_m3_Hwi_Handle__label__S
0001aa99   ti_sysbios_family_arm_m3_Hwi_Instance_finalize__E
00014c69   ti_sysbios_family_arm_m3_Hwi_Instance_init__E
00026298   ti_sysbios_family_arm_m3_Hwi_LD_end__C
0002629c   ti_sysbios_family_arm_m3_Hwi_LM_begin__C
2002372c   ti_sysbios_family_arm_m3_Hwi_Module_State_0_excActive__A
20023730   ti_sysbios_family_arm_m3_Hwi_Module_State_0_excContext__A
20023734   ti_sysbios_family_arm_m3_Hwi_Module_State_0_excStack__A
000262a0   ti_sysbios_family_arm_m3_Hwi_Module__diagsEnabled__C
000262a4   ti_sysbios_family_arm_m3_Hwi_Module__diagsIncluded__C
000262a8   ti_sysbios_family_arm_m3_Hwi_Module__diagsMask__C
00025c66   ti_sysbios_family_arm_m3_Hwi_Module__id__C
000264bc   ti_sysbios_family_arm_m3_Hwi_Module__loggerDefined__C
000262ac   ti_sysbios_family_arm_m3_Hwi_Module__loggerFxn1__C
000262b0   ti_sysbios_family_arm_m3_Hwi_Module__loggerFxn8__C
000262b4   ti_sysbios_family_arm_m3_Hwi_Module__loggerObj__C
20023724   ti_sysbios_family_arm_m3_Hwi_Module__root__V
0001f5e9   ti_sysbios_family_arm_m3_Hwi_Module__startupDone__F
0001f5e9   ti_sysbios_family_arm_m3_Hwi_Module__startupDone__S
20023ca0   ti_sysbios_family_arm_m3_Hwi_Module__state__V
0001aaed   ti_sysbios_family_arm_m3_Hwi_Module_startup__E
000262b8   ti_sysbios_family_arm_m3_Hwi_NUM_INTERRUPTS__C
00025ff8   ti_sysbios_family_arm_m3_Hwi_Object__DESC__C
00025e04   ti_sysbios_family_arm_m3_Hwi_Object__PARAMS__C
000262bc   ti_sysbios_family_arm_m3_Hwi_Object__count__C
000187cd   ti_sysbios_family_arm_m3_Hwi_Object__create__S
0001ebdd   ti_sysbios_family_arm_m3_Hwi_Object__delete__S
0001f921   ti_sysbios_family_arm_m3_Hwi_Object__get__S
20023d38   ti_sysbios_family_arm_m3_Hwi_Object__table__V
000262c0   ti_sysbios_family_arm_m3_Hwi_ccr__C
0001f935   ti_sysbios_family_arm_m3_Hwi_disableFxn__E
0001bd99   ti_sysbios_family_arm_m3_Hwi_disableInterrupt__E
000262c4   ti_sysbios_family_arm_m3_Hwi_disablePriority__C
0000cd5d   ti_sysbios_family_arm_m3_Hwi_dispatchC__I
200229c0   ti_sysbios_family_arm_m3_Hwi_dispatchTable
000110ad   ti_sysbios_family_arm_m3_Hwi_dispatch__I
0001ff65   ti_sysbios_family_arm_m3_Hwi_doSwiRestore__I
0001e8b5   ti_sysbios_family_arm_m3_Hwi_doTaskRestore__I
0001bddd   ti_sysbios_family_arm_m3_Hwi_enableInterrupt__E
0000c139   ti_sysbios_family_arm_m3_Hwi_excBusFault__I
00014a81   ti_sysbios_family_arm_m3_Hwi_excDebugMon__I
00003ad9   ti_sysbios_family_arm_m3_Hwi_excDumpRegs__I
0001ebfd   ti_sysbios_family_arm_m3_Hwi_excHandlerAsm__I
000262c8   ti_sysbios_family_arm_m3_Hwi_excHandlerFunc__C
000095b5   ti_sysbios_family_arm_m3_Hwi_excHandlerMax__I
0001ec1d   ti_sysbios_family_arm_m3_Hwi_excHandler__I
00014291   ti_sysbios_family_arm_m3_Hwi_excHardFault__I
00026220   ti_sysbios_family_arm_m3_Hwi_excHookFuncs__A
000262cc   ti_sysbios_family_arm_m3_Hwi_excHookFuncs__C
0000ded9   ti_sysbios_family_arm_m3_Hwi_excMemFault__I
0001d321   ti_sysbios_family_arm_m3_Hwi_excNmi__I
0001ce19   ti_sysbios_family_arm_m3_Hwi_excNoIsr__I
0001b6d5   ti_sysbios_family_arm_m3_Hwi_excReserved__I
0001c8b9   ti_sysbios_family_arm_m3_Hwi_excSvCall__I
0000cea5   ti_sysbios_family_arm_m3_Hwi_excUsageFault__I
0001ce51   ti_sysbios_family_arm_m3_Hwi_getStackInfo__E
000166b9   ti_sysbios_family_arm_m3_Hwi_initNVIC__E
0001a6f5   ti_sysbios_family_arm_m3_Hwi_initStacks__E
000262d0   ti_sysbios_family_arm_m3_Hwi_nullIsrFunc__C
000262d4   ti_sysbios_family_arm_m3_Hwi_numSparseInterrupts__C
e000e000   ti_sysbios_family_arm_m3_Hwi_nvic
0001e573   ti_sysbios_family_arm_m3_Hwi_pendSV__I
0001238d   ti_sysbios_family_arm_m3_Hwi_postInit__I
000262d8   ti_sysbios_family_arm_m3_Hwi_priGroup__C
20000000   ti_sysbios_family_arm_m3_Hwi_ramVectors
00000000   ti_sysbios_family_arm_m3_Hwi_resetVectors
0001ffcf   ti_sysbios_family_arm_m3_Hwi_restoreFxn__E
0001e597   ti_sysbios_family_arm_m3_Hwi_return
0001ff6d   ti_sysbios_family_arm_m3_Hwi_startup__E
0001f949   ti_sysbios_family_arm_m3_Hwi_switchFromBootStack__E
00020055   ti_sysbios_family_arm_m3_TaskSupport_Module__startupDone__S
00016159   ti_sysbios_family_arm_m3_TaskSupport_buildTaskStack
0001fdbd   ti_sysbios_family_arm_m3_TaskSupport_checkStack__E
0001fdc9   ti_sysbios_family_arm_m3_TaskSupport_getStackAlignment__E
0001fbcd   ti_sysbios_family_arm_m3_TaskSupport_glue
000262dc   ti_sysbios_family_arm_m3_TaskSupport_stackAlignment__C
0001c8f5   ti_sysbios_family_arm_m3_TaskSupport_start__E
0001f601   ti_sysbios_family_arm_m3_TaskSupport_swap__E
0001fb8d   ti_sysbios_family_arm_m3_TimestampProvider_getFreq__E
0001eec9   ti_sysbios_family_xxx_Hwi_switchAndRunFunc
0001f2a9   ti_sysbios_gates_GateHwi_Handle__label__S
00012ac3   ti_sysbios_gates_GateHwi_Instance_init__E
00025f00   ti_sysbios_gates_GateHwi_Module__FXNS__C
20023738   ti_sysbios_gates_GateHwi_Module__root__V
00026018   ti_sysbios_gates_GateHwi_Object__DESC__C
00026168   ti_sysbios_gates_GateHwi_Object__PARAMS__C
0001d855   ti_sysbios_gates_GateHwi_Object__create__S
0001ec3d   ti_sysbios_gates_GateHwi_Object__delete__S
20023740   ti_sysbios_gates_GateHwi_Object__table__V
0001f95d   ti_sysbios_gates_GateHwi_enter__E
0001ffd5   ti_sysbios_gates_GateHwi_leave__E
00020059   ti_sysbios_gates_GateHwi_query__E
000262e0   ti_sysbios_gates_GateMutex_A_badContext__C
0001f2c3   ti_sysbios_gates_GateMutex_Handle__label__S
000262e4   ti_sysbios_gates_GateMutex_Instance_State_sem__O
0001fbdd   ti_sysbios_gates_GateMutex_Instance_finalize__E
0001f0fd   ti_sysbios_gates_GateMutex_Instance_init__E
00025f24   ti_sysbios_gates_GateMutex_Module__FXNS__C
000262e8   ti_sysbios_gates_GateMutex_Module__diagsEnabled__C
000262ec   ti_sysbios_gates_GateMutex_Module__diagsIncluded__C
000262f0   ti_sysbios_gates_GateMutex_Module__diagsMask__C
000264be   ti_sysbios_gates_GateMutex_Module__id__C
20023744   ti_sysbios_gates_GateMutex_Module__root__V
00026038   ti_sysbios_gates_GateMutex_Object__DESC__C
00026180   ti_sysbios_gates_GateMutex_Object__PARAMS__C
0001d885   ti_sysbios_gates_GateMutex_Object__create__S
0001e8d9   ti_sysbios_gates_GateMutex_Object__delete__S
20023c34   ti_sysbios_gates_GateMutex_Object__table__V
00013af1   ti_sysbios_gates_GateMutex_enter__E
0001f619   ti_sysbios_gates_GateMutex_leave__E
0002005d   ti_sysbios_gates_GateMutex_query__E
000262f4   ti_sysbios_hal_Hwi_E_stackOverflow__C
00020061   ti_sysbios_hal_Hwi_HwiProxy_Module__startupDone__S
0001fbed   ti_sysbios_hal_Hwi_HwiProxy_Object__create__S
00020065   ti_sysbios_hal_Hwi_HwiProxy_Object__delete__S
0001eee7   ti_sysbios_hal_Hwi_HwiProxy_create
00020069   ti_sysbios_hal_Hwi_HwiProxy_delete
0001bd99   ti_sysbios_hal_Hwi_HwiProxy_disableInterrupt__E
0001f935   ti_sysbios_hal_Hwi_HwiProxy_disable__E
0001bddd   ti_sysbios_hal_Hwi_HwiProxy_enableInterrupt__E
0001ce51   ti_sysbios_hal_Hwi_HwiProxy_getStackInfo__E
0001ffcf   ti_sysbios_hal_Hwi_HwiProxy_restore__E
0001ff6d   ti_sysbios_hal_Hwi_HwiProxy_startup__E
0001f949   ti_sysbios_hal_Hwi_HwiProxy_switchFromBootStack__E
0001feaf   ti_sysbios_hal_Hwi_Instance_finalize__E
0001e35d   ti_sysbios_hal_Hwi_Instance_init__E
000264c0   ti_sysbios_hal_Hwi_Module__id__C
2002374c   ti_sysbios_hal_Hwi_Module__root__V
0001fa99   ti_sysbios_hal_Hwi_Module_startup__E
00026058   ti_sysbios_hal_Hwi_Object__DESC__C
00025e34   ti_sysbios_hal_Hwi_Object__PARAMS__C
0001ec5d   ti_sysbios_hal_Hwi_Object__delete__S
0001d355   ti_sysbios_hal_Hwi_checkStack
0001958d   ti_sysbios_hal_Hwi_create
0002006d   ti_sysbios_hal_Hwi_delete
0001bd99   ti_sysbios_hal_Hwi_disableInterrupt__E
0001f935   ti_sysbios_hal_Hwi_disable__E
0001bddd   ti_sysbios_hal_Hwi_enableInterrupt__E
0001ce51   ti_sysbios_hal_Hwi_getStackInfo__E
0001de31   ti_sysbios_hal_Hwi_initStack
0001ffcf   ti_sysbios_hal_Hwi_restore__E
0001ff6d   ti_sysbios_hal_Hwi_startup__E
000262f8   ti_sysbios_heaps_HeapMem_A_align__C
000262fc   ti_sysbios_heaps_HeapMem_A_heapSize__C
00026300   ti_sysbios_heaps_HeapMem_A_invalidFree__C
00026304   ti_sysbios_heaps_HeapMem_A_zeroBlock__C
00026308   ti_sysbios_heaps_HeapMem_E_memory__C
0001f2dd   ti_sysbios_heaps_HeapMem_Handle__label__S
20000380   ti_sysbios_heaps_HeapMem_Instance_State_0_buf__A
0000dc69   ti_sysbios_heaps_HeapMem_Instance_init__E
00020071   ti_sysbios_heaps_HeapMem_Module_GateProxy_enter__E
00020075   ti_sysbios_heaps_HeapMem_Module_GateProxy_leave__E
0002005d   ti_sysbios_heaps_HeapMem_Module_GateProxy_query__E
00025eb0   ti_sysbios_heaps_HeapMem_Module__FXNS__C
0002630c   ti_sysbios_heaps_HeapMem_Module__diagsEnabled__C
00026310   ti_sysbios_heaps_HeapMem_Module__diagsIncluded__C
00026314   ti_sysbios_heaps_HeapMem_Module__diagsMask__C
00026318   ti_sysbios_heaps_HeapMem_Module__gateObj__C
000264c2   ti_sysbios_heaps_HeapMem_Module__id__C
20023754   ti_sysbios_heaps_HeapMem_Module__root__V
00026078   ti_sysbios_heaps_HeapMem_Object__DESC__C
00025f48   ti_sysbios_heaps_HeapMem_Object__PARAMS__C
0002631c   ti_sysbios_heaps_HeapMem_Object__count__C
0001d8b5   ti_sysbios_heaps_HeapMem_Object__create__S
0001ec7d   ti_sysbios_heaps_HeapMem_Object__delete__S
0001f971   ti_sysbios_heaps_HeapMem_Object__get__S
2002375c   ti_sysbios_heaps_HeapMem_Object__table__V
00008af5   ti_sysbios_heaps_HeapMem_alloc__E
00008679   ti_sysbios_heaps_HeapMem_free__E
0001b71d   ti_sysbios_heaps_HeapMem_getStats__E
0001c931   ti_sysbios_heaps_HeapMem_init__I
0001ffdb   ti_sysbios_heaps_HeapMem_isBlocking__E
00026320   ti_sysbios_heaps_HeapMem_reqAlign__C
00026324   ti_sysbios_knl_Clock_A_badThreadType__C
0000ee11   ti_sysbios_knl_Clock_Instance_init__E
00026328   ti_sysbios_knl_Clock_LM_begin__C
0002632c   ti_sysbios_knl_Clock_LM_tick__C
00026330   ti_sysbios_knl_Clock_LW_delayed__C
00026334   ti_sysbios_knl_Clock_Module_State_clockQ__O
00026338   ti_sysbios_knl_Clock_Module__diagsEnabled__C
0002633c   ti_sysbios_knl_Clock_Module__diagsIncluded__C
00026340   ti_sysbios_knl_Clock_Module__diagsMask__C
000264c4   ti_sysbios_knl_Clock_Module__id__C
000264c6   ti_sysbios_knl_Clock_Module__loggerDefined__C
00026344   ti_sysbios_knl_Clock_Module__loggerFxn1__C
00026348   ti_sysbios_knl_Clock_Module__loggerFxn2__C
0002634c   ti_sysbios_knl_Clock_Module__loggerObj__C
20023774   ti_sysbios_knl_Clock_Module__root__V
20023d98   ti_sysbios_knl_Clock_Module__state__V
0001de5d   ti_sysbios_knl_Clock_Module_startup__E
00026098   ti_sysbios_knl_Clock_Object__DESC__C
00025f6c   ti_sysbios_knl_Clock_Object__PARAMS__C
0001c96d   ti_sysbios_knl_Clock_Object__create__S
0001fdd5   ti_sysbios_knl_Clock_Params__init__S
00020079   ti_sysbios_knl_Clock_TimerProxy_Module__startupDone__S
0002007d   ti_sysbios_knl_Clock_TimerProxy_getCurrentTick__E
00020081   ti_sysbios_knl_Clock_TimerProxy_getMaxTicks__E
00020085   ti_sysbios_knl_Clock_TimerProxy_getPeriod__E
00020089   ti_sysbios_knl_Clock_TimerProxy_setNextTick__E
0001c2fd   ti_sysbios_knl_Clock_TimerProxy_startup__E
0001c9a9   ti_sysbios_knl_Clock_create
0001de89   ti_sysbios_knl_Clock_doTick__I
0001ce89   ti_sysbios_knl_Clock_getTicks__E
00019a79   ti_sysbios_knl_Clock_logTick__E
00015585   ti_sysbios_knl_Clock_startI__E
00018839   ti_sysbios_knl_Clock_start__E
0002180d   ti_sysbios_knl_Clock_tickMode__C
000254ef   ti_sysbios_knl_Clock_tickSource__C
0000d639   ti_sysbios_knl_Clock_workFunc__E
00026228   ti_sysbios_knl_Idle_funcList__A
00026230   ti_sysbios_knl_Idle_funcList__C
0001ff75   ti_sysbios_knl_Idle_loop__E
0001ec9d   ti_sysbios_knl_Idle_run__E
0001ffe1   ti_sysbios_knl_Queue_Instance_init__E
2002377c   ti_sysbios_knl_Queue_Module__root__V
000260b8   ti_sysbios_knl_Queue_Object__DESC__C
00026198   ti_sysbios_knl_Queue_Object__PARAMS__C
0001f119   ti_sysbios_knl_Queue_Object__destruct__S
0001fde1   ti_sysbios_knl_Queue_Object__get__S
0001deb5   ti_sysbios_knl_Queue_construct
0002008d   ti_sysbios_knl_Queue_destruct
0001fce1   ti_sysbios_knl_Queue_empty__E
00026350   ti_sysbios_knl_Semaphore_A_badContext__C
00026354   ti_sysbios_knl_Semaphore_A_noEvents__C
00026358   ti_sysbios_knl_Semaphore_A_overflow__C
0002635c   ti_sysbios_knl_Semaphore_A_pendTaskDisabled__C
00026360   ti_sysbios_knl_Semaphore_Instance_State_pendQ__O
0001fbfd   ti_sysbios_knl_Semaphore_Instance_finalize__E
000150b5   ti_sysbios_knl_Semaphore_Instance_init__E
00026364   ti_sysbios_knl_Semaphore_LM_pend__C
00026368   ti_sysbios_knl_Semaphore_LM_post__C
0002636c   ti_sysbios_knl_Semaphore_Module__diagsEnabled__C
00026370   ti_sysbios_knl_Semaphore_Module__diagsIncluded__C
00026374   ti_sysbios_knl_Semaphore_Module__diagsMask__C
000264c8   ti_sysbios_knl_Semaphore_Module__id__C
000264ca   ti_sysbios_knl_Semaphore_Module__loggerDefined__C
00026378   ti_sysbios_knl_Semaphore_Module__loggerFxn2__C
0002637c   ti_sysbios_knl_Semaphore_Module__loggerFxn4__C
00026380   ti_sysbios_knl_Semaphore_Module__loggerObj__C
20023784   ti_sysbios_knl_Semaphore_Module__root__V
000260d8   ti_sysbios_knl_Semaphore_Object__DESC__C
00025f90   ti_sysbios_knl_Semaphore_Object__PARAMS__C
0001cec1   ti_sysbios_knl_Semaphore_Object__create__S
0001e8fd   ti_sysbios_knl_Semaphore_Object__delete__S
0001ecbd   ti_sysbios_knl_Semaphore_Object__destruct__S
0001fded   ti_sysbios_knl_Semaphore_Params__init__S
0001d8e5   ti_sysbios_knl_Semaphore_construct
0001d389   ti_sysbios_knl_Semaphore_create
00020091   ti_sysbios_knl_Semaphore_delete
00020095   ti_sysbios_knl_Semaphore_destruct
0001cef9   ti_sysbios_knl_Semaphore_pendTimeout__I
00006b7d   ti_sysbios_knl_Semaphore_pend__E
0000d275   ti_sysbios_knl_Semaphore_post__E
0001f631   ti_sysbios_knl_Semaphore_reset__E
00026384   ti_sysbios_knl_Swi_A_badPriority__C
0001f2f7   ti_sysbios_knl_Swi_Handle__label__S
0001ab41   ti_sysbios_knl_Swi_Instance_finalize__E
00011625   ti_sysbios_knl_Swi_Instance_init__E
00026388   ti_sysbios_knl_Swi_LD_end__C
0002638c   ti_sysbios_knl_Swi_LM_begin__C
00026390   ti_sysbios_knl_Swi_LM_post__C
200239e0   ti_sysbios_knl_Swi_Module_State_0_readyQ__A
00026394   ti_sysbios_knl_Swi_Module__diagsEnabled__C
00026398   ti_sysbios_knl_Swi_Module__diagsIncluded__C
0002639c   ti_sysbios_knl_Swi_Module__diagsMask__C
000264cc   ti_sysbios_knl_Swi_Module__id__C
000264ce   ti_sysbios_knl_Swi_Module__loggerDefined__C
000263a0   ti_sysbios_knl_Swi_Module__loggerFxn1__C
000263a4   ti_sysbios_knl_Swi_Module__loggerFxn4__C
000263a8   ti_sysbios_knl_Swi_Module__loggerObj__C
2002378c   ti_sysbios_knl_Swi_Module__root__V
20023794   ti_sysbios_knl_Swi_Module__state__V
0001e921   ti_sysbios_knl_Swi_Module_startup__E
000260f8   ti_sysbios_knl_Swi_Object__DESC__C
00025ed8   ti_sysbios_knl_Swi_Object__PARAMS__C
000263ac   ti_sysbios_knl_Swi_Object__count__C
0001ecdd   ti_sysbios_knl_Swi_Object__delete__S
0001f985   ti_sysbios_knl_Swi_Object__get__S
20023d68   ti_sysbios_knl_Swi_Object__table__V
0001a0ad   ti_sysbios_knl_Swi_create
00020099   ti_sysbios_knl_Swi_delete
0001fc0d   ti_sysbios_knl_Swi_disable__E
0001c33d   ti_sysbios_knl_Swi_enable__E
000263b0   ti_sysbios_knl_Swi_numPriorities__C
00013ba5   ti_sysbios_knl_Swi_post__E
0001a74d   ti_sysbios_knl_Swi_restoreHwi__E
0001b121   ti_sysbios_knl_Swi_runLoop__I
0000e97d   ti_sysbios_knl_Swi_run__I
00019ad9   ti_sysbios_knl_Swi_schedule__I
0001c37d   ti_sysbios_knl_Swi_startup__E
000263b4   ti_sysbios_knl_Task_A_badPriority__C
000263b8   ti_sysbios_knl_Task_A_badTaskState__C
000263bc   ti_sysbios_knl_Task_A_badThreadType__C
000263c0   ti_sysbios_knl_Task_A_badTimeout__C
000263c4   ti_sysbios_knl_Task_A_noPendElem__C
000263c8   ti_sysbios_knl_Task_A_sleepTaskDisabled__C
000263cc   ti_sysbios_knl_Task_E_deleteNotAllowed__C
000263d0   ti_sysbios_knl_Task_E_spOutOfBounds__C
000263d4   ti_sysbios_knl_Task_E_stackOverflow__C
0001f311   ti_sysbios_knl_Task_Handle__label__S
20023680   ti_sysbios_knl_Task_Instance_State_0_hookEnv__A
200220c0   ti_sysbios_knl_Task_Instance_State_0_stack__A
20023684   ti_sysbios_knl_Task_Instance_State_1_hookEnv__A
200226c0   ti_sysbios_knl_Task_Instance_State_1_stack__A
0000772d   ti_sysbios_knl_Task_Instance_finalize__E
0000a3b1   ti_sysbios_knl_Task_Instance_init__E
000263d8   ti_sysbios_knl_Task_LD_block__C
000263dc   ti_sysbios_knl_Task_LD_exit__C
000263e0   ti_sysbios_knl_Task_LD_ready__C
000263e4   ti_sysbios_knl_Task_LM_setPri__C
000263e8   ti_sysbios_knl_Task_LM_sleep__C
000263ec   ti_sysbios_knl_Task_LM_switch__C
200237b8   ti_sysbios_knl_Task_Module_State_0_idleTask__A
20023a60   ti_sysbios_knl_Task_Module_State_0_readyQ__A
000263f0   ti_sysbios_knl_Task_Module_State_inactiveQ__O
000263f4   ti_sysbios_knl_Task_Module_State_terminatedQ__O
000263f8   ti_sysbios_knl_Task_Module__diagsEnabled__C
000263fc   ti_sysbios_knl_Task_Module__diagsIncluded__C
00026400   ti_sysbios_knl_Task_Module__diagsMask__C
000264d0   ti_sysbios_knl_Task_Module__id__C
000264d2   ti_sysbios_knl_Task_Module__loggerDefined__C
00026404   ti_sysbios_knl_Task_Module__loggerFxn2__C
00026408   ti_sysbios_knl_Task_Module__loggerFxn4__C
0002640c   ti_sysbios_knl_Task_Module__loggerObj__C
200237b0   ti_sysbios_knl_Task_Module__root__V
20023b30   ti_sysbios_knl_Task_Module__state__V
00016955   ti_sysbios_knl_Task_Module_startup__E
00026118   ti_sysbios_knl_Task_Object__DESC__C
00025c68   ti_sysbios_knl_Task_Object__PARAMS__C
00026410   ti_sysbios_knl_Task_Object__count__C
00018fa1   ti_sysbios_knl_Task_Object__create__S
0001ecfd   ti_sysbios_knl_Task_Object__delete__S
0001f999   ti_sysbios_knl_Task_Object__first__S
0001fc1d   ti_sysbios_knl_Task_Object__get__S
00026414   ti_sysbios_knl_Task_Object__heap__C
0001f9ad   ti_sysbios_knl_Task_Object__next__S
200238c8   ti_sysbios_knl_Task_Object__table__V
0001fdf9   ti_sysbios_knl_Task_Params__init__S
0002009d   ti_sysbios_knl_Task_SupportProxy_Module__startupDone__S
0001fdbd   ti_sysbios_knl_Task_SupportProxy_checkStack__E
0001fdc9   ti_sysbios_knl_Task_SupportProxy_getStackAlignment__E
0001c8f5   ti_sysbios_knl_Task_SupportProxy_start__E
0001f601   ti_sysbios_knl_Task_SupportProxy_swap__E
00026418   ti_sysbios_knl_Task_allBlockedFunc__C
0001b16d   ti_sysbios_knl_Task_allBlockedFunction__I
00014741   ti_sysbios_knl_Task_blockI__E
000264d4   ti_sysbios_knl_Task_checkStackFlag__C
00013c59   ti_sysbios_knl_Task_checkStacks__E
0001a109   ti_sysbios_knl_Task_create
0002641c   ti_sysbios_knl_Task_defaultStackHeap__C
00026420   ti_sysbios_knl_Task_defaultStackSize__C
000200a1   ti_sysbios_knl_Task_delete
0001adc9   ti_sysbios_knl_Task_deleteTerminatedTasksFunc__I
000264d6   ti_sysbios_knl_Task_deleteTerminatedTasks__C
0001fc2d   ti_sysbios_knl_Task_disable__E
0001ed1d   ti_sysbios_knl_Task_enter__I
0000dda1   ti_sysbios_knl_Task_exit__E
0001ff7d   ti_sysbios_knl_Task_getHookContext__E
000261b0   ti_sysbios_knl_Task_hooks__A
00026238   ti_sysbios_knl_Task_hooks__C
000264d8   ti_sysbios_knl_Task_initStackFlag__C
00026424   ti_sysbios_knl_Task_numConstructedTasks__C
00026428   ti_sysbios_knl_Task_numPriorities__C
000108e9   ti_sysbios_knl_Task_postInit__I
0001c3bd   ti_sysbios_knl_Task_processVitalTaskFlag__I
0001d3bd   ti_sysbios_knl_Task_restore__E
0000fb6d   ti_sysbios_knl_Task_schedule__I
0001fe05   ti_sysbios_knl_Task_self__E
0001ff85   ti_sysbios_knl_Task_setHookContext__E
0000af7d   ti_sysbios_knl_Task_setPri__E
0001ed3d   ti_sysbios_knl_Task_sleepTimeout__I
00009dc9   ti_sysbios_knl_Task_sleep__E
000109e5   ti_sysbios_knl_Task_startCore__E
000200a5   ti_sysbios_knl_Task_startup__E
0001f60d   ti_sysbios_knl_Task_swapReturn
00012f5d   ti_sysbios_knl_Task_unblockI__E
20023638   tpseudo
200235a8   udps
20023644   upseudo
20023538   vlan_mcb
0002642c   xdc_runtime_Assert_E_assertFailed__C
0001b765   xdc_runtime_Assert_raise__I
00026430   xdc_runtime_Core_A_initializedParams__C
00026434   xdc_runtime_Core_Module__diagsEnabled__C
00026438   xdc_runtime_Core_Module__diagsIncluded__C
0002643c   xdc_runtime_Core_Module__diagsMask__C
000264da   xdc_runtime_Core_Module__id__C
0001d3f1   xdc_runtime_Core_assignLabel__I
0001b999   xdc_runtime_Core_assignParams__I
00012865   xdc_runtime_Core_constructObject__I
000104e1   xdc_runtime_Core_createObject__I
000190d5   xdc_runtime_Core_deleteObject__I
00026440   xdc_runtime_Error_E_memory__C
00026444   xdc_runtime_Error_Module__diagsEnabled__C
00026448   xdc_runtime_Error_Module__diagsIncluded__C
0002644c   xdc_runtime_Error_Module__diagsMask__C
000264dc   xdc_runtime_Error_Module__loggerDefined__C
00026450   xdc_runtime_Error_Module__loggerFxn8__C
00026454   xdc_runtime_Error_Module__loggerObj__C
200237bc   xdc_runtime_Error_Module__state__V
0001f661   xdc_runtime_Error_check__E
000200a9   xdc_runtime_Error_getMsg__E
000200ad   xdc_runtime_Error_getSite__E
0001fe11   xdc_runtime_Error_init__E
000264de   xdc_runtime_Error_maxDepth__C
0000f3b5   xdc_runtime_Error_policyDefault__E
00026458   xdc_runtime_Error_policyFxn__C
00025a77   xdc_runtime_Error_policy__C
000188a5   xdc_runtime_Error_print__E
0002645c   xdc_runtime_Error_raiseHook__C
0001f135   xdc_runtime_Error_raiseX__E
0001be21   xdc_runtime_Error_setX__E
0001fe1d   xdc_runtime_Gate_enterSystem__E
0001fc3d   xdc_runtime_Gate_leaveSystem__E
00026460   xdc_runtime_IGateProvider_Interface__BASE__C
00026464   xdc_runtime_IHeap_Interface__BASE__C
00026468   xdc_runtime_IModule_Interface__BASE__C
0002646c   xdc_runtime_Log_L_error__C
00020059   xdc_runtime_Main_Module_GateProxy_query__E
000200b1   xdc_runtime_Memory_HeapProxy_alloc__E
000200b5   xdc_runtime_Memory_HeapProxy_free__E
000264e0   xdc_runtime_Memory_Module__id__C
200237c0   xdc_runtime_Memory_Module__state__V
00018245   xdc_runtime_Memory_alloc__E
0001fe29   xdc_runtime_Memory_calloc__E
00026470   xdc_runtime_Memory_defaultHeapInstance__C
0001fc4d   xdc_runtime_Memory_free__E
0001fe35   xdc_runtime_Memory_getMaxDefaultTypeAlign__E
0001f151   xdc_runtime_Memory_valloc__E
200237c4   xdc_runtime_Registry_Module__state__V
0001ed5d   xdc_runtime_Registry_findById__E
200237cc   xdc_runtime_Startup_Module__state__V
00000001   xdc_runtime_Startup__EXECFXN__C
00000001   xdc_runtime_Startup__RESETFXN__C
00026474   xdc_runtime_Startup_execImpl__C
0001ae19   xdc_runtime_Startup_exec__E
0001faab   xdc_runtime_Startup_exec__I
000261c8   xdc_runtime_Startup_firstFxns__A
00026240   xdc_runtime_Startup_firstFxns__C
00026478   xdc_runtime_Startup_lastFxns__A
00026248   xdc_runtime_Startup_lastFxns__C
0002647c   xdc_runtime_Startup_maxPasses__C
00013fcf   xdc_runtime_Startup_reset__I
000261dc   xdc_runtime_Startup_sfxnRts__A
00026480   xdc_runtime_Startup_sfxnRts__C
00025fb4   xdc_runtime_Startup_sfxnTab__A
00026484   xdc_runtime_Startup_sfxnTab__C
00010ae1   xdc_runtime_Startup_startMods__I
200232a8   xdc_runtime_SysMin_Module_State_0_outbuf__A
200237d4   xdc_runtime_SysMin_Module__state__V
0001ed7d   xdc_runtime_SysMin_Module_startup__E
0001d915   xdc_runtime_SysMin_abort__E
00026488   xdc_runtime_SysMin_bufSize__C
0001f16d   xdc_runtime_SysMin_exit__E
000264e2   xdc_runtime_SysMin_flushAtExit__C
0001be65   xdc_runtime_SysMin_flush__E
0002648c   xdc_runtime_SysMin_outputFunc__C
0001ea9b   xdc_runtime_SysMin_output__I
0001cf31   xdc_runtime_SysMin_putch__E
0001fc5d   xdc_runtime_SysMin_ready__E
000200b9   xdc_runtime_System_Module_GateProxy_enter__E
000200bd   xdc_runtime_System_Module_GateProxy_leave__E
00020059   xdc_runtime_System_Module_GateProxy_query__E
200237e0   xdc_runtime_System_Module_State_0_atexitHandlers__A
00026490   xdc_runtime_System_Module__gateObj__C
20023800   xdc_runtime_System_Module__state__V
0001ffe7   xdc_runtime_System_Module_startup__E
0001d915   xdc_runtime_System_SupportProxy_abort__E
0001f16d   xdc_runtime_System_SupportProxy_exit__E
0001be65   xdc_runtime_System_SupportProxy_flush__E
0001cf31   xdc_runtime_System_SupportProxy_putch__E
0001fc5d   xdc_runtime_System_SupportProxy_ready__E
00026494   xdc_runtime_System_abortFxn__C
0001bd59   xdc_runtime_System_abortStd__E
0001f189   xdc_runtime_System_abort__E
0001f32b   xdc_runtime_System_aprintf__E
000200c1   xdc_runtime_System_aprintf_va__F
0001cf69   xdc_runtime_System_atexit__E
0001e599   xdc_runtime_System_avprintf__E
00006529   xdc_runtime_System_doPrint__I
00026498   xdc_runtime_System_exitFxn__C
0001bd61   xdc_runtime_System_exitStd__E
0001f679   xdc_runtime_System_exit__E
0002649c   xdc_runtime_System_extendFxn__C
0001be65   xdc_runtime_System_flush__E
00019b39   xdc_runtime_System_formatNum__I
000264a0   xdc_runtime_System_maxAtexitHandlers__C
000105e5   xdc_runtime_System_printfExtend__I
0001f345   xdc_runtime_System_printf__E
000200c5   xdc_runtime_System_printf_va__F
0001d945   xdc_runtime_System_processAtExit__E
0001e08b   xdc_runtime_System_putchar__I
0001e945   xdc_runtime_System_vprintf__E
0001fc6d   xdc_runtime_System_vsnprintf__E
0001f7dd   xdc_runtime_System_vsprintf__E
20023808   xdc_runtime_Text_Module__state__V
000264e4   xdc_runtime_Text_charCnt__C
000200c8   xdc_runtime_Text_charTab__A
000264a4   xdc_runtime_Text_charTab__C
0001dee1   xdc_runtime_Text_cordText__E
000264e6   xdc_runtime_Text_isLoaded__C
000264a8   xdc_runtime_Text_nameEmpty__C
000264ac   xdc_runtime_Text_nameStatic__C
000264b0   xdc_runtime_Text_nameUnknown__C
00025710   xdc_runtime_Text_nodeTab__A
000264b4   xdc_runtime_Text_nodeTab__C
0001d425   xdc_runtime_Text_printVisFxn__I
0001a1c1   xdc_runtime_Text_putLab__E
0001586d   xdc_runtime_Text_putMod__E
00015285   xdc_runtime_Text_putSite__E
000264e8   xdc_runtime_Text_registryModsLastId__C
0001f691   xdc_runtime_Text_ropeText__E
000264ea   xdc_runtime_Text_unnamedModsLastId__C
0001ae69   xdc_runtime_Text_visitRope2__I
000264b8   xdc_runtime_Text_visitRopeFxn__C
0001fc7d   xdc_runtime_Text_visitRope__I
0001c9e5   xdc_runtime_Text_xprintf__I
000122b9   xdc_runtime_Timestamp_SupportProxy_get32__E
0001fb8d   xdc_runtime_Timestamp_SupportProxy_getFreq__E
000122b9   xdc_runtime_Timestamp_get32__E
0001fb8d   xdc_runtime_Timestamp_getFreq__E


GLOBAL SYMBOLS: SORTED BY Symbol Address 

address    name
--------   ----
00000000   __ASM__
00000000   __TI_static_base__
00000000   ti_sysbios_family_arm_m3_Hwi_resetVectors
00000001   __TI_args_main
00000001   xdc_runtime_Startup__EXECFXN__C
00000001   xdc_runtime_Startup__RESETFXN__C
00000071   __ISA__
00000084   __PLAT__
000000a5   __TARG__
000000cb   __TRDR__
00000400   __STACK_SIZE
000013c5   TcpInput
00001f99   TcpOutput
000035cb   LED_TOGGLE
00003ad9   ti_sysbios_family_arm_m3_Hwi_excDumpRegs__I
00003efd   PemToDer
0000471d   IPTxPacket
00004b19   tcpHandler
00005a57   NatMsg
00005a59   InitSSL
00005e15   IPRxPacket
000061a5   fp_div
00006529   xdc_runtime_System_doPrint__I
00006b7d   ti_sysbios_knl_Semaphore_pend__E
00006e7d   ProcessReply
00007459   HOSTwrite
000074a5   HOSTunlink
000074dd   HOSTtime
00007517   HOSTrename
00007575   HOSTread
000075c1   HOSTopen
00007613   HOSTlseek
0000766f   HOSTgetenv
000076ad   HOSTclose
000076e5   HOSTclock
0000772d   ti_sysbios_knl_Task_Instance_finalize__E
00007f79   SockSet
000081e9   IPReasm
00008431   ti_sysbios_family_arm_lm4_Timer_start__E
00008679   ti_sysbios_heaps_HeapMem_free__E
000088c1   ICMPInput
00008af5   ti_sysbios_heaps_HeapMem_alloc__E
00008d29   SendClientKeyExchange
00008f51   ProcessOldClientHello
00009175   fp_invmod
00009175   mp_invmod
00009399   UdpInput
000095b5   ti_sysbios_family_arm_m3_Hwi_excHandlerMax__I
000097c1   ti_catalog_arm_cortexm4_tiva_ce_Boot_sysCtlClockFreqSetI__I
00009bc7   SockRecv
00009dc7   _TaskInit
00009dc9   TaskSleep
00009dc9   ti_sysbios_knl_Task_sleep__E
00009fc5   SetCipherSpecs
0000a1bd   __aeabi_uldivmod
0000a3b1   ti_sysbios_knl_Task_Instance_init__E
0000a595   EMACSnow_NIMUInit
0000a74d   LLITxIpPacket
0000a901   LLIRxPacket
0000ac51   mmAlloc
0000ade9   SockNew
0000af7d   ti_sysbios_knl_Task_setPri__E
0000b111   IGMPInput
0000b42d   InitSuites
0000b5ad   SendClientHello
0000ba11   fp_sqr_comba
0000bb85   RTCReport
0000bcf5   CyaSSL_accept
0000bfcf   _TaskShutdown
0000bfd1   SendCertificateVerify
0000c139   ti_sysbios_family_arm_m3_Hwi_excBusFault__I
0000c2a1   SBRead
0000c407   _llSerialServiceCheck
0000c409   SockConnect
0000c56d   ParseCertRelative
0000c6cd   AddSession
0000cac9   gmtime
0000cd5d   ti_sysbios_family_arm_m3_Hwi_dispatchC__I
0000cea5   ti_sysbios_family_arm_m3_Hwi_excUsageFault__I
0000cfed   BindNew
0000d131   NC_NetStart
0000d275   ti_sysbios_knl_Semaphore_post__E
0000d4f9   TcpTimeoutCheck
0000d639   ti_sysbios_knl_Clock_workFunc__E
0000d779   SockSend
0000d8b7   _llSerialShutdown
0000d8b9   CfgAddEntry
0000d9f5   SetAlgoID
0000db31   AddCA
0000dc69   ti_sysbios_heaps_HeapMem_Instance_init__E
0000dda1   TaskExit
0000dda1   ti_sysbios_knl_Task_exit__E
0000ded9   ti_sysbios_family_arm_m3_Hwi_excMemFault__I
0000e13d   GPIOPadConfigSet
0000e39b   CyaSSL_connect
0000e5f7   _llUserLedInit
0000e5f9   EK_TM4C1294XL_initEMAC
0000e725   ICMPGenPacket
0000e851   main
0000e97d   ti_sysbios_knl_Swi_run__I
0000eaa5   Base64_Decode
0000ebc9   UdpOutput
0000eced   ti_ndk_config_Global_stackThread
0000ee11   ti_sysbios_knl_Clock_Instance_init__E
0000ef35   DHCPOpen
0000f055   SockPcbResolve
0000f175   fp_mul_comba
0000f295   tcpWorker
0000f3b5   xdc_runtime_Error_policyDefault__E
0000f4d5   TcpGenPacket
0000f5f1   fp_montgomery_reduce
0000f827   _llUserLedShutdown
0000f829   SockNotify
0000fa57   llSerialService
0000fb6d   ti_sysbios_knl_Task_schedule__I
0000fc81   NodeTreeFree
0000fd91   NIMUIoctl
000100b9   RtCreate
000101c5   RtFind
000103dd   RawInput
000104e1   xdc_runtime_Core_createObject__I
000105e5   xdc_runtime_System_printfExtend__I
000107eb   ti_ndk_config_global_taskCreateHook
000108e9   ti_sysbios_knl_Task_postInit__I
000109e5   ti_sysbios_knl_Task_startCore__E
00010ae1   xdc_runtime_Startup_startMods__I
00010bdd   EMACSnow_emacStart
00010cd5   PipeRecv
00010ec5   LLIGenArpPacket
00010fb9   llEnter
000110ad   ti_sysbios_family_arm_m3_Hwi_dispatch__I
000111a1   SockClose
0001137b   SendData
00011467   dhcpSocketOpen
00011547   ti_ndk_config_global_taskExitHook
00011549   GetSession
00011625   ti_sysbios_knl_Swi_Instance_init__E
00011701   InitSSL_Ctx
000117d9   NodeAdd
000118b1   SBWrite
00011989   SockPcbBind
00011a61   dhcpPacketProcess
00011b39   dhcpState
00011c11   DeriveKeys
00011ce7   SendServerHello
00011dbd   NIMUReceivePacket
00011e93   ti_sysbios_BIOS_nullFunc__I
00011f69   SendFinished
0001203d   TcpPrSetOption
00012111   TcpTimeoutRexmt
000122b9   ti_sysbios_family_arm_lm4_TimestampProvider_get32__E
000122b9   xdc_runtime_Timestamp_SupportProxy_get32__E
000122b9   xdc_runtime_Timestamp_get32__E
0001238d   ti_sysbios_family_arm_m3_Hwi_postInit__I
00012461   ValidateDate
00012533   SendCertificate
00012601   RawEthSockNew
00012865   xdc_runtime_Core_constructObject__I
00012931   dhcpVerifyMessage
000129fb   RsaPrivateKeyDecode
00012ac3   ti_sysbios_gates_GateHwi_Instance_init__E
00012ac5   EMACSnow_InitDMADescriptors
00012c4d   ICMPSendRtAdv
00012e99   s_fp_sub
00012f5d   ti_sysbios_knl_Task_unblockI__E
000130e1   HmacFinal
00013259   TaskGetEnv
00013489   EK_TM4C1294XL_initGeneral
00013541   SendCertificateRequest
000135f9   TaskSetEnv
000136b1   s_fp_add
00013769   InitDecodedCert
000138d5   HmacSetKey
00013a3d   ti_sysbios_family_arm_lm4_Timer_enableTiva__I
00013af1   ti_sysbios_gates_GateMutex_enter__E
00013ba5   ti_sysbios_knl_Swi_post__E
00013c59   ti_sysbios_knl_Task_checkStacks__E
00013d0d   SSL_ResourceFree
00013e6f   RawEthSockSet
00013f1f   Sha256Final
00013fcf   xdc_runtime_Startup_reset__I
00013fd1   SockCreatePacket
00014081   _LLITimeoutCheck
00014131   ti_sysbios_family_arm_lm4_Timer_Module_startup__E
000141e1   ti_sysbios_family_arm_lm4_Timer_enableTimers__I
00014291   ti_sysbios_family_arm_m3_Hwi_excHardFault__I
00014341   fp_div_2d
0001449d   SendAlert
00014547   ShaFinal
00014699   TcpTimeoutKeep
00014741   ti_sysbios_knl_Task_blockI__E
0001488f   ReceiveData
00014935   SendServerKeyExchange
000149dd   VLANDeinit
00014a81   ti_sysbios_family_arm_m3_Hwi_excDebugMon__I
00014b25   GetAlgoId
00014bc9   __TI_auto_init
00014c69   ti_sysbios_family_arm_m3_Hwi_Instance_init__E
00014da9   ExecOpen
00014f7d   __aeabi_memcpy
00014f7d   __aeabi_memcpy4
00014f7d   __aeabi_memcpy8
00014f7d   memcpy
00015019   ti_sysbios_family_arm_lm4_Timer_setNextTick__E
000150b5   ti_sysbios_knl_Semaphore_Instance_init__E
00015151   StoreKeys
000151eb   ToTraditional
00015285   xdc_runtime_Text_putSite__E
00015321   NIMUAddEthernetHeader
00015455   IPGetRoute
000154ed   NC_SystemOpen
00015585   ti_sysbios_knl_Clock_startI__E
0001561d   CfgExecute
000156b1   CfgRemoveEntry
000157d9   ti_catalog_arm_cortexm4_tiva_ce_Boot_sysCtlClockFreqSet__E
0001586d   xdc_runtime_Text_putMod__E
00015995   BuildTlsFinished
00015a25   IGMPMsg
00015ab5   MYTIME_init
00015b45   SockPcbCtlError
00015bd5   _mmInit
00015c65   dhcpBuildRequest
00015d83   fp_mul_2d
00015f29   Md5Final
00015fb5   SendBuffered
00016041   mmBulkAlloc
00016159   ti_sysbios_family_arm_m3_TaskSupport_buildTaskStack
000161e5   GrowInputBuffer
000162f9   fp_div_2
00016383   fp_mod_2d
0001640d   fp_mul_d
000166b9   ti_sysbios_family_arm_m3_Hwi_initNVIC__E
000167c7   DoFinished
0001684d   TcpPrAttach
000168d1   mmBulkFree
00016955   ti_sysbios_knl_Task_Module_startup__E
00016a5b   fdClose
00016bdd   NS_BootTask
00016c5d   PBM_alloc
00016cdd   RawOutput
00016e5d   mmFree
00016fdd   SemCreateBinary
0001705d   CfgGetEntry
000170d9   CfgGetNextEntry
000171d1   EMACSnow_processPhyInterrupt
0001724d   IPMsg
000172c9   PBM_free
00017345   GetInt
000173bf   NDK_send
000174b1   EMACInit
00017529   LLINew
000175a1   NDK_sendto
00017619   NIMURegister
00017691   SockAccept
00017709   __aeabi_memclr
00017709   __aeabi_memclr4
00017709   __aeabi_memclr8
0001770b   __aeabi_memset
0001770b   __aeabi_memset4
0001770b   __aeabi_memset8
00017711   memset
00017781   fdOpenSession
0001786f   NDK_setsockopt
00017a45   NDK_recv
00017ab9   PipeSend
00017b2d   RawEthRxPacket
00017ba1   SockPcbConnect
00017c15   TcpXmitTimer
00017c89   dhcpDecodeType
00017d6f   IGMPJoin
00017de1   RtWalkNext
00017ec5   DeriveTlsKeys
00017f35   EMACSnow_hwiIntFxn
00017fa5   IGMPLeaveHostGroup
00018085   SockShutdown
000180f5   TLS_hmac
00018165   fp_exptmod
00018165   mp_exptmod
000181d5   llExit
00018245   xdc_runtime_Memory_alloc__E
000182b5   NDK_socket
00018323   Sha256Update
00018391   fp_rshd
00018401   CyaSSL_Cleanup
0001846d   DbgPrintf
000184d9   EMACSnow_emacStop
00018545   NIMUShutdown
000185b1   NodeTreeNew
0001861d   RawEthTxPacket
00018689   SockListen
000186f5   _RtNodeInsert
00018761   ti_ndk_config_ip_init
000187cd   ti_sysbios_family_arm_m3_Hwi_Object__create__S
00018839   ti_sysbios_knl_Clock_start__E
000188a5   xdc_runtime_Error_print__E
0001897b   NDK_accept
000189e5   TcpPrInherit
00018a4f   fp_lshd
00018ab9   fp_mul_2
00018bf9   CfgFree
00018c61   EmbedReceive
00018cc9   MakeTlsMasterSecret
00018d31   PBM_open
00018e01   ShaUpdate
00018ed1   UdpChecksum
00018f39   fp_montgomery_calc_normalization
00018fa1   ti_sysbios_knl_Task_Object__create__S
00019009   DoApplicationData
000190d5   xdc_runtime_Core_deleteObject__I
0001913d   TcpTimeoutSackRexmt
00019209   FdWaitEvent
0001926d   PBMQ_enq
000192d1   ParseCert
00019335   RsaPublicEncrypt
00019399   RsaSSL_Sign
000193fd   SemCreate
00019461   fp_read_unsigned_bin
000194c5   llTimerTick
00019529   ti_sysbios_family_arm_lm4_Timer_isrStub__E
0001958d   ti_sysbios_hal_Hwi_create
00019655   SBNew
000196b9   CfgGetEntryCnt
00019719   DecodeToKey
00019779   FreeHandshakeResources
000197d9   NIMUUnregister
00019839   NodeFind
00019899   RTCMsg
00019959   dhcpBuildOptions
000199b9   __TI_writemsg
000199e3   C$$IO$$
000199e7   __TI_readmsg
00019a19   ti_ndk_config_Global_serviceReport
00019a79   ti_sysbios_knl_Clock_logTick__E
00019ad9   ti_sysbios_knl_Swi_schedule__I
00019b39   xdc_runtime_System_formatNum__I
00019bf7   EncodeSignature
00019cb3   RtRemove
00019dcd   CfgSetExecuteOrder
00019ee1   RtRedirect
00019f3d   ShrinkInputBuffer
00019f99   SockSpawnAbort
00019ff5   TcpChecksum
0001a051   VLANReceivePacket
0001a0ad   ti_sysbios_knl_Swi_create
0001a109   ti_sysbios_knl_Task_create
0001a1c1   xdc_runtime_Text_putLab__E
0001a21d   TcpValidateMetrics
0001a277   dhcpBuildDecline
0001a2d1   ti_ndk_config_tcp_init
0001a32d   BindFree
0001a385   _c_int00
0001a3dd   CyaSSL_Init
0001a48d   EMACPHYConfigSet
0001a53d   InitSha256
0001a595   Md5Update
0001a69d   fp_mod
0001a69d   mp_mod
0001a6f5   ti_sysbios_family_arm_m3_Hwi_initStacks__E
0001a74d   ti_sysbios_knl_Swi_restoreHwi__E
0001a7a5   Arc4SetKey
0001a7f9   CfgEntryDeRef
0001a8a1   Des3_SetKey
0001a949   IGMPLeave
0001a99d   RawEthSockPcbAttach
0001a9f1   RsaPublicKeyDecode
0001aa45   mmCopy
0001aa99   ti_sysbios_family_arm_m3_Hwi_Instance_finalize__E
0001aaed   ti_sysbios_family_arm_m3_Hwi_Module_startup__E
0001ab41   ti_sysbios_knl_Swi_Instance_finalize__E
0001abe7   GetCAByName
0001ac37   NDK_bind
0001acd9   SysCtlPeripheralReset
0001ad29   TcpPrDetach
0001adc9   ti_sysbios_knl_Task_deleteTerminatedTasksFunc__I
0001ae19   xdc_runtime_Startup_exec__E
0001ae69   xdc_runtime_Text_visitRope2__I
0001aeb9   AesCbcDecrypt
0001af07   Des3_CbcDecrypt
0001af55   NodeDeRef
0001afa3   GetCA
0001afef   HmacUpdate
0001b03d   NtAddNetwork
0001b089   SockValidateRoute
0001b0d5   srand
0001b0eb   rand
0001b121   ti_sysbios_knl_Swi_runLoop__I
0001b16d   ti_sysbios_knl_Task_allBlockedFunction__I
0001b203   SockDisconnect
0001b297   fp_sub
0001b2e1   fp_to_unsigned_bin
0001b32b   AlreadySigner
0001b373   CfgNew
0001b405   GPIOPinConfigure
0001b495   LLIMsg
0001b4dd   NodeWalk
0001b525   SockPcbResolveChain
0001b56d   TcpDrop
0001b5b5   TcpTimeoutPersist
0001b5fd   _LLIExpListInsert
0001b645   _RtExpListInsert
0001b68d   fdint_lockfd
0001b6d5   ti_sysbios_family_arm_m3_Hwi_excReserved__I
0001b71d   ti_sysbios_heaps_HeapMem_getStats__E
0001b765   xdc_runtime_Assert_raise__I
0001b7ad   CyaSSL_SetTlsHmacInner
0001b7f3   NtIfIdx2Ip
0001b839   RawEthSockSend
0001b87f   SendChangeCipher
0001b8c5   SendServerHelloDone
0001b90d   TimerNew
0001b953   fp_add
0001b999   xdc_runtime_Core_assignParams__I
0001b9e1   CyaSSL_CTX_new
0001ba25   GenerateSeed
0001ba69   GetLength
0001baad   IPReasmFree
0001baf1   LLIGetValidTime
0001bb35   RawEthSockPcbDetach
0001bb79   RouteMsg
0001bbbd   RtWalkEnd
0001bc01   SetLength
0001bc89   fp_cmp_mag
0001bccd   llTimerGetTime
0001bd11   copy_in
0001bd55   C$$EXIT
0001bd59   abort
0001bd59   xdc_runtime_System_abortStd__E
0001bd61   exit
0001bd61   xdc_runtime_System_exitStd__E
0001bd99   ti_sysbios_family_arm_m3_Hwi_disableInterrupt__E
0001bd99   ti_sysbios_hal_Hwi_HwiProxy_disableInterrupt__E
0001bd99   ti_sysbios_hal_Hwi_disableInterrupt__E
0001bddd   ti_sysbios_family_arm_m3_Hwi_enableInterrupt__E
0001bddd   ti_sysbios_hal_Hwi_HwiProxy_enableInterrupt__E
0001bddd   ti_sysbios_hal_Hwi_enableInterrupt__E
0001be21   xdc_runtime_Error_setX__E
0001be65   xdc_runtime_SysMin_flush__E
0001be65   xdc_runtime_System_SupportProxy_flush__E
0001be65   xdc_runtime_System_flush__E
0001bea9   Des3_CbcEncrypt
0001beeb   EmbedSend
0001bf2d   FreeDecodedCert
0001bf6f   NDK_listen
0001c035   TaskCreate
0001c077   fdCloseSession
0001c0b9   __aeabi_uidivmod
0001c0fb   PBM_copy
0001c13d   SockPcbDetach
0001c17d   SockPcbRtChange
0001c1bd   TcpPrDisconnect
0001c1fd   TcpPrSendOOB
0001c23d   mmZeroInit
0001c27d   mystrnstr
0001c2bd   ti_sysbios_family_arm_lm4_Timer_getCurrentTick__E
0001c2fd   ti_sysbios_family_arm_lm4_Timer_startup__E
0001c2fd   ti_sysbios_knl_Clock_TimerProxy_startup__E
0001c33d   ti_sysbios_knl_Swi_enable__E
0001c37d   ti_sysbios_knl_Swi_startup__E
0001c3bd   ti_sysbios_knl_Task_processVitalTaskFlag__I
0001c3fd   AesCbcEncrypt
0001c43b   DHCPClose
0001c4f5   TcpPrCtlError
0001c533   fdint_unlockfd
0001c571   Arc4Process
0001c5ad   CfgEntryGetData
0001c625   EMACIntDisable
0001c661   FreeSSL_Ctx
0001c751   LLIValidateRoute
0001c7c9   RtWalkBegin
0001c805   SSL_CtxResourceFree
0001c87d   fp_rshb
0001c87d   mp_rshb
0001c8b9   ti_sysbios_family_arm_m3_Hwi_excSvCall__I
0001c8f5   ti_sysbios_family_arm_m3_TaskSupport_start__E
0001c8f5   ti_sysbios_knl_Task_SupportProxy_start__E
0001c931   ti_sysbios_heaps_HeapMem_init__I
0001c96d   ti_sysbios_knl_Clock_Object__create__S
0001c9a9   ti_sysbios_knl_Clock_create
0001c9e5   xdc_runtime_Text_xprintf__I
0001ca5b   EMACIntEnable
0001ca95   ICMPChecksum
0001cacf   _RtNodeRemove
0001cb41   EMACConfigGet
0001cb79   IPReasmTimeout
0001cbb1   InitSha
0001cbe9   NodeGetRt
0001cc21   SysCtlPeripheralReady
0001cc59   TcpClose
0001cc91   TcpPrConnect
0001ccc9   TcpSetPersist
0001cd01   _llTimerInit
0001cd39   dhcpBuildDiscover
0001cd71   dhcpOptionsClear
0001cda9   fdint_waitevent
0001cde1   fp_mulmod
0001cde1   mp_mulmod
0001ce19   ti_sysbios_family_arm_m3_Hwi_excNoIsr__I
0001ce51   ti_sysbios_family_arm_m3_Hwi_getStackInfo__E
0001ce51   ti_sysbios_hal_Hwi_HwiProxy_getStackInfo__E
0001ce51   ti_sysbios_hal_Hwi_getStackInfo__E
0001ce89   ti_sysbios_knl_Clock_getTicks__E
0001cec1   ti_sysbios_knl_Semaphore_Object__create__S
0001cef9   ti_sysbios_knl_Semaphore_pendTimeout__I
0001cf31   xdc_runtime_SysMin_putch__E
0001cf31   xdc_runtime_System_SupportProxy_putch__E
0001cf69   xdc_runtime_System_atexit__E
0001cfd7   FreeCiphers
0001d00d   GetSequence
0001d043   GetSet
0001d079   fp_cmp
0001d079   mp_cmp
0001d0b1   CfgSetService
0001d0e5   EMACConfigSet
0001d119   EMACIntClear
0001d14d   EMAC_init
0001d181   NIMUFindByName
0001d1b5   NIMUInit
0001d1e9   SockGetName
0001d21d   SysCtlPeripheralEnable
0001d251   TcpPrSend
0001d285   TimerHSTick
0001d2b9   fp_2expt
0001d2ed   fp_montgomery_setup
0001d321   ti_sysbios_family_arm_m3_Hwi_excNmi__I
0001d355   ti_sysbios_hal_Hwi_checkStack
0001d389   ti_sysbios_knl_Semaphore_create
0001d3bd   ti_sysbios_knl_Task_restore__E
0001d3f1   xdc_runtime_Core_assignLabel__I
0001d425   xdc_runtime_Text_printVisFxn__I
0001d459   CfgGetImmediate
0001d4bd   RtDeRef
0001d4ef   SBSetMax
0001d521   SockIntAbort
0001d585   EMACAddrSet
0001d5e5   IPChecksum
0001d615   NS_PreBoot
0001d645   SBFlush
0001d675   SockBind
0001d6a5   SockCleanPcb
0001d6d5   SockPrCtlError
0001d735   dhcpPacketSend
0001d765   fp_cmp_d
0001d765   mp_cmp_d
0001d795   list_remove_node
0001d7f5   strncpy
0001d825   ti_sysbios_BIOS_atExitFunc__I
0001d855   ti_sysbios_gates_GateHwi_Object__create__S
0001d885   ti_sysbios_gates_GateMutex_Object__create__S
0001d8b5   ti_sysbios_heaps_HeapMem_Object__create__S
0001d8e5   ti_sysbios_knl_Semaphore_construct
0001d915   xdc_runtime_SysMin_abort__E
0001d915   xdc_runtime_System_SupportProxy_abort__E
0001d945   xdc_runtime_System_processAtExit__E
0001d9a3   CyaSSL_GetHmacType
0001d9d1   CyaSSL_new
0001d9ff   FreeArrays
0001da2d   FreeSigner
0001dab7   RawEthSockNotify
0001dae5   RtSetFailure
0001db13   SBFree
0001db41   ShrinkOutputBuffer
0001db6f   malloc
0001db9d   CyaSSL_CertManagerNew
0001dbc9   EK_TM4C1294XL_initGPIO
0001dbf5   EMACIntStatus
0001dc21   FdSignalEvent
0001dc4d   GetMyVersion
0001dca5   InitMd5
0001dcd1   InitMutex
0001dcfd   InitRng
0001dd29   NDK_hookCreate
0001dd81   PipeClose
0001ddad   RsaSSL_VerifyInline
0001ddd9   SockPcbAttach
0001de31   ti_sysbios_hal_Hwi_initStack
0001de5d   ti_sysbios_knl_Clock_Module_startup__E
0001de89   ti_sysbios_knl_Clock_doTick__I
0001deb5   ti_sysbios_knl_Queue_construct
0001dee1   xdc_runtime_Text_cordText__E
0001df8f   CyaSSL_CTX_load_verify_buffer
0001dfe3   GPIODirModeSet
0001e00d   PBMQ_deq
0001e037   RsaPrivateDecryptInline
0001e08b   xdc_runtime_System_putchar__I
0001e0b5   BindFindByNet
0001e0dd   EMACSnow_isLinkUp
0001e105   EMACSnow_pkt_service
0001e12d   IGMPTestGroup
0001e17d   NC_SystemClose
0001e1a5   NIMUCreatePacket
0001e1cd   NIMUPacketServiceCheck
0001e295   VLANInit
0001e2bd   _LLIExpListRemove
0001e2e5   _LLITimeoutFlush
0001e30d   _RtExpListRemove
0001e335   dhcpPacketReceive
0001e35d   ti_sysbios_hal_Hwi_Instance_init__E
0001e385   AesSetIV
0001e3ab   CyaTLSv1_server_method
0001e3d1   EMACPHYRead
0001e3f7   EMACPHYWrite
0001e41d   FreeSignerTable
0001e469   RawEthSockClose
0001e48f   RtSetTimeout
0001e4db   fp_count_bits
0001e4db   mp_count_bits
0001e501   fp_reverse
0001e527   strncmp
0001e54d   ti_ndk_config_udp_init
0001e573   ti_sysbios_family_arm_m3_Hwi_pendSV__I
0001e597   ti_sysbios_family_arm_m3_Hwi_return
0001e599   xdc_runtime_System_avprintf__E
0001e5bf   BindGetIFByDBCast
0001e5e3   CyaSSL_negotiate
0001e607   Des3_SetIV
0001e62d   EMACSnow_emacPoll
0001e675   ExecTimer
0001e699   GPIO_init
0001e6bd   NIMUFindByIndex
0001e6e1   NIMUPacketService
0001e705   RawEthSockPcbFind
0001e74d   SockPcbCleanup
0001e771   TcpPrListen
0001e795   TcpTimeoutWait2
0001e801   memmove
0001e825   ti_sysbios_BIOS_errorRaiseHook__I
0001e849   ti_sysbios_BIOS_registerRTSLock__I
0001e86d   ti_sysbios_BIOS_removeRTSLock__I
0001e891   ti_sysbios_BIOS_startFunc__I
0001e8b5   ti_sysbios_family_arm_m3_Hwi_doTaskRestore__I
0001e8d9   ti_sysbios_gates_GateMutex_Object__delete__S
0001e8fd   ti_sysbios_knl_Semaphore_Object__delete__S
0001e921   ti_sysbios_knl_Swi_Module_startup__E
0001e945   xdc_runtime_System_vprintf__E
0001e98b   CfgEntryInfo
0001e9ad   CfgEntryRef
0001e9cf   CheckAvailableSize
0001e9f1   RNG_GenerateBlock
0001ea35   VerifyClientSuite
0001ea57   memcmp
0001ea9b   xdc_runtime_SysMin_output__I
0001eabd   BindFindByHost
0001eadd   CyaSSL_GetMacSecret
0001eafd   FreeAltNames
0001eb1d   FreeNameSubtrees
0001eb3d   NC_BootComplete
0001eb7d   RTCAddHook
0001eb9d   RTCRemoveHook
0001ebbd   fp_set
0001ebdd   ti_sysbios_family_arm_m3_Hwi_Object__delete__S
0001ebfd   ti_sysbios_family_arm_m3_Hwi_excHandlerAsm__I
0001ec1d   ti_sysbios_family_arm_m3_Hwi_excHandler__I
0001ec3d   ti_sysbios_gates_GateHwi_Object__delete__S
0001ec5d   ti_sysbios_hal_Hwi_Object__delete__S
0001ec7d   ti_sysbios_heaps_HeapMem_Object__delete__S
0001ec9d   ti_sysbios_knl_Idle_run__E
0001ecbd   ti_sysbios_knl_Semaphore_Object__destruct__S
0001ecdd   ti_sysbios_knl_Swi_Object__delete__S
0001ecfd   ti_sysbios_knl_Task_Object__delete__S
0001ed1d   ti_sysbios_knl_Task_enter__I
0001ed3d   ti_sysbios_knl_Task_sleepTimeout__I
0001ed5d   xdc_runtime_Registry_findById__E
0001ed7d   xdc_runtime_SysMin_Module_startup__E
0001ed9d   AesSetKey
0001edbb   CyaSSL_CertManagerFree
0001edd9   CyaSSL_set_fd
0001edf7   CyaSSL_write
0001ee15   IsAtLeastTLSv1_2
0001ee33   LLIFree
0001ee51   MakeSigner
0001ee6f   fdError
0001ee8d   fp_unsigned_bin_size
0001ee8d   mp_unsigned_bin_size
0001eeab   list_remove
0001eec9   ti_sysbios_family_xxx_Hwi_switchAndRunFunc
0001eee7   ti_sysbios_hal_Hwi_HwiProxy_create
0001ef21   BindFindByIF
0001ef91   EMACSnow_init
0001efc9   ExecClose
0001f039   NDK_sprintf
0001f055   NIMUAddHeader
0001f071   SockPrDetach
0001f08d   TaskDestroy
0001f0a9   TcpTimeoutRemove
0001f0c5   exitApp
0001f0e1   ti_sysbios_BIOS_rtsLock__I
0001f0fd   ti_sysbios_gates_GateMutex_Instance_init__E
0001f119   ti_sysbios_knl_Queue_Object__destruct__S
0001f135   xdc_runtime_Error_raiseX__E
0001f151   xdc_runtime_Memory_valloc__E
0001f16d   xdc_runtime_SysMin_exit__E
0001f16d   xdc_runtime_System_SupportProxy_exit__E
0001f189   xdc_runtime_System_abort__E
0001f1a5   CyaSSL_CTX_use_PrivateKey_buffer
0001f1bf   FreeSSL
0001f1f3   InitCipherSpecs
0001f20d   InitSSL_Method
0001f241   SockSetOOBMark
0001f25b   fdint_getfdt
0001f28f   ti_sysbios_family_arm_m3_Hwi_Handle__label__S
0001f2a9   ti_sysbios_gates_GateHwi_Handle__label__S
0001f2c3   ti_sysbios_gates_GateMutex_Handle__label__S
0001f2dd   ti_sysbios_heaps_HeapMem_Handle__label__S
0001f2f7   ti_sysbios_knl_Swi_Handle__label__S
0001f311   ti_sysbios_knl_Task_Handle__label__S
0001f32b   xdc_runtime_System_aprintf__E
0001f345   xdc_runtime_System_printf__E
0001f361   CyaSSL_Free
0001f379   CyaSSL_Malloc
0001f391   EMACSnow_emacSend
0001f3a9   GPIOPinTypeGPIOOutput
0001f3c1   IPRtChange
0001f3d9   InitRsaKey
0001f3f1   MakeTLSv1
0001f409   RawEthSockPcbCleanup
0001f4f9   TcpTimeoutAdd
0001f541   dhcpSocketClose
0001f559   free
0001f571   list_add
0001f589   _args_main
0001f5a1   strcmp
0001f5b9   ti_sysbios_BIOS_rtsUnlock__I
0001f5d1   ti_sysbios_family_arm_lm4_Timer_Module__startupDone__F
0001f5d1   ti_sysbios_family_arm_lm4_Timer_Module__startupDone__S
0001f5e9   ti_sysbios_family_arm_m3_Hwi_Module__startupDone__F
0001f5e9   ti_sysbios_family_arm_m3_Hwi_Module__startupDone__S
0001f601   ti_sysbios_family_arm_m3_TaskSupport_swap__E
0001f601   ti_sysbios_knl_Task_SupportProxy_swap__E
0001f60d   ti_sysbios_knl_Task_swapReturn
0001f619   ti_sysbios_gates_GateMutex_leave__E
0001f631   ti_sysbios_knl_Semaphore_reset__E
0001f661   xdc_runtime_Error_check__E
0001f679   xdc_runtime_System_exit__E
0001f691   xdc_runtime_Text_ropeText__E
0001f6a9   BindGetIP
0001f72d   EMACReset
0001f743   EMACRxEnable
0001f759   EMACTxEnable
0001f76f   InitCiphers
0001f79b   fdint_freefdt
0001f7b1   ti_sysbios_BIOS_exitFunc__I
0001f7dd   xdc_runtime_System_vsprintf__E
0001f7f3   BindIPHost2IF
0001f807   CyaSSL_CTX_use_certificate_buffer
0001f81d   FlashUserGet
0001f831   IsTLS
0001f845   NC_NetStop
0001f859   NDK_hookExit
0001f86d   NIMUSendPacket
0001f881   NtRemoveNetwork
0001f895   RawEthSockPcbInit
0001f8a9   TimerFree
0001f8e5   _register_unlock
0001f8eb   _register_lock
0001f8f3   _nop
0001f8f9   strlen
0001f921   ti_sysbios_family_arm_m3_Hwi_Object__get__S
0001f935   OEMSysCritOn
0001f935   ti_sysbios_family_arm_m3_Hwi_disableFxn__E
0001f935   ti_sysbios_hal_Hwi_HwiProxy_disable__E
0001f935   ti_sysbios_hal_Hwi_disable__E
0001f949   ti_sysbios_family_arm_m3_Hwi_switchFromBootStack__E
0001f949   ti_sysbios_hal_Hwi_HwiProxy_switchFromBootStack__E
0001f95d   ti_sysbios_gates_GateHwi_enter__E
0001f971   ti_sysbios_heaps_HeapMem_Object__get__S
0001f985   ti_sysbios_knl_Swi_Object__get__S
0001f999   ti_sysbios_knl_Task_Object__first__S
0001f9ad   ti_sysbios_knl_Task_Object__next__S
0001f9f7   GPIOPinTypeEthernetLED
0001fa09   GPIOPinTypeGPIOInput
0001fa2d   SetSequence
0001fa3f   SockPrAttach
0001fa51   SockSetOOBData
0001fa75   __TI_zero_init
0001fa87   mp_init
0001fa99   ti_sysbios_hal_Hwi_Module_startup__E
0001faab   xdc_runtime_Startup_exec__I
0001fabd   ti_catalog_arm_cortexm4_tiva_ce_Boot_init__I
0001facd   BindIF2IPHost
0001fadd   BindIFNet2IPHost
0001faed   EMACFrameFilterSet
0001fafd   ExecHRef
0001fb0d   LockMutex
0001fb1d   NC_IPUpdate
0001fb2d   NIMUGetRsvdSizeInfo
0001fb6d   strcpy
0001fb7d   ti_sysbios_BIOS_exit__E
0001fb8d   ti_sysbios_BIOS_getCpuFreq__E
0001fb8d   ti_sysbios_family_arm_lm4_TimestampProvider_getFreq__E
0001fb8d   ti_sysbios_family_arm_m3_TimestampProvider_getFreq__E
0001fb8d   xdc_runtime_Timestamp_SupportProxy_getFreq__E
0001fb8d   xdc_runtime_Timestamp_getFreq__E
0001fb9d   ti_sysbios_BIOS_setThreadType__E
0001fbad   ti_sysbios_BIOS_start__E
0001fbbd   ti_sysbios_family_arm_lm4_TimestampProvider_rolloverFunc__E
0001fbcd   ti_sysbios_family_arm_m3_TaskSupport_glue
0001fbdd   ti_sysbios_gates_GateMutex_Instance_finalize__E
0001fbed   ti_sysbios_hal_Hwi_HwiProxy_Object__create__S
0001fbfd   ti_sysbios_knl_Semaphore_Instance_finalize__E
0001fc0d   ti_sysbios_knl_Swi_disable__E
0001fc1d   ti_sysbios_knl_Task_Object__get__S
0001fc2d   ti_sysbios_knl_Task_disable__E
0001fc3d   xdc_runtime_Gate_leaveSystem__E
0001fc4d   xdc_runtime_Memory_free__E
0001fc5d   xdc_runtime_SysMin_ready__E
0001fc5d   xdc_runtime_System_SupportProxy_ready__E
0001fc6d   xdc_runtime_System_vsnprintf__E
0001fc7d   xdc_runtime_Text_visitRope__I
0001fc9b   EMACSnow_emacioctl
0001fca9   ExecLowResource
0001fcb7   MakeMasterSecret
0001fcc5   XTIME
0001fcd3   __TI_decompress_none
0001fce1   ti_sysbios_knl_Queue_empty__E
0001fcfd   BindGetFirst
0001fd09   CfgSetDefault
0001fd15   LowResTimer
0001fd15   MYTIME_gettime
0001fd21   MYTIME_settime
0001fd2d   NDK_hookInit
0001fd39   NIMUSetRsvdSizeInfo
0001fd45   NotifyLowResource
0001fd51   PBM_close
0001fd5d   SemDelete
0001fd69   UnLockMutex
0001fd75   _llTimerShutdown
0001fd8d   c32to24
0001fd99   llTimerGetStartTime
0001fda5   ti_sysbios_family_arm_lm4_Timer_getMaxTicks__E
0001fdb1   ti_sysbios_family_arm_lm4_TimestampProvider_startTimer__E
0001fdbd   ti_sysbios_family_arm_m3_TaskSupport_checkStack__E
0001fdbd   ti_sysbios_knl_Task_SupportProxy_checkStack__E
0001fdc9   ti_sysbios_family_arm_m3_TaskSupport_getStackAlignment__E
0001fdc9   ti_sysbios_knl_Task_SupportProxy_getStackAlignment__E
0001fdd5   ti_sysbios_knl_Clock_Params__init__S
0001fde1   ti_sysbios_knl_Queue_Object__get__S
0001fded   ti_sysbios_knl_Semaphore_Params__init__S
0001fdf9   ti_sysbios_knl_Task_Params__init__S
0001fe05   ti_sysbios_knl_Task_self__E
0001fe11   xdc_runtime_Error_init__E
0001fe1d   xdc_runtime_Gate_enterSystem__E
0001fe29   xdc_runtime_Memory_calloc__E
0001fe35   xdc_runtime_Memory_getMaxDefaultTypeAlign__E
0001fe4b   FreeMutex
0001fe5f   fdint_signalevent
0001fe69   fdint_signaltimeout
0001fe73   mp_add
0001fe7d   mp_clear
0001fe87   mp_mul
0001fe91   mp_read_unsigned_bin
0001fe9b   mp_sub
0001fea5   mp_to_unsigned_bin
0001feaf   ti_sysbios_hal_Hwi_Instance_finalize__E
0001fecd   CyaSSL_CTX_free
0001fed5   CyaSSL_free
0001fedd   EMACTxDMAPollDemand
0001feed   TaskBlock
0001ff5d   ti_sysbios_family_arm_lm4_Timer_masterDisable__I
0001ff65   ti_sysbios_family_arm_m3_Hwi_doSwiRestore__I
0001ff6d   ti_sysbios_family_arm_m3_Hwi_startup__E
0001ff6d   ti_sysbios_hal_Hwi_HwiProxy_startup__E
0001ff6d   ti_sysbios_hal_Hwi_startup__E
0001ff75   ti_sysbios_knl_Idle_loop__E
0001ff7d   ti_sysbios_knl_Task_getHookContext__E
0001ff85   ti_sysbios_knl_Task_setHookContext__E
0001ff8d   CyaSSL_dtls
0001ff93   CyaSSL_get_fd
0001ff99   CyaSSL_get_using_nonblock
0001ff9f   CyaSSL_read
0001ffa5   EMACRxDMADescriptorListSet
0001ffab   EMACTxDMADescriptorListSet
0001ffb1   SysCtlDelay
0001ffb7   TcpPrRecv
0001ffbd   __xdc__init
0001ffc3   __TI_decompress_rle24
0001ffc9   ti_sysbios_family_arm_lm4_TimestampProvider_Module_startup__E
0001ffcf   OEMSysCritOff
0001ffcf   ti_sysbios_family_arm_m3_Hwi_restoreFxn__E
0001ffcf   ti_sysbios_hal_Hwi_HwiProxy_restore__E
0001ffcf   ti_sysbios_hal_Hwi_restore__E
0001ffd5   ti_sysbios_gates_GateHwi_leave__E
0001ffdb   ti_sysbios_heaps_HeapMem_isBlocking__E
0001ffe1   ti_sysbios_knl_Queue_Instance_init__E
0001ffe7   xdc_runtime_System_Module_startup__E
0001ffed   BindGetIF
0001fff1   BindGetNext
0001fff5   FreeRsaKey
0001fffd   NDK_vsprintf
00020001   NodeSetRt
00020005   RawEthSockPrAttach
00020009   RawEthSockPrDetach
0002000d   RsaEncryptSize
00020011   SemPend
00020015   SemPost
00020019   SemReset
0002001d   TaskSelf
00020021   TaskSetPri
00020025   _llSerialInit
0002002d   fp_mul
00020031   fp_sqr
00020035   list_get_head
00020039   list_get_next
00020045   ti_sysbios_BIOS_RtsGateProxy_enter__E
00020049   ti_sysbios_BIOS_RtsGateProxy_leave__E
0002004d   ti_sysbios_family_arm_lm4_Timer_getPeriod__E
00020051   ti_sysbios_family_arm_lm4_Timer_masterEnable__I
00020055   ti_sysbios_family_arm_m3_TaskSupport_Module__startupDone__S
00020059   ti_sysbios_gates_GateHwi_query__E
00020059   xdc_runtime_Main_Module_GateProxy_query__E
00020059   xdc_runtime_System_Module_GateProxy_query__E
0002005d   ti_sysbios_BIOS_RtsGateProxy_query__E
0002005d   ti_sysbios_gates_GateMutex_query__E
0002005d   ti_sysbios_heaps_HeapMem_Module_GateProxy_query__E
00020061   ti_sysbios_hal_Hwi_HwiProxy_Module__startupDone__S
00020065   ti_sysbios_hal_Hwi_HwiProxy_Object__delete__S
00020069   ti_sysbios_hal_Hwi_HwiProxy_delete
0002006d   ti_sysbios_hal_Hwi_delete
00020071   ti_sysbios_heaps_HeapMem_Module_GateProxy_enter__E
00020075   ti_sysbios_heaps_HeapMem_Module_GateProxy_leave__E
00020079   ti_sysbios_knl_Clock_TimerProxy_Module__startupDone__S
0002007d   ti_sysbios_knl_Clock_TimerProxy_getCurrentTick__E
00020081   ti_sysbios_knl_Clock_TimerProxy_getMaxTicks__E
00020085   ti_sysbios_knl_Clock_TimerProxy_getPeriod__E
00020089   ti_sysbios_knl_Clock_TimerProxy_setNextTick__E
0002008d   ti_sysbios_knl_Queue_destruct
00020091   ti_sysbios_knl_Semaphore_delete
00020095   ti_sysbios_knl_Semaphore_destruct
00020099   ti_sysbios_knl_Swi_delete
0002009d   ti_sysbios_knl_Task_SupportProxy_Module__startupDone__S
000200a1   ti_sysbios_knl_Task_delete
000200a5   ti_sysbios_knl_Task_startup__E
000200a9   xdc_runtime_Error_getMsg__E
000200ad   xdc_runtime_Error_getSite__E
000200b1   xdc_runtime_Memory_HeapProxy_alloc__E
000200b5   xdc_runtime_Memory_HeapProxy_free__E
000200b9   xdc_runtime_System_Module_GateProxy_enter__E
000200bd   xdc_runtime_System_Module_GateProxy_leave__E
000200c1   xdc_runtime_System_aprintf_va__F
000200c5   xdc_runtime_System_printf_va__F
000200c8   xdc_runtime_Text_charTab__A
0002180d   ti_sysbios_knl_Clock_tickMode__C
0002180e   ti_catalog_arm_cortexm4_tiva_ce_Boot_Module__id__C
00024810   server_key_der_2048
00024cb9   ca_cert_der_2048
0002515b   server_cert_der_2048
000254ef   ti_sysbios_knl_Clock_tickSource__C
00025710   xdc_runtime_Text_nodeTab__A
0002595a   ti_sysbios_family_arm_lm4_TimestampProvider_useClockTimer__C
00025a77   xdc_runtime_Error_policy__C
00025b44   Code2Err
00025c66   ti_sysbios_family_arm_m3_Hwi_Module__id__C
00025c68   ti_sysbios_knl_Task_Object__PARAMS__C
00025cdc   emacHWAttrs
00025ce8   EMAC_config
00025d00   GPIO_config
00025dd4   gpioHWAttrs
00025e04   ti_sysbios_family_arm_m3_Hwi_Object__PARAMS__C
00025e34   ti_sysbios_hal_Hwi_Object__PARAMS__C
00025eb0   ti_sysbios_heaps_HeapMem_Module__FXNS__C
00025ed8   ti_sysbios_knl_Swi_Object__PARAMS__C
00025f00   ti_sysbios_gates_GateHwi_Module__FXNS__C
00025f24   ti_sysbios_gates_GateMutex_Module__FXNS__C
00025f48   ti_sysbios_heaps_HeapMem_Object__PARAMS__C
00025f6c   ti_sysbios_knl_Clock_Object__PARAMS__C
00025f90   ti_sysbios_knl_Semaphore_Object__PARAMS__C
00025fb4   xdc_runtime_Startup_sfxnTab__A
00025ff8   ti_sysbios_family_arm_m3_Hwi_Object__DESC__C
00026018   ti_sysbios_gates_GateHwi_Object__DESC__C
00026038   ti_sysbios_gates_GateMutex_Object__DESC__C
00026058   ti_sysbios_hal_Hwi_Object__DESC__C
00026078   ti_sysbios_heaps_HeapMem_Object__DESC__C
00026098   ti_sysbios_knl_Clock_Object__DESC__C
000260b8   ti_sysbios_knl_Queue_Object__DESC__C
000260d8   ti_sysbios_knl_Semaphore_Object__DESC__C
000260f8   ti_sysbios_knl_Swi_Object__DESC__C
00026118   ti_sysbios_knl_Task_Object__DESC__C
00026150   ti_ndk_config_Global_rawPageSize
00026154   ti_ndk_config_Global_rawPageCount
00026158   ti_ndk_config_Global_smallest
0002615c   ti_ndk_config_Global_largest
00026160   ti_ndk_config_Global_numFrameBuf
00026164   ti_ndk_config_Global_sizeFrameBuf
00026168   ti_sysbios_gates_GateHwi_Object__PARAMS__C
00026180   ti_sysbios_gates_GateMutex_Object__PARAMS__C
00026198   ti_sysbios_knl_Queue_Object__PARAMS__C
000261b0   ti_sysbios_knl_Task_hooks__A
000261c8   xdc_runtime_Startup_firstFxns__A
000261dc   xdc_runtime_Startup_sfxnRts__A
00026218   EMACSnow_fxnTable
00026220   ti_sysbios_family_arm_m3_Hwi_excHookFuncs__A
00026228   ti_sysbios_knl_Idle_funcList__A
00026230   ti_sysbios_knl_Idle_funcList__C
00026238   ti_sysbios_knl_Task_hooks__C
00026240   xdc_runtime_Startup_firstFxns__C
00026248   xdc_runtime_Startup_lastFxns__C
00026250   ti_catalog_arm_cortexm4_tiva_ce_Boot_A_mustNotUseEnhancedClockMode__C
00026254   ti_catalog_arm_cortexm4_tiva_ce_Boot_Module__diagsEnabled__C
00026258   ti_catalog_arm_cortexm4_tiva_ce_Boot_Module__diagsIncluded__C
0002625c   ti_catalog_arm_cortexm4_tiva_ce_Boot_Module__diagsMask__C
00026260   ti_sysbios_family_arm_lm4_Timer_enableFunc__C
00026264   ti_sysbios_family_arm_lm4_Timer_numTimerDevices__C
00026268   ti_sysbios_family_arm_lm4_Timer_startupNeeded__C
0002626c   ti_sysbios_family_arm_m3_Hwi_E_NMI__C
00026270   ti_sysbios_family_arm_m3_Hwi_E_alreadyDefined__C
00026274   ti_sysbios_family_arm_m3_Hwi_E_busFault__C
00026278   ti_sysbios_family_arm_m3_Hwi_E_debugMon__C
0002627c   ti_sysbios_family_arm_m3_Hwi_E_hardFault__C
00026280   ti_sysbios_family_arm_m3_Hwi_E_hwiLimitExceeded__C
00026284   ti_sysbios_family_arm_m3_Hwi_E_memFault__C
00026288   ti_sysbios_family_arm_m3_Hwi_E_noIsr__C
0002628c   ti_sysbios_family_arm_m3_Hwi_E_reserved__C
00026290   ti_sysbios_family_arm_m3_Hwi_E_svCall__C
00026294   ti_sysbios_family_arm_m3_Hwi_E_usageFault__C
00026298   ti_sysbios_family_arm_m3_Hwi_LD_end__C
0002629c   ti_sysbios_family_arm_m3_Hwi_LM_begin__C
000262a0   ti_sysbios_family_arm_m3_Hwi_Module__diagsEnabled__C
000262a4   ti_sysbios_family_arm_m3_Hwi_Module__diagsIncluded__C
000262a8   ti_sysbios_family_arm_m3_Hwi_Module__diagsMask__C
000262ac   ti_sysbios_family_arm_m3_Hwi_Module__loggerFxn1__C
000262b0   ti_sysbios_family_arm_m3_Hwi_Module__loggerFxn8__C
000262b4   ti_sysbios_family_arm_m3_Hwi_Module__loggerObj__C
000262b8   ti_sysbios_family_arm_m3_Hwi_NUM_INTERRUPTS__C
000262bc   ti_sysbios_family_arm_m3_Hwi_Object__count__C
000262c0   ti_sysbios_family_arm_m3_Hwi_ccr__C
000262c4   ti_sysbios_family_arm_m3_Hwi_disablePriority__C
000262c8   ti_sysbios_family_arm_m3_Hwi_excHandlerFunc__C
000262cc   ti_sysbios_family_arm_m3_Hwi_excHookFuncs__C
000262d0   ti_sysbios_family_arm_m3_Hwi_nullIsrFunc__C
000262d4   ti_sysbios_family_arm_m3_Hwi_numSparseInterrupts__C
000262d8   ti_sysbios_family_arm_m3_Hwi_priGroup__C
000262dc   ti_sysbios_family_arm_m3_TaskSupport_stackAlignment__C
000262e0   ti_sysbios_gates_GateMutex_A_badContext__C
000262e4   ti_sysbios_gates_GateMutex_Instance_State_sem__O
000262e8   ti_sysbios_gates_GateMutex_Module__diagsEnabled__C
000262ec   ti_sysbios_gates_GateMutex_Module__diagsIncluded__C
000262f0   ti_sysbios_gates_GateMutex_Module__diagsMask__C
000262f4   ti_sysbios_hal_Hwi_E_stackOverflow__C
000262f8   ti_sysbios_heaps_HeapMem_A_align__C
000262fc   ti_sysbios_heaps_HeapMem_A_heapSize__C
00026300   ti_sysbios_heaps_HeapMem_A_invalidFree__C
00026304   ti_sysbios_heaps_HeapMem_A_zeroBlock__C
00026308   ti_sysbios_heaps_HeapMem_E_memory__C
0002630c   ti_sysbios_heaps_HeapMem_Module__diagsEnabled__C
00026310   ti_sysbios_heaps_HeapMem_Module__diagsIncluded__C
00026314   ti_sysbios_heaps_HeapMem_Module__diagsMask__C
00026318   ti_sysbios_heaps_HeapMem_Module__gateObj__C
0002631c   ti_sysbios_heaps_HeapMem_Object__count__C
00026320   ti_sysbios_heaps_HeapMem_reqAlign__C
00026324   ti_sysbios_knl_Clock_A_badThreadType__C
00026328   ti_sysbios_knl_Clock_LM_begin__C
0002632c   ti_sysbios_knl_Clock_LM_tick__C
00026330   ti_sysbios_knl_Clock_LW_delayed__C
00026334   ti_sysbios_knl_Clock_Module_State_clockQ__O
00026338   ti_sysbios_knl_Clock_Module__diagsEnabled__C
0002633c   ti_sysbios_knl_Clock_Module__diagsIncluded__C
00026340   ti_sysbios_knl_Clock_Module__diagsMask__C
00026344   ti_sysbios_knl_Clock_Module__loggerFxn1__C
00026348   ti_sysbios_knl_Clock_Module__loggerFxn2__C
0002634c   ti_sysbios_knl_Clock_Module__loggerObj__C
00026350   ti_sysbios_knl_Semaphore_A_badContext__C
00026354   ti_sysbios_knl_Semaphore_A_noEvents__C
00026358   ti_sysbios_knl_Semaphore_A_overflow__C
0002635c   ti_sysbios_knl_Semaphore_A_pendTaskDisabled__C
00026360   ti_sysbios_knl_Semaphore_Instance_State_pendQ__O
00026364   ti_sysbios_knl_Semaphore_LM_pend__C
00026368   ti_sysbios_knl_Semaphore_LM_post__C
0002636c   ti_sysbios_knl_Semaphore_Module__diagsEnabled__C
00026370   ti_sysbios_knl_Semaphore_Module__diagsIncluded__C
00026374   ti_sysbios_knl_Semaphore_Module__diagsMask__C
00026378   ti_sysbios_knl_Semaphore_Module__loggerFxn2__C
0002637c   ti_sysbios_knl_Semaphore_Module__loggerFxn4__C
00026380   ti_sysbios_knl_Semaphore_Module__loggerObj__C
00026384   ti_sysbios_knl_Swi_A_badPriority__C
00026388   ti_sysbios_knl_Swi_LD_end__C
0002638c   ti_sysbios_knl_Swi_LM_begin__C
00026390   ti_sysbios_knl_Swi_LM_post__C
00026394   ti_sysbios_knl_Swi_Module__diagsEnabled__C
00026398   ti_sysbios_knl_Swi_Module__diagsIncluded__C
0002639c   ti_sysbios_knl_Swi_Module__diagsMask__C
000263a0   ti_sysbios_knl_Swi_Module__loggerFxn1__C
000263a4   ti_sysbios_knl_Swi_Module__loggerFxn4__C
000263a8   ti_sysbios_knl_Swi_Module__loggerObj__C
000263ac   ti_sysbios_knl_Swi_Object__count__C
000263b0   ti_sysbios_knl_Swi_numPriorities__C
000263b4   ti_sysbios_knl_Task_A_badPriority__C
000263b8   ti_sysbios_knl_Task_A_badTaskState__C
000263bc   ti_sysbios_knl_Task_A_badThreadType__C
000263c0   ti_sysbios_knl_Task_A_badTimeout__C
000263c4   ti_sysbios_knl_Task_A_noPendElem__C
000263c8   ti_sysbios_knl_Task_A_sleepTaskDisabled__C
000263cc   ti_sysbios_knl_Task_E_deleteNotAllowed__C
000263d0   ti_sysbios_knl_Task_E_spOutOfBounds__C
000263d4   ti_sysbios_knl_Task_E_stackOverflow__C
000263d8   ti_sysbios_knl_Task_LD_block__C
000263dc   ti_sysbios_knl_Task_LD_exit__C
000263e0   ti_sysbios_knl_Task_LD_ready__C
000263e4   ti_sysbios_knl_Task_LM_setPri__C
000263e8   ti_sysbios_knl_Task_LM_sleep__C
000263ec   ti_sysbios_knl_Task_LM_switch__C
000263f0   ti_sysbios_knl_Task_Module_State_inactiveQ__O
000263f4   ti_sysbios_knl_Task_Module_State_terminatedQ__O
000263f8   ti_sysbios_knl_Task_Module__diagsEnabled__C
000263fc   ti_sysbios_knl_Task_Module__diagsIncluded__C
00026400   ti_sysbios_knl_Task_Module__diagsMask__C
00026404   ti_sysbios_knl_Task_Module__loggerFxn2__C
00026408   ti_sysbios_knl_Task_Module__loggerFxn4__C
0002640c   ti_sysbios_knl_Task_Module__loggerObj__C
00026410   ti_sysbios_knl_Task_Object__count__C
00026414   ti_sysbios_knl_Task_Object__heap__C
00026418   ti_sysbios_knl_Task_allBlockedFunc__C
0002641c   ti_sysbios_knl_Task_defaultStackHeap__C
00026420   ti_sysbios_knl_Task_defaultStackSize__C
00026424   ti_sysbios_knl_Task_numConstructedTasks__C
00026428   ti_sysbios_knl_Task_numPriorities__C
0002642c   xdc_runtime_Assert_E_assertFailed__C
00026430   xdc_runtime_Core_A_initializedParams__C
00026434   xdc_runtime_Core_Module__diagsEnabled__C
00026438   xdc_runtime_Core_Module__diagsIncluded__C
0002643c   xdc_runtime_Core_Module__diagsMask__C
00026440   xdc_runtime_Error_E_memory__C
00026444   xdc_runtime_Error_Module__diagsEnabled__C
00026448   xdc_runtime_Error_Module__diagsIncluded__C
0002644c   xdc_runtime_Error_Module__diagsMask__C
00026450   xdc_runtime_Error_Module__loggerFxn8__C
00026454   xdc_runtime_Error_Module__loggerObj__C
00026458   xdc_runtime_Error_policyFxn__C
0002645c   xdc_runtime_Error_raiseHook__C
00026460   xdc_runtime_IGateProvider_Interface__BASE__C
00026464   xdc_runtime_IHeap_Interface__BASE__C
00026468   xdc_runtime_IModule_Interface__BASE__C
0002646c   xdc_runtime_Log_L_error__C
00026470   xdc_runtime_Memory_defaultHeapInstance__C
00026474   xdc_runtime_Startup_execImpl__C
00026478   xdc_runtime_Startup_lastFxns__A
0002647c   xdc_runtime_Startup_maxPasses__C
00026480   xdc_runtime_Startup_sfxnRts__C
00026484   xdc_runtime_Startup_sfxnTab__C
00026488   xdc_runtime_SysMin_bufSize__C
0002648c   xdc_runtime_SysMin_outputFunc__C
00026490   xdc_runtime_System_Module__gateObj__C
00026494   xdc_runtime_System_abortFxn__C
00026498   xdc_runtime_System_exitFxn__C
0002649c   xdc_runtime_System_extendFxn__C
000264a0   xdc_runtime_System_maxAtexitHandlers__C
000264a4   xdc_runtime_Text_charTab__C
000264a8   xdc_runtime_Text_nameEmpty__C
000264ac   xdc_runtime_Text_nameStatic__C
000264b0   xdc_runtime_Text_nameUnknown__C
000264b4   xdc_runtime_Text_nodeTab__C
000264b8   xdc_runtime_Text_visitRopeFxn__C
000264bc   ti_sysbios_family_arm_m3_Hwi_Module__loggerDefined__C
000264be   ti_sysbios_gates_GateMutex_Module__id__C
000264c0   ti_sysbios_hal_Hwi_Module__id__C
000264c2   ti_sysbios_heaps_HeapMem_Module__id__C
000264c4   ti_sysbios_knl_Clock_Module__id__C
000264c6   ti_sysbios_knl_Clock_Module__loggerDefined__C
000264c8   ti_sysbios_knl_Semaphore_Module__id__C
000264ca   ti_sysbios_knl_Semaphore_Module__loggerDefined__C
000264cc   ti_sysbios_knl_Swi_Module__id__C
000264ce   ti_sysbios_knl_Swi_Module__loggerDefined__C
000264d0   ti_sysbios_knl_Task_Module__id__C
000264d2   ti_sysbios_knl_Task_Module__loggerDefined__C
000264d4   ti_sysbios_knl_Task_checkStackFlag__C
000264d6   ti_sysbios_knl_Task_deleteTerminatedTasks__C
000264d8   ti_sysbios_knl_Task_initStackFlag__C
000264da   xdc_runtime_Core_Module__id__C
000264dc   xdc_runtime_Error_Module__loggerDefined__C
000264de   xdc_runtime_Error_maxDepth__C
000264e0   xdc_runtime_Memory_Module__id__C
000264e2   xdc_runtime_SysMin_flushAtExit__C
000264e4   xdc_runtime_Text_charCnt__C
000264e6   xdc_runtime_Text_isLoaded__C
000264e8   xdc_runtime_Text_registryModsLastId__C
000264ea   xdc_runtime_Text_unnamedModsLastId__C
00026aec   __TI_Handler_Table_Base
00026af8   __TI_Handler_Table_Limit
00026b08   __TI_CINIT_Base
00026b20   __TI_CINIT_Limit
20000000   ti_sysbios_family_arm_m3_Hwi_ramVectors
20000380   ti_sysbios_heaps_HeapMem_Instance_State_0_buf__A
20018a20   ti_ndk_config_Global_pit
20018ac8   ti_ndk_config_Global_pitBuffer
2001d2f4   PBMQ_free
2001d300   ti_ndk_config_Global_pBufMem
20020f00   ti_ndk_config_Global_pHdrMem
200220c0   ti_sysbios_knl_Task_Instance_State_0_stack__A
200226c0   ti_sysbios_knl_Task_Instance_State_1_stack__A
200229c0   ti_sysbios_family_arm_m3_Hwi_dispatchTable
20022d20   __CIOBUF_
2002301c   tcps
200232a8   xdc_runtime_SysMin_Module_State_0_outbuf__A
20023328   BlockMax
20023344   BlockCount
20023360   PageMax
2002337c   PageCount
20023398   ips
20023400   nimu_mcb
20023460   _ICMPIn
200234ac   _ICMPOut
20023538   vlan_mcb
20023594   _IGMPInDiscard
20023598   _IGMPInQuery
2002359c   _IGMPInQueryGroup
200235a0   _IGMPInResponse
200235a4   _IGMPOutResponse
200235a8   udps
200235cc   stkEvent
20023618   raws
20023628   raweths
20023638   tpseudo
20023644   upseudo
20023658   emacObjects
2002366c   raweth_pcb
20023678   g_ulStatus
20023680   ti_sysbios_knl_Task_Instance_State_0_hookEnv__A
20023684   ti_sysbios_knl_Task_Instance_State_1_hookEnv__A
20023688   ti_ndk_config_Global_Id2Size
200236a4   ti_ndk_config_Global_HostName
200236e8   ti_sysbios_family_arm_lm4_Timer_Module__root__V
200236f0   ti_sysbios_family_arm_lm4_Timer_Module_State_0_handles__A
20023710   ti_sysbios_family_arm_lm4_Timer_Module__state__V
2002371c   ti_sysbios_family_arm_lm4_TimestampProvider_Module__state__V
20023724   ti_sysbios_family_arm_m3_Hwi_Module__root__V
2002372c   ti_sysbios_family_arm_m3_Hwi_Module_State_0_excActive__A
20023730   ti_sysbios_family_arm_m3_Hwi_Module_State_0_excContext__A
20023734   ti_sysbios_family_arm_m3_Hwi_Module_State_0_excStack__A
20023738   ti_sysbios_gates_GateHwi_Module__root__V
20023740   ti_sysbios_gates_GateHwi_Object__table__V
20023744   ti_sysbios_gates_GateMutex_Module__root__V
2002374c   ti_sysbios_hal_Hwi_Module__root__V
20023754   ti_sysbios_heaps_HeapMem_Module__root__V
2002375c   ti_sysbios_heaps_HeapMem_Object__table__V
20023774   ti_sysbios_knl_Clock_Module__root__V
2002377c   ti_sysbios_knl_Queue_Module__root__V
20023784   ti_sysbios_knl_Semaphore_Module__root__V
2002378c   ti_sysbios_knl_Swi_Module__root__V
20023794   ti_sysbios_knl_Swi_Module__state__V
200237b0   ti_sysbios_knl_Task_Module__root__V
200237b8   ti_sysbios_knl_Task_Module_State_0_idleTask__A
200237bc   xdc_runtime_Error_Module__state__V
200237c0   xdc_runtime_Memory_Module__state__V
200237c4   xdc_runtime_Registry_Module__state__V
200237cc   xdc_runtime_Startup_Module__state__V
200237d4   xdc_runtime_SysMin_Module__state__V
200237e0   xdc_runtime_System_Module_State_0_atexitHandlers__A
20023800   xdc_runtime_System_Module__state__V
20023808   xdc_runtime_Text_Module__state__V
20023810   __xdc__init__addr
20023814   _ipcfg
200238c8   ti_sysbios_knl_Task_Object__table__V
20023914   TSK_idle
20023960   ti_sysbios_family_arm_lm4_Timer_Object__table__V
200239e0   ti_sysbios_knl_Swi_Module_State_0_readyQ__A
20023a60   ti_sysbios_knl_Task_Module_State_0_readyQ__A
20023b30   ti_sysbios_knl_Task_Module__state__V
20023bf4   ti_sysbios_family_arm_lm4_Timer_Module_State_0_device__A
20023c34   ti_sysbios_gates_GateMutex_Object__table__V
20023ca0   ti_sysbios_family_arm_m3_Hwi_Module__state__V
20023cd4   enablePrefetch
20023cd8   phyCounter
20023d38   ti_sysbios_family_arm_m3_Hwi_Object__table__V
20023d68   ti_sysbios_knl_Swi_Object__table__V
20023d98   ti_sysbios_knl_Clock_Module__state__V
20023dc4   pstrMsgName
20023dec   _oscfg
20023e10   PITCount
20023e14   PITUsed
20023e18   PITHigh
20023e34   ti_sysbios_BIOS_Module__state__V
20023ebc   NIMUDeviceTable
20023ec4   macAddress
20023ed4   _IGMPForceVersion1
20023f10   _lock
20023f14   _unlock
20023f18   __TI_cleanup_ptr
20023f1c   __TI_dtors_ptr
20023f28   _ICMPInErrors
20023f2c   _ICMPOutErrors
20023f30   _IPExecuting
20023f48   tcp_iss
20023f4c   ptTimeFirst
20023f78   main_func_sp
20023f80   _IPReasmPtr
20023f90   __stack
20024190   __STACK_TOP
20024390   __STACK_END
40000400   ti_sysbios_family_arm_ducati_CTM_ctm
e000e000   ti_sysbios_family_arm_m3_Hwi_nvic
ffffffff   __binit__
ffffffff   __c_args__
ffffffff   binit
UNDEFED    SHT$$INIT_ARRAY$$Base
UNDEFED    SHT$$INIT_ARRAY$$Limit

[1293 symbols]
